 win32_handmade

 Timestamp is 67b3afda (Mon Feb 17 18:53:30 2025)

 Preferred load address is 0000000140000000

 Start         Length     Name                   Class
 0001:00000000 0007b180H .text$mn                CODE
 0001:0007b180 00001040H .text$mn$00             CODE
 0001:0007c1c0 00001e50H .text$mn$21             CODE
 0001:0007e010 00001cd3H .text$x                 CODE
 0002:00000000 00000110H .CRT$XCA                DATA
 0002:00000110 00000110H .CRT$XCAA               DATA
 0002:00000220 00000110H .CRT$XCZ                DATA
 0002:00000330 00000110H .CRT$XIA                DATA
 0002:00000440 00000110H .CRT$XIAA               DATA
 0002:00000550 00000110H .CRT$XIAC               DATA
 0002:00000660 00000140H .CRT$XIC                DATA
 0002:000007a0 00000110H .CRT$XIZ                DATA
 0002:000008b0 00000110H .CRT$XPA                DATA
 0002:000009c0 00000120H .CRT$XPX                DATA
 0002:00000ae0 00000110H .CRT$XPXA               DATA
 0002:00000bf0 00000110H .CRT$XPZ                DATA
 0002:00000d00 00000110H .CRT$XTA                DATA
 0002:00000e10 00000110H .CRT$XTZ                DATA
 0002:00000f20 0000cb30H .rdata                  DATA
 0002:0000da50 000002b0H .rdata$00               DATA
 0002:0000dd00 00000200H .rdata$CastGuardVftablesA DATA
 0002:0000df00 000001a0H .rdata$CastGuardVftablesC DATA
 0002:0000e0a0 0000060cH .rdata$r                DATA
 0002:0000e6ac 0000016cH .rdata$zzzdbg           DATA
 0002:0000e818 00000110H .rtc$IAA                DATA
 0002:0000e928 00000110H .rtc$IZZ                DATA
 0002:0000ea38 00000110H .rtc$TAA                DATA
 0002:0000eb48 00000110H .rtc$TZZ                DATA
 0002:0000ec58 00007098H .xdata                  DATA
 0002:00015cf0 00000196H .xdata$x                DATA
 0002:00015e86 00000000H .edata                  DATA
 0003:00000000 00000e40H .data                   DATA
 0003:00000e40 00000190H .data$r                 DATA
 0003:00000fd0 00000230H .data$rs                DATA
 0003:00001200 00002381H .bss                    DATA
 0004:00000000 000050a0H .pdata                  DATA
 0005:00000000 000005c8H .idata$5                DATA
 0005:000005c8 00000064H .idata$2                DATA
 0005:0000062c 00000014H .idata$3                DATA
 0005:00000640 000005c8H .idata$4                DATA
 0005:00000c08 000009b9H .idata$6                DATA
 0006:00000000 00000175H .00cfg                  DATA

  Address         Publics by Value              Rva+Base               Lib:Object

 0000:00000000       __AbsoluteZero             0000000000000000     <absolute>
 0000:00000000       ___safe_se_handler_count   0000000000000000     <absolute>
 0000:00000000       ___safe_se_handler_table   0000000000000000     <absolute>
 0000:00000000       __arm64x_extra_rfe_table   0000000000000000     <absolute>
 0000:00000000       __arm64x_extra_rfe_table_size 0000000000000000     <absolute>
 0000:00000000       __arm64x_native_entrypoint 0000000000000000     <absolute>
 0000:00000000       __arm64x_redirection_metadata 0000000000000000     <absolute>
 0000:00000000       __arm64x_redirection_metadata_count 0000000000000000     <absolute>
 0000:00000000       __dynamic_value_reloc_table 0000000000000000     <absolute>
 0000:00000000       __enclave_config           0000000000000000     <absolute>
 0000:00000000       __guard_check_icall_a64n_fptr 0000000000000000     <absolute>
 0000:00000000       __guard_eh_cont_count      0000000000000000     <absolute>
 0000:00000000       __guard_eh_cont_table      0000000000000000     <absolute>
 0000:00000000       __guard_fids_count         0000000000000000     <absolute>
 0000:00000000       __guard_fids_table         0000000000000000     <absolute>
 0000:00000000       __guard_iat_count          0000000000000000     <absolute>
 0000:00000000       __guard_iat_table          0000000000000000     <absolute>
 0000:00000000       __guard_longjmp_count      0000000000000000     <absolute>
 0000:00000000       __guard_longjmp_table      0000000000000000     <absolute>
 0000:00000000       __hybrid_auxiliary_delayload_iat 0000000000000000     <absolute>
 0000:00000000       __hybrid_auxiliary_delayload_iat_copy 0000000000000000     <absolute>
 0000:00000000       __hybrid_auxiliary_iat     0000000000000000     <absolute>
 0000:00000000       __hybrid_auxiliary_iat_copy 0000000000000000     <absolute>
 0000:00000000       __hybrid_code_map          0000000000000000     <absolute>
 0000:00000000       __hybrid_code_map_count    0000000000000000     <absolute>
 0000:00000000       __hybrid_image_info_bitfield 0000000000000000     <absolute>
 0000:00000000       __volatile_metadata        0000000000000000     <absolute>
 0000:00000000       __x64_code_ranges_to_entry_points 0000000000000000     <absolute>
 0000:00000000       __x64_code_ranges_to_entry_points_count 0000000000000000     <absolute>
 0000:00000100       __guard_flags              0000000000000100     <absolute>
 0000:00000000       __ImageBase                0000000140000000     <linker-defined>
 0001:000062e0       WinMain                    00000001400072e0 f   win32_handmade.obj
 0001:00006630       ?PlatformFreeFileMemory@@YAXPEAX@Z 0000000140007630 f   win32_handmade.obj
 0001:00006660       ?PlatformWriteEntireFile@@YA_NPEADIPEAX@Z 0000000140007660 f   win32_handmade.obj
 0001:000068f0       ?PlatformReadEntireFile@@YAPEAXPEBD@Z 00000001400078f0 f   win32_handmade.obj
 0001:00006d20       ?GetWindowDimension@@YA?ATv2i@@PEAUHWND__@@@Z 0000000140007d20 f   win32_handmade.obj
 0001:00006fd0       ?Win32MainWindowCallback@@YA_JPEAUHWND__@@I_K_J@Z 0000000140007fd0 f   win32_handmade.obj
 0001:00007dd0       ?StringCbPrintfA@@YAJPEAD_KPEBDZZ 0000000140008dd0 f i win32_handmade.obj
 0001:00007e90       ?XAudio2Create@@YAJPEAPEAUIXAudio2@@II@Z 0000000140008e90 f i win32_handmade.obj
 0001:00007fe0       HRESULT_FROM_WIN32         0000000140008fe0 f i win32_handmade.obj
 0001:00008030       __local_stdio_printf_options 0000000140009030 f i win32_handmade.obj
 0001:00008040       _vsnprintf                 0000000140009040 f i win32_handmade.obj
 0001:00008090       _vsnprintf_l               0000000140009090 f i win32_handmade.obj
 0001:00008122       TranslateMessage           0000000140009122 f   user32:USER32.dll
 0001:00008128       DispatchMessageA           0000000140009128 f   user32:USER32.dll
 0001:0000812e       PeekMessageA               000000014000912e f   user32:USER32.dll
 0001:00008134       DefWindowProcA             0000000140009134 f   user32:USER32.dll
 0001:0000813a       RegisterClassA             000000014000913a f   user32:USER32.dll
 0001:00008140       CreateWindowExA            0000000140009140 f   user32:USER32.dll
 0001:00008146       GetDC                      0000000140009146 f   user32:USER32.dll
 0001:0000814c       ReleaseDC                  000000014000914c f   user32:USER32.dll
 0001:00008152       BeginPaint                 0000000140009152 f   user32:USER32.dll
 0001:00008158       EndPaint                   0000000140009158 f   user32:USER32.dll
 0001:0000815e       GetClientRect              000000014000915e f   user32:USER32.dll
 0001:00008164       StretchDIBits              0000000140009164 f   gdi32:GDI32.dll
 0001:0000816a       XInputGetState             000000014000916a f   Xinput:XINPUT1_4.dll
 0001:00008170       CoInitializeEx             0000000140009170 f   Ole32:ole32.dll
 0001:00008178       __GSHandlerCheck           0000000140009178 f   LIBCMT:gshandler.obj
 0001:0000819c       __GSHandlerCheckCommon     000000014000919c f   LIBCMT:gshandler.obj
 0001:00008220       __security_check_cookie    0000000140009220 f   LIBCMT:amdsecgs.obj
 0001:0000854c       ?configure_argv@__scrt_narrow_argv_policy@@SAHXZ 000000014000954c f i LIBCMT:exe_winmain.obj
 0001:00008568       ?initialize_environment@__scrt_narrow_environment_policy@@SAHXZ 0000000140009568 f i LIBCMT:exe_winmain.obj
 0001:000085a8       ?set_app_type@__scrt_winmain_policy@@SAXXZ 00000001400095a8 f i LIBCMT:exe_winmain.obj
 0001:000085b4       ?set_commode@__scrt_file_policy@@SAXXZ 00000001400095b4 f i LIBCMT:exe_winmain.obj
 0001:000085d4       ?set_fmode@__scrt_file_policy@@SAXXZ 00000001400095d4 f i LIBCMT:exe_winmain.obj
 0001:000085f0       WinMainCRTStartup          00000001400095f0 f   LIBCMT:exe_winmain.obj
 0001:00008608       __raise_securityfailure    0000000140009608 f   LIBCMT:gs_report.obj
 0001:0000864c       __report_gsfailure         000000014000964c f   LIBCMT:gs_report.obj
 0001:00008754       __report_rangecheckfailure 0000000140009754 f   LIBCMT:gs_report.obj
 0001:00008770       __report_securityfailure   0000000140009770 f   LIBCMT:gs_report.obj
 0001:00008834       __report_securityfailureEx 0000000140009834 f   LIBCMT:gs_report.obj
 0001:00008b38       NtCurrentTeb               0000000140009b38 f i LIBCMT:utility.obj
 0001:00008b44       __scrt_acquire_startup_lock 0000000140009b44 f   LIBCMT:utility.obj
 0001:00008b8c       __scrt_dllmain_after_initialize_c 0000000140009b8c f   LIBCMT:utility.obj
 0001:00008bd0       __scrt_dllmain_before_initialize_c 0000000140009bd0 f   LIBCMT:utility.obj
 0001:00008bec       __scrt_dllmain_crt_thread_attach 0000000140009bec f   LIBCMT:utility.obj
 0001:00008c20       __scrt_dllmain_crt_thread_detach 0000000140009c20 f   LIBCMT:utility.obj
 0001:00008c3c       __scrt_dllmain_exception_filter 0000000140009c3c f   LIBCMT:utility.obj
 0001:00008cb4       __scrt_dllmain_uninitialize_c 0000000140009cb4 f   LIBCMT:utility.obj
 0001:00008cf0       __scrt_dllmain_uninitialize_critical 0000000140009cf0 f   LIBCMT:utility.obj
 0001:00008d0c       __scrt_initialize_crt      0000000140009d0c f   LIBCMT:utility.obj
 0001:00008d54       __scrt_initialize_onexit_tables 0000000140009d54 f   LIBCMT:utility.obj
 0001:00008e04       __scrt_is_nonwritable_in_current_image 0000000140009e04 f   LIBCMT:utility.obj
 0001:00008ec4       __scrt_release_startup_lock 0000000140009ec4 f   LIBCMT:utility.obj
 0001:00008ef4       __scrt_uninitialize_crt    0000000140009ef4 f   LIBCMT:utility.obj
 0001:00008f28       _onexit                    0000000140009f28 f   LIBCMT:utility.obj
 0001:00008f70       at_quick_exit              0000000140009f70 f   LIBCMT:utility.obj
 0001:00008f94       atexit                     0000000140009f94 f   LIBCMT:utility.obj
 0001:00009038       __security_init_cookie     000000014000a038 f   LIBCMT:gs_support.obj
 0001:00009110       _matherr                   000000014000a110 f   LIBCMT:matherr.obj
 0001:00009114       _get_startup_argv_mode     000000014000a114 f   LIBCMT:argv_mode.obj
 0001:0000911c       _get_startup_commit_mode   000000014000a11c f   LIBCMT:commit_mode.obj
 0001:00009120       _get_startup_file_mode     000000014000a120 f   LIBCMT:file_mode.obj
 0001:00009128       _get_startup_new_mode      000000014000a128 f   LIBCMT:new_mode.obj
 0001:0000912c       _get_startup_thread_locale_mode 000000014000a12c f   LIBCMT:thread_locale.obj
 0001:00009130       ?__scrt_initialize_type_info@@YAXXZ 000000014000a130 f   LIBCMT:tncleanup.obj
 0001:00009144       ?__scrt_uninitialize_type_info@@YAXXZ 000000014000a144 f   LIBCMT:tncleanup.obj
 0001:00009154       _should_initialize_environment 000000014000a154 f   LIBCMT:env_mode.obj
 0001:00009158       _initialize_invalid_parameter_handler 000000014000a158 f   LIBCMT:invalid_parameter_handler.obj
 0001:0000915c       _initialize_denormal_control 000000014000a15c f   LIBCMT:denormal_control.obj
 0001:00009160       __local_stdio_scanf_options 000000014000a160 f i LIBCMT:default_local_stdio_options.obj
 0001:0000916c       __scrt_initialize_default_local_stdio_options 000000014000a16c f   LIBCMT:default_local_stdio_options.obj
 0001:00009190       __scrt_is_user_matherr_present 000000014000a190 f   LIBCMT:matherr_detection.obj
 0001:000091a0       __scrt_get_dyn_tls_init_callback 000000014000a1a0 f   LIBCMT:dyn_tls_init.obj
 0001:000091ac       __scrt_get_dyn_tls_dtor_callback 000000014000a1ac f   LIBCMT:dyn_tls_dtor.obj
 0001:000091b8       __crt_debugger_hook        000000014000a1b8 f   LIBCMT:utility_desktop.obj
 0001:000091c4       __scrt_fastfail            000000014000a1c4 f   LIBCMT:utility_desktop.obj
 0001:00009360       __scrt_get_show_window_mode 000000014000a360 f   LIBCMT:utility_desktop.obj
 0001:000093a8       __scrt_initialize_mta      000000014000a3a8 f   LIBCMT:utility_desktop.obj
 0001:000093b0       __scrt_initialize_winrt    000000014000a3b0 f   LIBCMT:utility_desktop.obj
 0001:000093b4       __scrt_is_managed_app      000000014000a3b4 f   LIBCMT:utility_desktop.obj
 0001:0000941c       __scrt_set_unhandled_exception_filter 000000014000a41c f   LIBCMT:utility_desktop.obj
 0001:00009430       __scrt_exe_initialize_mta  000000014000a430 f   LIBCMT:utility_desktop.obj
 0001:00009430       __scrt_stub_for_initialize_mta 000000014000a430 f   LIBCMT:utility_desktop.obj
 0001:00009434       __scrt_unhandled_exception_filter 000000014000a434 f   LIBCMT:utility_desktop.obj
 0001:000094a8       _RTC_Initialize            000000014000a4a8 f   LIBCMT:initsect.obj
 0001:000094f4       _RTC_Terminate             000000014000a4f4 f   LIBCMT:initsect.obj
 0001:00009540       _guard_check_icall_nop     000000014000a540 f i LIBCMT:guard_support.obj
 0001:00009544       ReadNoFence64              000000014000a544 f i LIBCMT:guard_support.obj
 0001:00009548       ReadPointerNoFence         000000014000a548 f i LIBCMT:guard_support.obj
 0001:0000954c       __castguard_check_failure_debugbreak 000000014000a54c f i LIBCMT:guard_support.obj
 0001:00009570       __castguard_check_failure_fastfail 000000014000a570 f i LIBCMT:guard_support.obj
 0001:0000959c       __castguard_check_failure_nop 000000014000a59c f i LIBCMT:guard_support.obj
 0001:000095a0       __castguard_check_failure_os_handled 000000014000a5a0 f i LIBCMT:guard_support.obj
 0001:000095fc       __castguard_check_failure_user_handled 000000014000a5fc f i LIBCMT:guard_support.obj
 0001:00009688       __castguard_set_user_handler 000000014000a688 f i LIBCMT:guard_support.obj
 0001:00009698       __castguard_slow_path_check_debugbreak 000000014000a698 f i LIBCMT:guard_support.obj
 0001:000096dc       __castguard_slow_path_check_fastfail 000000014000a6dc f i LIBCMT:guard_support.obj
 0001:00009724       __castguard_slow_path_check_nop 000000014000a724 f i LIBCMT:guard_support.obj
 0001:00009728       __castguard_slow_path_check_os_handled 000000014000a728 f i LIBCMT:guard_support.obj
 0001:00009788       __castguard_slow_path_check_user_handled 000000014000a788 f i LIBCMT:guard_support.obj
 0001:0000980c       _guard_icall_checks_enforced 000000014000a80c f i LIBCMT:guard_support.obj
 0001:00009828       _guard_rf_checks_enforced  000000014000a828 f i LIBCMT:guard_support.obj
 0001:0000982c       __isa_available_init       000000014000a82c f   LIBCMT:cpu_disp.obj
 0001:00009ba8       __scrt_is_ucrt_dll_in_use  000000014000aba8 f   LIBCMT:ucrt_detection.obj
 0001:00009bc0       CreateFileA                000000014000abc0 f   kernel32:KERNEL32.dll
 0001:00009bc6       GetFileSizeEx              000000014000abc6 f   kernel32:KERNEL32.dll
 0001:00009bcc       ReadFile                   000000014000abcc f   kernel32:KERNEL32.dll
 0001:00009bd2       WriteFile                  000000014000abd2 f   kernel32:KERNEL32.dll
 0001:00009bd8       OutputDebugStringA         000000014000abd8 f   kernel32:KERNEL32.dll
 0001:00009bde       CloseHandle                000000014000abde f   kernel32:KERNEL32.dll
 0001:00009be4       GetLastError               000000014000abe4 f   kernel32:KERNEL32.dll
 0001:00009bea       QueryPerformanceCounter    000000014000abea f   kernel32:KERNEL32.dll
 0001:00009bf0       QueryPerformanceFrequency  000000014000abf0 f   kernel32:KERNEL32.dll
 0001:00009bf6       VirtualAlloc               000000014000abf6 f   kernel32:KERNEL32.dll
 0001:00009bfc       VirtualFree                000000014000abfc f   kernel32:KERNEL32.dll
 0001:00009c02       GetProcAddress             000000014000ac02 f   kernel32:KERNEL32.dll
 0001:00009c08       LoadLibraryExA             000000014000ac08 f   kernel32:KERNEL32.dll
 0001:00009c0e       RtlCaptureContext          000000014000ac0e f   kernel32:KERNEL32.dll
 0001:00009c14       RtlLookupFunctionEntry     000000014000ac14 f   kernel32:KERNEL32.dll
 0001:00009c1a       RtlVirtualUnwind           000000014000ac1a f   kernel32:KERNEL32.dll
 0001:00009c20       UnhandledExceptionFilter   000000014000ac20 f   kernel32:KERNEL32.dll
 0001:00009c26       SetUnhandledExceptionFilter 000000014000ac26 f   kernel32:KERNEL32.dll
 0001:00009c2c       GetCurrentProcess          000000014000ac2c f   kernel32:KERNEL32.dll
 0001:00009c32       TerminateProcess           000000014000ac32 f   kernel32:KERNEL32.dll
 0001:00009c38       IsProcessorFeaturePresent  000000014000ac38 f   kernel32:KERNEL32.dll
 0001:00009c3e       GetCurrentProcessId        000000014000ac3e f   kernel32:KERNEL32.dll
 0001:00009c44       GetCurrentThreadId         000000014000ac44 f   kernel32:KERNEL32.dll
 0001:00009c4a       GetSystemTimeAsFileTime    000000014000ac4a f   kernel32:KERNEL32.dll
 0001:00009c50       InitializeSListHead        000000014000ac50 f   kernel32:KERNEL32.dll
 0001:00009c56       IsDebuggerPresent          000000014000ac56 f   kernel32:KERNEL32.dll
 0001:00009c5c       GetStartupInfoW            000000014000ac5c f   kernel32:KERNEL32.dll
 0001:00009c62       GetModuleHandleW           000000014000ac62 f   kernel32:KERNEL32.dll
 0001:00009c68       __C_specific_handler       000000014000ac68 f   libvcruntime:riscchandler.obj
 0001:00009f04       __vcrt_initialize          000000014000af04 f   libvcruntime:initialization.obj
 0001:00009f38       __vcrt_thread_attach       000000014000af38 f   libvcruntime:initialization.obj
 0001:00009f54       __vcrt_thread_detach       000000014000af54 f   libvcruntime:initialization.obj
 0001:00009f68       __vcrt_uninitialize        000000014000af68 f   libvcruntime:initialization.obj
 0001:00009f88       __vcrt_uninitialize_critical 000000014000af88 f   libvcruntime:initialization.obj
 0001:00009fb0       ??$?RD@__crt_internal_free_policy@@QEBAXQEBD@Z 000000014000afb0 f i libvcruntime:std_type_info.obj
 0001:00009fbc       ??$?RX@__crt_internal_free_policy@@QEBAXQEBX@Z 000000014000afbc f i libvcruntime:std_type_info.obj
 0001:00009fc8       ??$__crt_interlocked_compare_exchange_pointer@$$CBDPEAD$$T@@YAPEBDPEDSEBDQEAD$$T@Z 000000014000afc8 f i libvcruntime:std_type_info.obj
 0001:00009fd4       ??$__crt_interlocked_read_pointer@$$CBD@@YAPEBDPEDSEBD@Z 000000014000afd4 f i libvcruntime:std_type_info.obj
 0001:00009fdc       ??0?$__crt_unique_heap_ptr@DU__crt_internal_free_policy@@@@QEAA@QEAD@Z 000000014000afdc f i libvcruntime:std_type_info.obj
 0001:00009fe4       ??0?$__crt_unique_heap_ptr@XU__crt_internal_free_policy@@@@QEAA@QEAX@Z 000000014000afe4 f i libvcruntime:std_type_info.obj
 0001:00009fec       ??1?$__crt_unique_heap_ptr@DU__crt_internal_free_policy@@@@QEAA@XZ 000000014000afec f i libvcruntime:std_type_info.obj
 0001:0000a010       ??1?$__crt_unique_heap_ptr@XU__crt_internal_free_policy@@@@QEAA@XZ 000000014000b010 f i libvcruntime:std_type_info.obj
 0001:0000a034       ??B?$__crt_unique_heap_ptr@DU__crt_internal_free_policy@@@@QEBA_NXZ 000000014000b034 f i libvcruntime:std_type_info.obj
 0001:0000a040       ??B?$__crt_unique_heap_ptr@XU__crt_internal_free_policy@@@@QEBA_NXZ 000000014000b040 f i libvcruntime:std_type_info.obj
 0001:0000a064       ?__crt_interlocked_read_64@@YA_JPED_J@Z 000000014000b064 f i libvcruntime:std_type_info.obj
 0001:0000a06c       ?detach@?$__crt_unique_heap_ptr@XU__crt_internal_free_policy@@@@QEAAPEAXXZ 000000014000b06c f i libvcruntime:std_type_info.obj
 0001:0000a078       ?get@?$__crt_unique_heap_ptr@DU__crt_internal_free_policy@@@@QEBAPEADXZ 000000014000b078 f i libvcruntime:std_type_info.obj
 0001:0000a07c       ?get@?$__crt_unique_heap_ptr@XU__crt_internal_free_policy@@@@QEBAPEAXXZ 000000014000b07c f i libvcruntime:std_type_info.obj
 0001:0000a080       ?is_valid@?$__crt_unique_heap_ptr@DU__crt_internal_free_policy@@@@QEBA_NXZ 000000014000b080 f i libvcruntime:std_type_info.obj
 0001:0000a08c       ?is_valid@?$__crt_unique_heap_ptr@XU__crt_internal_free_policy@@@@QEBA_NXZ 000000014000b08c f i libvcruntime:std_type_info.obj
 0001:0000a098       ?release@?$__crt_unique_heap_ptr@DU__crt_internal_free_policy@@@@QEAAXXZ 000000014000b098 f i libvcruntime:std_type_info.obj
 0001:0000a0bc       ?release@?$__crt_unique_heap_ptr@XU__crt_internal_free_policy@@@@QEAAXXZ 000000014000b0bc f i libvcruntime:std_type_info.obj
 0001:0000a0e0       __std_type_info_compare    000000014000b0e0 f   libvcruntime:std_type_info.obj
 0001:0000a110       __std_type_info_destroy_list 000000014000b110 f   libvcruntime:std_type_info.obj
 0001:0000a144       __std_type_info_hash       000000014000b144 f   libvcruntime:std_type_info.obj
 0001:0000a18c       __std_type_info_name       000000014000b18c f   libvcruntime:std_type_info.obj
 0001:0000a2e8       __DestructExceptionObject  000000014000b2e8 f   libvcruntime:ehhelpers.obj
 0001:0000a370       ?_CallMemberFunction0@@YAXQEAX0@Z 000000014000b370 f i libvcruntime:ehhelpers.obj
 0001:0000a3e4       ?raw_name@type_info@@QEBAPEBDXZ 000000014000b3e4 f i libvcruntime:ehhelpers.obj
 0001:0000a3ec       _IsExceptionObjectToBeDestroyed 000000014000b3ec f   libvcruntime:ehhelpers.obj
 0001:0000a428       _SetWinRTOutOfMemoryExceptionCallback 000000014000b428 f   libvcruntime:ehhelpers.obj
 0001:0000a434       __AdjustPointer            000000014000b434 f   libvcruntime:ehhelpers.obj
 0001:0000a460       __FrameUnwindFilter        000000014000b460 f   libvcruntime:ehhelpers.obj
 0001:0000a4e0       __GetPlatformExceptionInfo 000000014000b4e0 f   libvcruntime:ehhelpers.obj
 0001:0000a554       __current_exception        000000014000b554 f   libvcruntime:ehhelpers.obj
 0001:0000a56c       __current_exception_context 000000014000b56c f   libvcruntime:ehhelpers.obj
 0001:0000a584       __processing_throw         000000014000b584 f   libvcruntime:ehhelpers.obj
 0001:0000a59c       __std_terminate            000000014000b59c f   libvcruntime:ehhelpers.obj
 0001:0000a5a8       _is_exception_typeof       000000014000b5a8 f   libvcruntime:ehhelpers.obj
 0001:0000a6c0       _NLG_Notify                000000014000b6c0 f   libvcruntime:notify.obj
 0001:0000a6f0       __NLG_Dispatch2            000000014000b6f0 f   libvcruntime:notify.obj
 0001:0000a700       __NLG_Return2              000000014000b700 f   libvcruntime:notify.obj
 0001:0000a70c       __except_validate_context_record 000000014000b70c f   libvcruntime:jbcxrval.obj
 0001:0000a750       __except_validate_jump_buffer 000000014000b750 f   libvcruntime:jbcxrval.obj
 0001:0000a7a0       __except_validate_jump_buffer_common 000000014000b7a0 f i libvcruntime:jbcxrval.obj
 0001:0000a814       ??$?RU__vcrt_ptd@@@__crt_internal_free_policy@@QEBAXQEBU__vcrt_ptd@@@Z 000000014000b814 f i libvcruntime:per_thread_data.obj
 0001:0000a820       ??0?$__crt_unique_heap_ptr@U__vcrt_ptd@@U__crt_internal_free_policy@@@@QEAA@QEAU__vcrt_ptd@@@Z 000000014000b820 f i libvcruntime:per_thread_data.obj
 0001:0000a848       ??1?$__crt_unique_heap_ptr@U__vcrt_ptd@@U__crt_internal_free_policy@@@@QEAA@XZ 000000014000b848 f i libvcruntime:per_thread_data.obj
 0001:0000a878       ??B?$__crt_unique_heap_ptr@U__vcrt_ptd@@U__crt_internal_free_policy@@@@QEBA_NXZ 000000014000b878 f i libvcruntime:per_thread_data.obj
 0001:0000a884       ?detach@?$__crt_unique_heap_ptr@U__vcrt_ptd@@U__crt_internal_free_policy@@@@QEAAPEAU__vcrt_ptd@@XZ 000000014000b884 f i libvcruntime:per_thread_data.obj
 0001:0000a890       ?get@?$__crt_unique_heap_ptr@U__vcrt_ptd@@U__crt_internal_free_policy@@@@QEBAPEAU__vcrt_ptd@@XZ 000000014000b890 f i libvcruntime:per_thread_data.obj
 0001:0000a894       ?is_valid@?$__crt_unique_heap_ptr@U__vcrt_ptd@@U__crt_internal_free_policy@@@@QEBA_NXZ 000000014000b894 f i libvcruntime:per_thread_data.obj
 0001:0000a8a0       ?release@?$__crt_unique_heap_ptr@U__vcrt_ptd@@U__crt_internal_free_policy@@@@QEAAXXZ 000000014000b8a0 f i libvcruntime:per_thread_data.obj
 0001:0000a8f8       __vcrt_freefls             000000014000b8f8 f   libvcruntime:per_thread_data.obj
 0001:0000a920       __vcrt_freeptd_for_this_thread 000000014000b920 f   libvcruntime:per_thread_data.obj
 0001:0000a978       __vcrt_getptd              000000014000b978 f   libvcruntime:per_thread_data.obj
 0001:0000a998       __vcrt_getptd_noexit       000000014000b998 f   libvcruntime:per_thread_data.obj
 0001:0000aa88       __vcrt_getptd_noinit       000000014000ba88 f   libvcruntime:per_thread_data.obj
 0001:0000aae8       __vcrt_initialize_ptd      000000014000bae8 f   libvcruntime:per_thread_data.obj
 0001:0000ab40       __vcrt_uninitialize_ptd    000000014000bb40 f   libvcruntime:per_thread_data.obj
 0001:0000ab6c       __vcrt_initialize_locks    000000014000bb6c f   libvcruntime:locks.obj
 0001:0000abc4       __vcrt_lock                000000014000bbc4 f   libvcruntime:locks.obj
 0001:0000abe4       __vcrt_uninitialize_locks  000000014000bbe4 f   libvcruntime:locks.obj
 0001:0000ac28       __vcrt_unlock              000000014000bc28 f   libvcruntime:locks.obj
 0001:0000ac48       ??$?0$00@DName@@QEAA@PEBDU?$StringLifeSelector@$00@@@Z 000000014000bc48 f i libvcruntime:undname.obj
 0001:0000ac98       ??$?0$00@pcharNode@@QEAA@PEBDHU?$StringLifeSelector@$00@@@Z 000000014000bc98 f i libvcruntime:undname.obj
 0001:0000acb4       ??$?0$01@DName@@QEAA@PEBDU?$StringLifeSelector@$01@@@Z 000000014000bcb4 f i libvcruntime:undname.obj
 0001:0000ad04       ??$?0$01@pcharNode@@QEAA@PEBDHU?$StringLifeSelector@$01@@@Z 000000014000bd04 f i libvcruntime:undname.obj
 0001:0000ad94       ??$?0$0A@@DName@@QEAA@PEBDU?$StringLifeSelector@$0A@@@@Z 000000014000bd94 f i libvcruntime:undname.obj
 0001:0000ade4       ??$?0$0A@@pcharNode@@QEAA@PEBDHU?$StringLifeSelector@$0A@@@@Z 000000014000bde4 f i libvcruntime:undname.obj
 0001:0000ae74       ??$?0_K$0A@@?$optional@_K@std@@QEAA@$$QEA_K@Z 000000014000be74 f i libvcruntime:undname.obj
 0001:0000ae88       ??$?0_K@?$_Optional_construct_base@_K@std@@QEAA@Uin_place_t@1@$$QEA_K@Z 000000014000be88 f i libvcruntime:undname.obj
 0001:0000ae9c       ??$?0_K@?$_Optional_destruct_base@_K$00@std@@QEAA@Uin_place_t@1@$$QEA_K@Z 000000014000be9c f i libvcruntime:undname.obj
 0001:0000aeb0       ??$append@VDNameNode@@@DName@@AEAAXPEBVDNameNode@@@Z 000000014000beb0 f i libvcruntime:undname.obj
 0001:0000af2c       ??$append@VDNameStatusNode@@@DName@@AEAAXPEBVDNameStatusNode@@@Z 000000014000bf2c f i libvcruntime:undname.obj
 0001:0000afa8       ??$append@VcharNode@@@DName@@AEAAXPEBVcharNode@@@Z 000000014000bfa8 f i libvcruntime:undname.obj
 0001:0000b024       ??$append@VpDNameNode@@@DName@@AEAAXPEBVpDNameNode@@@Z 000000014000c024 f i libvcruntime:undname.obj
 0001:0000b0a0       ??$append@VpcharNode@@@DName@@AEAAXPEBVpcharNode@@@Z 000000014000c0a0 f i libvcruntime:undname.obj
 0001:0000b11c       ??$doPchar@$00@DName@@AEAAXPEBDH@Z 000000014000c11c f i libvcruntime:undname.obj
 0001:0000b1d8       ??$doPchar@$01@DName@@AEAAXPEBDH@Z 000000014000c1d8 f i libvcruntime:undname.obj
 0001:0000b294       ??$doPchar@$0A@@DName@@AEAAXPEBDH@Z 000000014000c294 f i libvcruntime:undname.obj
 0001:0000b350       ??$forward@_K@std@@YA$$QEA_KAEA_K@Z 000000014000c350 f i libvcruntime:undname.obj
 0001:0000b4b4       ??0?$_Optional_construct_base@_K@std@@QEAA@XZ 000000014000c4b4 f i libvcruntime:undname.obj
 0001:0000b4c0       ??0?$_Optional_destruct_base@_K$00@std@@QEAA@XZ 000000014000c4c0 f i libvcruntime:undname.obj
 0001:0000b4cc       ??0?$optional@_K@std@@QEAA@XZ 000000014000c4cc f i libvcruntime:undname.obj
 0001:0000b4d8       ??0Block@_HeapManager@@QEAA@XZ 000000014000c4d8 f i libvcruntime:undname.obj
 0001:0000b4e4       ??0DName@@QEAA@AEAPEBDD@Z  000000014000c4e4 f   libvcruntime:undname.obj
 0001:0000b5c4       ??0DName@@QEAA@AEBUStringLiteral@@@Z 000000014000c5c4 f   libvcruntime:undname.obj
 0001:0000b5fc       ??0DName@@QEAA@AEBV0@@Z    000000014000c5fc f i libvcruntime:undname.obj
 0001:0000b610       ??0DName@@QEAA@D@Z         000000014000c610 f   libvcruntime:undname.obj
 0001:0000b638       ??0DName@@QEAA@PEAV0@@Z    000000014000c638 f   libvcruntime:undname.obj
 0001:0000b6dc       ??0DName@@QEAA@W4DNameStatus@@@Z 000000014000c6dc f   libvcruntime:undname.obj
 0001:0000b718       ??0DName@@QEAA@XZ          000000014000c718 f i libvcruntime:undname.obj
 0001:0000b728       ??0DName@@QEAA@_J@Z        000000014000c728 f   libvcruntime:undname.obj
 0001:0000b7f4       ??0DName@@QEAA@_K@Z        000000014000c7f4 f   libvcruntime:undname.obj
 0001:0000b8a0       ??0DNameNode@@IEAA@XZ      000000014000c8a0 f i libvcruntime:undname.obj
 0001:0000b8b4       ??0Replicator@@QEAA@XZ     000000014000c8b4 f i libvcruntime:undname.obj
 0001:0000b8f0       ??0UnDecorator@@QEAA@PEBDP6APEADJ@ZK@Z 000000014000c8f0 f i libvcruntime:undname.obj
 0001:0000b9c4       ??0_Nontrivial_dummy_type@std@@QEAA@XZ 000000014000c9c4 f i libvcruntime:undname.obj
 0001:0000b9c8       ??0charNode@@QEAA@D@Z      000000014000c9c8 f i libvcruntime:undname.obj
 0001:0000b9e0       ??0pDNameNode@@QEAA@PEAVDName@@@Z 000000014000c9e0 f   libvcruntime:undname.obj
 0001:0000ba10       ??0pairNode@@QEAA@PEBVDNameNode@@0@Z 000000014000ca10 f i libvcruntime:undname.obj
 0001:0000ba38       ??2@YAPEAX_KAEAV_HeapManager@@H@Z 000000014000ca38 f   libvcruntime:undname.obj
 0001:0000ba6c       ??4DName@@QEAAAEAV0@AEBUStringLiteral@@@Z 000000014000ca6c f   libvcruntime:undname.obj
 0001:0000ba9c       ??4DName@@QEAAAEAV0@AEBV0@@Z 000000014000ca9c f   libvcruntime:undname.obj
 0001:0000bab0       ??4DName@@QEAAAEAV0@D@Z    000000014000cab0 f i libvcruntime:undname.obj
 0001:0000bad8       ??4DName@@QEAAAEAV0@PEAV0@@Z 000000014000cad8 f   libvcruntime:undname.obj
 0001:0000bb6c       ??4DName@@QEAAAEAV0@W4DNameStatus@@@Z 000000014000cb6c f   libvcruntime:undname.obj
 0001:0000bb94       ??AReplicator@@QEBA?AVDName@@H@Z 000000014000cb94 f   libvcruntime:undname.obj
 0001:0000bbe4       ??B?$optional@_K@std@@QEBA_NXZ 000000014000cbe4 f i libvcruntime:undname.obj
 0001:0000bbe8       ??D?$_Optional_construct_base@_K@std@@QEGAAAEA_KXZ 000000014000cbe8 f i libvcruntime:undname.obj
 0001:0000bbec       ??H@YA?AVDName@@AEBUStringLiteral@@AEBV0@@Z 000000014000cbec f i libvcruntime:undname.obj
 0001:0000bc30       ??H@YA?AVDName@@DAEBV0@@Z  000000014000cc30 f i libvcruntime:undname.obj
 0001:0000bc84       ??H@YA?AVDName@@W4DNameStatus@@AEBV0@@Z 000000014000cc84 f i libvcruntime:undname.obj
 0001:0000bcc8       ??HDName@@QEBA?AV0@AEBUStringLiteral@@@Z 000000014000ccc8 f   libvcruntime:undname.obj
 0001:0000bcfc       ??HDName@@QEBA?AV0@AEBV0@@Z 000000014000ccfc f   libvcruntime:undname.obj
 0001:0000bd30       ??HDName@@QEBA?AV0@D@Z     000000014000cd30 f   libvcruntime:undname.obj
 0001:0000bd64       ??HDName@@QEBA?AV0@PEAV0@@Z 000000014000cd64 f   libvcruntime:undname.obj
 0001:0000bd98       ??HDName@@QEBA?AV0@W4DNameStatus@@@Z 000000014000cd98 f   libvcruntime:undname.obj
 0001:0000bdcc       ??HStringLiteral@@QEBA?AU0@H@Z 000000014000cdcc f i libvcruntime:undname.obj
 0001:0000bde8       ??YDName@@QEAAAEAV0@AEBUStringLiteral@@@Z 000000014000cde8 f   libvcruntime:undname.obj
 0001:0000be88       ??YDName@@QEAAAEAV0@AEBV0@@Z 000000014000ce88 f   libvcruntime:undname.obj
 0001:0000bf68       ??YDName@@QEAAAEAV0@D@Z    000000014000cf68 f   libvcruntime:undname.obj
 0001:0000bff0       ??YDName@@QEAAAEAV0@PEAV0@@Z 000000014000cff0 f   libvcruntime:undname.obj
 0001:0000c0a8       ??YDName@@QEAAAEAV0@W4DNameStatus@@@Z 000000014000d0a8 f   libvcruntime:undname.obj
 0001:0000c130       ??YReplicator@@QEAAAEAV0@AEBVDName@@@Z 000000014000d130 f   libvcruntime:undname.obj
 0001:0000c1a0       ??_5DName@@QEAAAEAV0@AEBV0@@Z 000000014000d1a0 f   libvcruntime:undname.obj
 0001:0000c1c0       ??__K_l@@YA?AUStringLiteral@@PEBD_K@Z 000000014000d1c0 f i libvcruntime:undname.obj
 0001:0000c1d0       ?Constructor@_HeapManager@@QEAAXP6APEAX_K@ZP6AXPEAX@Z@Z 000000014000d1d0 f i libvcruntime:undname.obj
 0001:0000c1ec       ?Destructor@_HeapManager@@QEAAXXZ 000000014000d1ec f i libvcruntime:undname.obj
 0001:0000c248       ?UScore@UnDecorator@@SA?AUStringLiteral@@W4Tokens@@@Z 000000014000d248 f   libvcruntime:undname.obj
 0001:0000c2a8       ?composeDeclaration@UnDecorator@@CA?AVDName@@AEBV2@@Z 000000014000d2a8 f i libvcruntime:undname.obj
 0001:0000d65c       ?doAccessSpecifiers@UnDecorator@@SAHXZ 000000014000e65c f i libvcruntime:undname.obj
 0001:0000d670       ?doAllocationLanguage@UnDecorator@@SAHXZ 000000014000e670 f i libvcruntime:undname.obj
 0001:0000d684       ?doAllocationModel@UnDecorator@@SAHXZ 000000014000e684 f i libvcruntime:undname.obj
 0001:0000d698       ?doEcsu@UnDecorator@@SAHXZ 000000014000e698 f i libvcruntime:undname.obj
 0001:0000d6ac       ?doEllipsis@UnDecorator@@SAHXZ 000000014000e6ac f i libvcruntime:undname.obj
 0001:0000d6c0       ?doFunctionReturns@UnDecorator@@SAHXZ 000000014000e6c0 f i libvcruntime:undname.obj
 0001:0000d6d4       ?doMSKeywords@UnDecorator@@SAHXZ 000000014000e6d4 f i libvcruntime:undname.obj
 0001:0000d6e8       ?doMemberTypes@UnDecorator@@SAHXZ 000000014000e6e8 f i libvcruntime:undname.obj
 0001:0000d6fc       ?doNameOnly@UnDecorator@@SAHXZ 000000014000e6fc f i libvcruntime:undname.obj
 0001:0000d70c       ?doNoIdentCharCheck@UnDecorator@@SAHXZ 000000014000e70c f i libvcruntime:undname.obj
 0001:0000d71c       ?doPchar@DName@@AEAAXD@Z   000000014000e71c f   libvcruntime:undname.obj
 0001:0000d780       ?doPtr64@UnDecorator@@SAHXZ 000000014000e780 f i libvcruntime:undname.obj
 0001:0000d794       ?doRestrictionSpec@UnDecorator@@SAHXZ 000000014000e794 f i libvcruntime:undname.obj
 0001:0000d7a8       ?doThisTypes@UnDecorator@@SAHXZ 000000014000e7a8 f i libvcruntime:undname.obj
 0001:0000d7c0       ?doThrowTypes@UnDecorator@@SAHXZ 000000014000e7c0 f i libvcruntime:undname.obj
 0001:0000d7d4       ?doTypeOnly@UnDecorator@@SAHXZ 000000014000e7d4 f i libvcruntime:undname.obj
 0001:0000d7e4       ?doUnderScore@UnDecorator@@SAHXZ 000000014000e7e4 f i libvcruntime:undname.obj
 0001:0000d7f4       ?getAddressOf@UnDecorator@@CA?AVDName@@XZ 000000014000e7f4 f   libvcruntime:undname.obj
 0001:0000d8a8       ?getArgumentList@UnDecorator@@CA?AVDName@@XZ 000000014000e8a8 f   libvcruntime:undname.obj
 0001:0000daa0       ?getArgumentTypes@UnDecorator@@CA?AVDName@@XZ 000000014000eaa0 f   libvcruntime:undname.obj
 0001:0000dc40       ?getArrayAccess@UnDecorator@@CA?AVDName@@XZ 000000014000ec40 f   libvcruntime:undname.obj
 0001:0000dd00       ?getArrayObject@UnDecorator@@CA?AVDName@@XZ 000000014000ed00 f   libvcruntime:undname.obj
 0001:0000de04       ?getArrayType@UnDecorator@@CA?AVDName@@AEBV2@@Z 000000014000ee04 f i libvcruntime:undname.obj
 0001:0000e0f8       ?getBasedType@UnDecorator@@CA?AVDName@@XZ 000000014000f0f8 f   libvcruntime:undname.obj
 0001:0000e22c       ?getBasicDataType@UnDecorator@@CA?AVDName@@AEBV2@@Z 000000014000f22c f   libvcruntime:undname.obj
 0001:0000e9b0       ?getCHPEName@UnDecorator@@QEAAPEADPEADH@Z 000000014000f9b0 f i libvcruntime:undname.obj
 0001:0000eb14       ?getCallIndex@UnDecorator@@CA?AVDName@@XZ 000000014000fb14 f i libvcruntime:undname.obj
 0001:0000eb34       ?getCallingConvention@UnDecorator@@CA?AVDName@@XZ 000000014000fb34 f   libvcruntime:undname.obj
 0001:0000ec9c       ?getDataIndirectType@UnDecorator@@CA?AVDName@@AEBV2@W4IndirectionKind@@0H@Z 000000014000fc9c f   libvcruntime:undname.obj
 0001:0000f9fc       ?getDataIndirectType@UnDecorator@@CA?AVDName@@XZ 00000001400109fc f i libvcruntime:undname.obj
 0001:0000fa44       ?getDataType@UnDecorator@@CA?AVDName@@PEAV2@@Z 0000000140010a44 f   libvcruntime:undname.obj
 0001:0000fb9c       ?getDecoratedName@UnDecorator@@CA?AVDName@@XZ 0000000140010b9c f   libvcruntime:undname.obj
 0001:0000ff3c       ?getDimension@UnDecorator@@CA?AVDName@@_N@Z 0000000140010f3c f   libvcruntime:undname.obj
 0001:000100d8       ?getDispatchTarget@UnDecorator@@CA?AVDName@@XZ 00000001400110d8 f   libvcruntime:undname.obj
 0001:0001014c       ?getDisplacement@UnDecorator@@CA?AVDName@@XZ 000000014001114c f i libvcruntime:undname.obj
 0001:0001016c       ?getECSUDataType@UnDecorator@@CA?AVDName@@XZ 000000014001116c f   libvcruntime:undname.obj
 0001:000103e4       ?getECSUName@UnDecorator@@CA?AVDName@@XZ 00000001400113e4 f i libvcruntime:undname.obj
 0001:00010400       ?getEnumType@UnDecorator@@CA?AVDName@@XZ 0000000140011400 f i libvcruntime:undname.obj
 0001:00010570       ?getExtendedDataIndirectType@UnDecorator@@CA?AVDName@@AEAW4IndirectionKind@@AEA_NH@Z 0000000140011570 f   libvcruntime:undname.obj
 0001:0001087c       ?getExternalDataType@UnDecorator@@CA?AVDName@@AEBV2@@Z 000000014001187c f i libvcruntime:undname.obj
 0001:0001096c       ?getFloatingPoint@UnDecorator@@CA?AVDName@@H@Z 000000014001196c f   libvcruntime:undname.obj
 0001:00010b2c       ?getFunctionIndirectType@UnDecorator@@CA?AVDName@@AEBV2@@Z 0000000140011b2c f   libvcruntime:undname.obj
 0001:000111b0       ?getGuardNumber@UnDecorator@@CA?AVDName@@XZ 00000001400121b0 f i libvcruntime:undname.obj
 0001:000111d0       ?getLastChar@DName@@QEBADXZ 00000001400121d0 f i libvcruntime:undname.obj
 0001:000111f0       ?getLastChar@DNameStatusNode@@UEBADXZ 00000001400121f0 f i libvcruntime:undname.obj
 0001:00011200       ?getLastChar@charNode@@UEBADXZ 0000000140012200 f i libvcruntime:undname.obj
 0001:00011204       ?getLastChar@pDNameNode@@UEBADXZ 0000000140012204 f i libvcruntime:undname.obj
 0001:00011238       ?getLastChar@pairNode@@UEBADXZ 0000000140012238 f i libvcruntime:undname.obj
 0001:0001127c       ?getLastChar@pcharNode@@UEBADXZ 000000014001227c f i libvcruntime:undname.obj
 0001:00011298       ?getLexicalFrame@UnDecorator@@CA?AVDName@@XZ 0000000140012298 f i libvcruntime:undname.obj
 0001:00011314       ?getMemberAccess@UnDecorator@@CA?AVDName@@XZ 0000000140012314 f   libvcruntime:undname.obj
 0001:000113cc       ?getMemoryWithBuffer@_HeapManager@@QEAAPEAX_K@Z 00000001400123cc f   libvcruntime:undname.obj
 0001:00011480       ?getMemoryWithoutBuffer@_HeapManager@@QEAAPEAX_K@Z 0000000140012480 f   libvcruntime:undname.obj
 0001:00011498       ?getNoexcept@UnDecorator@@CA?AVDName@@XZ 0000000140012498 f   libvcruntime:undname.obj
 0001:00011514       ?getNumberOfDimensions@UnDecorator@@CAHXZ 0000000140012514 f   libvcruntime:undname.obj
 0001:00011584       ?getOperatorName@UnDecorator@@CA?AVDName@@_NPEA_N@Z 0000000140012584 f i libvcruntime:undname.obj
 0001:00012188       ?getPointerToMember@UnDecorator@@CA?AVDName@@XZ 0000000140013188 f   libvcruntime:undname.obj
 0001:000122bc       ?getPointerType@UnDecorator@@CA?AVDName@@AEBV2@0@Z 00000001400132bc f i libvcruntime:undname.obj
 0001:000122e0       ?getPointerTypeArray@UnDecorator@@CA?AVDName@@AEBV2@0@Z 00000001400132e0 f i libvcruntime:undname.obj
 0001:00012300       ?getPrimaryDataType@UnDecorator@@CA?AVDName@@AEBV2@@Z 0000000140013300 f   libvcruntime:undname.obj
 0001:00012668       ?getPtrRefDataType@UnDecorator@@CA?AVDName@@AEBV2@H@Z 0000000140013668 f   libvcruntime:undname.obj
 0001:000128a8       ?getPtrRefType@UnDecorator@@CA?AVDName@@AEBV2@0W4IndirectionKind@@@Z 00000001400138a8 f   libvcruntime:undname.obj
 0001:00012b08       ?getReferenceType@UnDecorator@@CA?AVDName@@AEBV2@0W4IndirectionKind@@@Z 0000000140013b08 f i libvcruntime:undname.obj
 0001:00012b24       ?getRestrictionSpec@UnDecorator@@CA?AVDName@@XZ 0000000140013b24 f   libvcruntime:undname.obj
 0001:00012d74       ?getReturnType@UnDecorator@@CA?AVDName@@PEAV2@@Z 0000000140013d74 f   libvcruntime:undname.obj
 0001:00012db8       ?getScope@UnDecorator@@CA?AVDName@@XZ 0000000140013db8 f   libvcruntime:undname.obj
 0001:0001339c       ?getScopedName@UnDecorator@@CA?AVDName@@XZ 000000014001439c f   libvcruntime:undname.obj
 0001:0001352c       ?getSignedDimension@UnDecorator@@CA?AVDName@@XZ 000000014001452c f   libvcruntime:undname.obj
 0001:000135d4       ?getStorageConvention@UnDecorator@@CA?AVDName@@XZ 00000001400145d4 f i libvcruntime:undname.obj
 0001:0001361c       ?getString@DName@@QEBAPEADPEAD0@Z 000000014001461c f i libvcruntime:undname.obj
 0001:0001363c       ?getString@DName@@QEBAPEADPEADH@Z 000000014001463c f i libvcruntime:undname.obj
 0001:000136f4       ?getString@DNameStatusNode@@UEBAPEADPEAD0@Z 00000001400146f4 f i libvcruntime:undname.obj
 0001:0001374c       ?getString@charNode@@UEBAPEADPEAD0@Z 000000014001474c f i libvcruntime:undname.obj
 0001:00013764       ?getString@pDNameNode@@UEBAPEADPEAD0@Z 0000000140014764 f i libvcruntime:undname.obj
 0001:0001379c       ?getString@pairNode@@UEBAPEADPEAD0@Z 000000014001479c f i libvcruntime:undname.obj
 0001:000137fc       ?getString@pcharNode@@UEBAPEADPEAD0@Z 00000001400147fc f i libvcruntime:undname.obj
 0001:00013840       ?getStringEncoding@UnDecorator@@CA?AVDName@@W4PrefixKind@@H@Z 0000000140014840 f   libvcruntime:undname.obj
 0001:00013990       ?getStringHelper@@YAPEADPEADPEBD1H@Z 0000000140014990 f i libvcruntime:undname.obj
 0001:000139c8       ?getStringObject@UnDecorator@@CA?AVDName@@XZ 00000001400149c8 f   libvcruntime:undname.obj
 0001:00013a7c       ?getSymbolName@UnDecorator@@CA?AVDName@@XZ 0000000140014a7c f i libvcruntime:undname.obj
 0001:00013adc       ?getTemplateArgumentList@UnDecorator@@CA?AVDName@@XZ 0000000140014adc f   libvcruntime:undname.obj
 0001:00013d80       ?getTemplateName@UnDecorator@@CA?AVDName@@_N@Z 0000000140014d80 f   libvcruntime:undname.obj
 0001:000140d8       ?getTemplateNonTypeArgument@UnDecorator@@CA?AVDName@@XZ 00000001400150d8 f   libvcruntime:undname.obj
 0001:0001477c       ?getTemplateTypeArgument@UnDecorator@@CA?AVDName@@XZ 000000014001577c f   libvcruntime:undname.obj
 0001:00014940       ?getThisType@UnDecorator@@CA?AVDName@@XZ 0000000140015940 f i libvcruntime:undname.obj
 0001:00014990       ?getThrowTypes@UnDecorator@@CA?AVDName@@XZ 0000000140015990 f   libvcruntime:undname.obj
 0001:000149bc       ?getTypeEncoding@UnDecorator@@CAHXZ 00000001400159bc f i libvcruntime:undname.obj
 0001:00014e60       ?getUndecoratedName@UnDecorator@@QEAAPEADPEADH@Z 0000000140015e60 f i libvcruntime:undname.obj
 0001:00015018       ?getUnionObject@UnDecorator@@CA?AVDName@@XZ 0000000140016018 f   libvcruntime:undname.obj
 0001:00015124       ?getVCallThunkType@UnDecorator@@CA?AVDName@@XZ 0000000140016124 f i libvcruntime:undname.obj
 0001:000151b8       ?getValue@UnDecorator@@CA?AV?$optional@_K@std@@XZ 00000001400161b8 f   libvcruntime:undname.obj
 0001:0001520c       ?getValueObject@UnDecorator@@CA?AVDName@@XZ 000000014001620c f   libvcruntime:undname.obj
 0001:000153f0       ?getVbTableType@UnDecorator@@CA?AVDName@@AEBV2@@Z 00000001400163f0 f i libvcruntime:undname.obj
 0001:0001540c       ?getVdispMapType@UnDecorator@@CA?AVDName@@AEBV2@@Z 000000014001640c f i libvcruntime:undname.obj
 0001:000154a8       ?getVfTableType@UnDecorator@@CA?AVDName@@AEBV2@@Z 00000001400164a8 f i libvcruntime:undname.obj
 0001:00015734       ?getZName@UnDecorator@@CA?AVDName@@_N0@Z 0000000140016734 f   libvcruntime:undname.obj
 0001:00015ac0       ?get_current_character_and_increment_buffer@UnDecorator@@CADXZ 0000000140016ac0 f i libvcruntime:undname.obj
 0001:00015ae0       ?haveTemplateParameters@UnDecorator@@SAHXZ 0000000140016ae0 f i libvcruntime:undname.obj
 0001:00015af0       ?increment_buffer@UnDecorator@@CA_N_K@Z 0000000140016af0 f i libvcruntime:undname.obj
 0001:00015b28       ?increment_buffer_no_check@UnDecorator@@CAXXZ 0000000140016b28 f i libvcruntime:undname.obj
 0001:00015b34       ?increment_buffer_no_check@UnDecorator@@CAX_K@Z 0000000140016b34 f i libvcruntime:undname.obj
 0001:00015b40       ?isArray@DName@@QEBAHXZ    0000000140016b40 f i libvcruntime:undname.obj
 0001:00015b4c       ?isComArray@DName@@QEBAHXZ 0000000140016b4c f i libvcruntime:undname.obj
 0001:00015b58       ?isEmpty@DName@@QEBAHXZ    0000000140016b58 f i libvcruntime:undname.obj
 0001:00015b64       ?isFull@Replicator@@QEBAHXZ 0000000140016b64 f i libvcruntime:undname.obj
 0001:00015b70       ?isNoTE@DName@@QEBAHXZ     0000000140016b70 f i libvcruntime:undname.obj
 0001:00015b7c       ?isPinPtr@DName@@QEBAHXZ   0000000140016b7c f i libvcruntime:undname.obj
 0001:00015b88       ?isPtrRef@DName@@QEBAHXZ   0000000140016b88 f i libvcruntime:undname.obj
 0001:00015b94       ?isUDC@DName@@QEBAHXZ      0000000140016b94 f i libvcruntime:undname.obj
 0001:00015bb0       ?isUDTThunk@DName@@QEBAHXZ 0000000140016bb0 f i libvcruntime:undname.obj
 0001:00015bcc       ?isVCallThunk@DName@@QEBAHXZ 0000000140016bcc f i libvcruntime:undname.obj
 0001:00015bd8       ?isValid@DName@@QEBAHXZ    0000000140016bd8 f i libvcruntime:undname.obj
 0001:00015be4       ?length@DName@@QEBAHXZ     0000000140016be4 f i libvcruntime:undname.obj
 0001:00015c04       ?length@DNameStatusNode@@UEBAHXZ 0000000140016c04 f i libvcruntime:undname.obj
 0001:00015c08       ?length@charNode@@UEBAHXZ  0000000140016c08 f i libvcruntime:undname.obj
 0001:00015c10       ?length@pDNameNode@@UEBAHXZ 0000000140016c10 f i libvcruntime:undname.obj
 0001:00015c44       ?length@pairNode@@UEBAHXZ  0000000140016c44 f i libvcruntime:undname.obj
 0001:00015c9c       ?length@pcharNode@@UEBAHXZ 0000000140016c9c f i libvcruntime:undname.obj
 0001:00015ca0       ?make@DNameStatusNode@@SAPEBV1@W4DNameStatus@@@Z 0000000140016ca0 f i libvcruntime:undname.obj
 0001:00015cc8       ?parseDecoratedName@UnDecorator@@CA?AVDName@@XZ 0000000140016cc8 f   libvcruntime:undname.obj
 0001:00015e24       ?raw_length@DNameStatusNode@@UEBAHXZ 0000000140016e24 f i libvcruntime:undname.obj
 0001:00015e28       ?raw_length@charNode@@UEBAHXZ 0000000140016e28 f i libvcruntime:undname.obj
 0001:00015e30       ?raw_length@pDNameNode@@UEBAHXZ 0000000140016e30 f i libvcruntime:undname.obj
 0001:00015e34       ?raw_length@pairNode@@UEBAHXZ 0000000140016e34 f i libvcruntime:undname.obj
 0001:00015e38       ?raw_length@pcharNode@@UEBAHXZ 0000000140016e38 f i libvcruntime:undname.obj
 0001:00015e3c       ?setIsArray@DName@@QEAAXXZ 0000000140016e3c f i libvcruntime:undname.obj
 0001:00015e44       ?setIsComArray@DName@@QEAAXXZ 0000000140016e44 f i libvcruntime:undname.obj
 0001:00015e4c       ?setIsNoTE@DName@@QEAAXXZ  0000000140016e4c f i libvcruntime:undname.obj
 0001:00015e54       ?setIsPinPtr@DName@@QEAAXXZ 0000000140016e54 f i libvcruntime:undname.obj
 0001:00015e5c       ?setIsUDC@DName@@QEAAXXZ   0000000140016e5c f i libvcruntime:undname.obj
 0001:00015e6c       ?setIsVCallThunk@DName@@QEAAXXZ 0000000140016e6c f i libvcruntime:undname.obj
 0001:00015e74       ?setPtrRef@DName@@QEAAAEAV1@XZ 0000000140016e74 f i libvcruntime:undname.obj
 0001:00015e80       ?status@DName@@QEBA?AW4DNameStatus@@XZ 0000000140016e80 f i libvcruntime:undname.obj
 0001:00015ef8       __unDName                  0000000140016ef8 f   libvcruntime:undname.obj
 0001:00015f28       __unDNameEx                0000000140016f28 f   libvcruntime:undname.obj
 0001:00016050       _vsprintf_s_l              0000000140017050 f i libvcruntime:undname.obj
 0001:000160cc       snprintf                   00000001400170cc f i libvcruntime:undname.obj
 0001:00016138       sprintf_s                  0000000140017138 f i libvcruntime:undname.obj
 0001:000161a0       unDNameGenerateCHPE        00000001400171a0 f   libvcruntime:undname.obj
 0001:0001633c       vsnprintf                  000000014001733c f i libvcruntime:undname.obj
 0001:000163b8       ??$__crt_interlocked_exchange_pointer@UHINSTANCE__@@PEAU1@@@YAPEAUHINSTANCE__@@PEDSEAU0@QEAU0@@Z 00000001400173b8 f i libvcruntime:winapi_downlevel.obj
 0001:000163c0       ??$__crt_interlocked_exchange_pointer@UHINSTANCE__@@PEAX@@YAPEAUHINSTANCE__@@PEDSEAU0@QEAX@Z 00000001400173c0 f i libvcruntime:winapi_downlevel.obj
 0001:000163c8       ??$__crt_interlocked_exchange_pointer@XPEAX@@YAPEAXPEDSEAXQEAX@Z 00000001400173c8 f i libvcruntime:winapi_downlevel.obj
 0001:000163d0       ??$__crt_interlocked_read_pointer@UHINSTANCE__@@@@YAPEAUHINSTANCE__@@PEDSEAU0@@Z 00000001400173d0 f i libvcruntime:winapi_downlevel.obj
 0001:000163d8       ??$__crt_interlocked_read_pointer@X@@YAPEAXPEDSEAX@Z 00000001400173d8 f i libvcruntime:winapi_downlevel.obj
 0001:00016a60       __vcrt_FlsAlloc            0000000140017a60 f   libvcruntime:winapi_downlevel.obj
 0001:00016ab8       __vcrt_FlsFree             0000000140017ab8 f   libvcruntime:winapi_downlevel.obj
 0001:00016b10       __vcrt_FlsGetValue         0000000140017b10 f   libvcruntime:winapi_downlevel.obj
 0001:00016b68       __vcrt_FlsSetValue         0000000140017b68 f   libvcruntime:winapi_downlevel.obj
 0001:00016bd0       __vcrt_InitializeCriticalSectionEx 0000000140017bd0 f   libvcruntime:winapi_downlevel.obj
 0001:00016c4c       ??$__crt_interlocked_exchange_pointer@$$A6AXXZP6AXXZ@@YAP6AXXZPEDS6AXXZQ6AXXZ@Z 0000000140017c4c f i libvcruntime:purevirt.obj
 0001:00016c54       ??$__crt_interlocked_read_pointer@$$A6AXXZ@@YAP6AXXZPEDS6AXXZ@Z 0000000140017c54 f i libvcruntime:purevirt.obj
 0001:00016c5c       _get_purecall_handler      0000000140017c5c f   libvcruntime:purevirt.obj
 0001:00016c68       _purecall                  0000000140017c68 f   libvcruntime:purevirt.obj
 0001:00016c88       _set_purecall_handler      0000000140017c88 f   libvcruntime:purevirt.obj
 0001:00016c98       ??$?0AEAViterator@TryBlockMap4@FH4@@AEAV012@$0A@@?$pair@Viterator@TryBlockMap4@FH4@@V123@@std@@QEAA@AEAViterator@TryBlockMap4@FH4@@0@Z 0000000140017c98 f i libvcruntime:risctrnsctrl.obj
 0001:00016cb4       ??$?0AEAViterator@TryBlockMap@__FrameHandler3@@AEAV012@$0A@@?$pair@Viterator@TryBlockMap@__FrameHandler3@@V123@@std@@QEAA@AEAViterator@TryBlockMap@__FrameHandler3@@0@Z 0000000140017cb4 f i libvcruntime:risctrnsctrl.obj
 0001:00016e9c       ??$_CallSETranslator@V__FrameHandler3@@@@YAHPEAUEHExceptionRecord@@PEA_KPEAU_CONTEXT@@PEAU_xDISPATCHER_CONTEXT@@PEBU_s_FuncInfo@@K1H@Z 0000000140017e9c f i libvcruntime:risctrnsctrl.obj
 0001:00016f04       ??$_CallSETranslator@V__FrameHandler4@@@@YAHPEAUEHExceptionRecord@@PEA_KPEAU_CONTEXT@@PEAU_xDISPATCHER_CONTEXT@@PEAUFuncInfo4@FH4@@K1H@Z 0000000140017f04 f i libvcruntime:risctrnsctrl.obj
 0001:00016f6c       ??$forward@AEAViterator@TryBlockMap4@FH4@@@std@@YAAEAViterator@TryBlockMap4@FH4@@AEAV123@@Z 0000000140017f6c f i libvcruntime:risctrnsctrl.obj
 0001:00016f70       ??$forward@AEAViterator@TryBlockMap@__FrameHandler3@@@std@@YAAEAViterator@TryBlockMap@__FrameHandler3@@AEAV123@@Z 0000000140017f70 f i libvcruntime:risctrnsctrl.obj
 0001:00016f74       ??0FuncInfo4@FH4@@QEAA@XZ  0000000140017f74 f i libvcruntime:risctrnsctrl.obj
 0001:00016f8c       ??0FuncInfoHeader@FH4@@QEAA@XZ 0000000140017f8c f i libvcruntime:risctrnsctrl.obj
 0001:00016f94       ??0iterator@TryBlockMap4@FH4@@QEAA@AEAV12@I@Z 0000000140017f94 f i libvcruntime:risctrnsctrl.obj
 0001:00016fa4       ??0iterator@TryBlockMap@__FrameHandler3@@QEAA@AEAV12@I@Z 0000000140017fa4 f i libvcruntime:risctrnsctrl.obj
 0001:00016fb4       ??4iterator@TryBlockMap4@FH4@@QEAAAEAV012@AEBV012@@Z 0000000140017fb4 f i libvcruntime:risctrnsctrl.obj
 0001:00016fc0       ??9iterator@TryBlockMap4@FH4@@QEBA_NAEBV012@@Z 0000000140017fc0 f i libvcruntime:risctrnsctrl.obj
 0001:00016fcc       ??Diterator@TryBlockMap4@FH4@@QEAA?AUTryBlockMapEntry4@2@XZ 0000000140017fcc f i libvcruntime:risctrnsctrl.obj
 0001:00016fe0       ??Eiterator@TryBlockMap4@FH4@@QEAAAEAV012@XZ 0000000140017fe0 f i libvcruntime:risctrnsctrl.obj
 0001:000170a4       ?CatchTryBlock@__FrameHandler3@@SAPEBU_s_TryBlockMapEntry@@PEBU_s_FuncInfo@@H@Z 00000001400180a4 f   libvcruntime:risctrnsctrl.obj
 0001:00017120       ?DecompFuncInfo@FH4@@YA_JPEAEAEAUFuncInfo4@1@_KH@Z 0000000140018120 f i libvcruntime:risctrnsctrl.obj
 0001:00017138       ?DecompFuncInfo@FH4@@YA_JPEAEAEAUFuncInfo4@1@_KH_N@Z 0000000140018138 f i libvcruntime:risctrnsctrl.obj
 0001:000172bc       ?DecompTryBlock@TryBlockMap4@FH4@@AEAAXXZ 00000001400182bc f i libvcruntime:risctrnsctrl.obj
 0001:00017374       ?ExecutionInCatch@__FrameHandler3@@SA_NPEAU_xDISPATCHER_CONTEXT@@PEBU_s_FuncInfo@@@Z 0000000140018374 f   libvcruntime:risctrnsctrl.obj
 0001:000173a8       ?ExecutionInCatch@__FrameHandler4@@SA_NPEAU_xDISPATCHER_CONTEXT@@PEAUFuncInfo4@FH4@@@Z 00000001400183a8 f   libvcruntime:risctrnsctrl.obj
 0001:000173b0       ?FrameUnwindToEmptyState@__FrameHandler3@@SAXPEA_KPEAU_xDISPATCHER_CONTEXT@@PEBU_s_FuncInfo@@@Z 00000001400183b0 f   libvcruntime:risctrnsctrl.obj
 0001:00017430       ?FrameUnwindToEmptyState@__FrameHandler4@@SAXPEA_KPEAU_xDISPATCHER_CONTEXT@@PEAUFuncInfo4@FH4@@@Z 0000000140018430 f   libvcruntime:risctrnsctrl.obj
 0001:00017470       ?GetEstablisherFrame@__FrameHandler3@@SAPEA_KPEA_KPEAU_xDISPATCHER_CONTEXT@@PEBU_s_FuncInfo@@0@Z 0000000140018470 f   libvcruntime:risctrnsctrl.obj
 0001:00017574       ?GetEstablisherFrame@__FrameHandler4@@SAPEA_KPEA_KPEAU_xDISPATCHER_CONTEXT@@PEAUFuncInfo4@FH4@@0@Z 0000000140018574 f   libvcruntime:risctrnsctrl.obj
 0001:000175a0       ?GetRangeOfTrysToCheck@__FrameHandler3@@SA?AU?$pair@Viterator@TryBlockMap@__FrameHandler3@@V123@@std@@AEAVTryBlockMap@1@HPEAU_xDISPATCHER_CONTEXT@@PEBU_s_FuncInfo@@H@Z 00000001400185a0 f   libvcruntime:risctrnsctrl.obj
 0001:00017720       ?GetRangeOfTrysToCheck@__FrameHandler4@@SA?AU?$pair@Viterator@TryBlockMap4@FH4@@V123@@std@@AEAVTryBlockMap4@FH4@@HPEAU_xDISPATCHER_CONTEXT@@PEAUFuncInfo4@5@H@Z 0000000140018720 f   libvcruntime:risctrnsctrl.obj
 0001:000178e4       ?ReadInt@FH4@@YAHPEAPEAE@Z 00000001400188e4 f i libvcruntime:risctrnsctrl.obj
 0001:000178f4       ?ReadUnsigned@FH4@@YAIPEAPEAE@Z 00000001400188f4 f i libvcruntime:risctrnsctrl.obj
 0001:00017930       ?UnwindNestedFrames@__FrameHandler3@@SAXPEA_KPEAUEHExceptionRecord@@PEAU_CONTEXT@@0PEAXPEBU_s_FuncInfo@@HHPEBU_s_HandlerType@@PEAU_xDISPATCHER_CONTEXT@@E@Z 0000000140018930 f   libvcruntime:risctrnsctrl.obj
 0001:00017a74       ?UnwindNestedFrames@__FrameHandler4@@SAXPEA_KPEAUEHExceptionRecord@@PEAU_CONTEXT@@0PEAXPEAUFuncInfo4@FH4@@HHPEAUHandlerType4@5@PEAU_xDISPATCHER_CONTEXT@@E@Z 0000000140018a74 f   libvcruntime:risctrnsctrl.obj
 0001:00017bdc       ?begin@TryBlockMap4@FH4@@QEAA?AViterator@12@XZ 0000000140018bdc f i libvcruntime:risctrnsctrl.obj
 0001:00017bec       ?end@TryBlockMap4@FH4@@QEAA?AViterator@12@XZ 0000000140018bec f i libvcruntime:risctrnsctrl.obj
 0001:00017bfc       ?imageRelToByteBuffer@FH4@@YAPEAE_KH@Z 0000000140018bfc f i libvcruntime:risctrnsctrl.obj
 0001:00017c04       ?incrementToSentinel@iterator@TryBlockMap4@FH4@@QEAAXXZ 0000000140018c04 f i libvcruntime:risctrnsctrl.obj
 0001:00017c08       ?setBuffer@TryBlockMap4@FH4@@QEAAXViterator@12@@Z 0000000140018c08 f i libvcruntime:risctrnsctrl.obj
 0001:00017e3c       _CreateFrameInfo           0000000140018e3c f   libvcruntime:risctrnsctrl.obj
 0001:00017e84       _FindAndUnlinkFrame        0000000140018e84 f   libvcruntime:risctrnsctrl.obj
 0001:00017eec       _GetImageBase              0000000140018eec f   libvcruntime:risctrnsctrl.obj
 0001:00017f04       _GetThrowImageBase         0000000140018f04 f   libvcruntime:risctrnsctrl.obj
 0001:00017f1c       _SetImageBase              0000000140018f1c f   libvcruntime:risctrnsctrl.obj
 0001:00017f3c       _SetThrowImageBase         0000000140018f3c f   libvcruntime:risctrnsctrl.obj
 0001:00017f5c       __CxxFrameHandler          0000000140018f5c f   libvcruntime:risctrnsctrl.obj
 0001:00017f64       __CxxFrameHandler2         0000000140018f64 f   libvcruntime:risctrnsctrl.obj
 0001:00017f6c       __CxxFrameHandler3         0000000140018f6c f   libvcruntime:risctrnsctrl.obj
 0001:00018014       __CxxFrameHandler4         0000000140019014 f   libvcruntime:risctrnsctrl.obj
 0001:00018110       ?GetCurrentState@__FrameHandler3@@SAHPEA_KPEAU_xDISPATCHER_CONTEXT@@PEBU_s_FuncInfo@@@Z 0000000140019110 f   libvcruntime:ehstate.obj
 0001:00018140       ?GetUnwindTryBlock@__FrameHandler3@@SAHPEA_KPEAU_xDISPATCHER_CONTEXT@@PEBU_s_FuncInfo@@@Z 0000000140019140 f   libvcruntime:ehstate.obj
 0001:00018174       ?SetState@__FrameHandler3@@SAXPEA_KPEBU_s_FuncInfo@@H@Z 0000000140019174 f   libvcruntime:ehstate.obj
 0001:00018184       ?SetUnwindTryBlock@__FrameHandler3@@SAXPEA_KPEAU_xDISPATCHER_CONTEXT@@PEBU_s_FuncInfo@@H@Z 0000000140019184 f   libvcruntime:ehstate.obj
 0001:000181d0       ?StateFromControlPc@__FrameHandler3@@SAHPEBU_s_FuncInfo@@PEAU_xDISPATCHER_CONTEXT@@@Z 00000001400191d0 f   libvcruntime:ehstate.obj
 0001:000181dc       ?StateFromControlPc@__FrameHandler4@@SAHPEAUFuncInfo4@FH4@@PEAU_xDISPATCHER_CONTEXT@@@Z 00000001400191dc f   libvcruntime:ehstate.obj
 0001:000181e8       ?StateFromIp@__FrameHandler3@@SAHPEBU_s_FuncInfo@@PEAU_xDISPATCHER_CONTEXT@@_K@Z 00000001400191e8 f   libvcruntime:ehstate.obj
 0001:00018268       ?StateFromIp@__FrameHandler4@@SAHPEAUFuncInfo4@FH4@@PEAU_xDISPATCHER_CONTEXT@@_K@Z 0000000140019268 f   libvcruntime:ehstate.obj
 0001:00018390       ?__FuncRelToRealOffset@@YA_KPEAU_xDISPATCHER_CONTEXT@@I@Z 0000000140019390 f i libvcruntime:ehstate.obj
 0001:000183a4       ?__RVAtoRealOffset@@YA_KPEAU_xDISPATCHER_CONTEXT@@H@Z 00000001400193a4 f i libvcruntime:ehstate.obj
 0001:00019fb0       ??$TypeMatchHelper@V__FrameHandler3@@@@YAHPEBU_s_HandlerType@@PEBU_s_CatchableType@@PEBU_s_ThrowInfo@@@Z 000000014001afb0 f i libvcruntime:frame.obj
 0001:0001a13c       ??$TypeMatchHelper@V__FrameHandler4@@@@YAHPEAUHandlerType4@FH4@@PEBU_s_CatchableType@@PEBU_s_ThrowInfo@@@Z 000000014001b13c f i libvcruntime:frame.obj
 0001:0001a2dc       ??$__InternalCxxFrameHandler@V__FrameHandler3@@@@YA?AW4_EXCEPTION_DISPOSITION@@PEAUEHExceptionRecord@@PEA_KPEAU_CONTEXT@@PEAU_xDISPATCHER_CONTEXT@@PEBU_s_FuncInfo@@H1E@Z 000000014001b2dc f i libvcruntime:frame.obj
 0001:0001a5a0       ??$__InternalCxxFrameHandler@V__FrameHandler4@@@@YA?AW4_EXCEPTION_DISPOSITION@@PEAUEHExceptionRecord@@PEA_KPEAU_CONTEXT@@PEAU_xDISPATCHER_CONTEXT@@PEAUFuncInfo4@FH4@@H1E@Z 000000014001b5a0 f i libvcruntime:frame.obj
 0001:0001a8dc       ??$__InternalCxxFrameHandlerWrapper@V__FrameHandler3@@@@YA?AW4_EXCEPTION_DISPOSITION@@PEAUEHExceptionRecord@@PEA_KPEAU_CONTEXT@@PEAU_xDISPATCHER_CONTEXT@@PEBU_s_FuncInfo@@H1E@Z 000000014001b8dc f i libvcruntime:frame.obj
 0001:0001a8e4       ??$__InternalCxxFrameHandlerWrapper@V__FrameHandler4@@@@YA?AW4_EXCEPTION_DISPOSITION@@PEAUEHExceptionRecord@@PEA_KPEAU_CONTEXT@@PEAU_xDISPATCHER_CONTEXT@@PEAUFuncInfo4@FH4@@H1E@Z 000000014001b8e4 f i libvcruntime:frame.obj
 0001:0001a944       ??0HandlerMap4@FH4@@QEAA@PEBUTryBlockMapEntry4@1@_KH@Z 000000014001b944 f i libvcruntime:frame.obj
 0001:0001a9e8       ??0HandlerMap@__FrameHandler3@@QEAA@PEBU_s_TryBlockMapEntry@@_KI@Z 000000014001b9e8 f i libvcruntime:frame.obj
 0001:0001aa04       ??0HandlerType4@FH4@@QEAA@XZ 000000014001ba04 f i libvcruntime:frame.obj
 0001:0001aa20       ??0TryBlockMap4@FH4@@QEAA@PEBUFuncInfo4@1@_K@Z 000000014001ba20 f i libvcruntime:frame.obj
 0001:0001ab40       ??0TryBlockMap@__FrameHandler3@@QEAA@PEBU_s_FuncInfo@@_K@Z 000000014001bb40 f i libvcruntime:frame.obj
 0001:0001ab50       ??0UWMap4@FH4@@QEAA@PEBUFuncInfo4@1@_K@Z 000000014001bb50 f i libvcruntime:frame.obj
 0001:0001abb0       ??0bad_exception@std@@QEAA@AEBV01@@Z 000000014001bbb0 f i libvcruntime:frame.obj
 0001:0001abfc       ??0bad_exception@std@@QEAA@XZ 000000014001bbfc f i libvcruntime:frame.obj
 0001:0001ac24       ??0exception@std@@QEAA@AEBV01@@Z 000000014001bc24 f i libvcruntime:frame.obj
 0001:0001ac64       ??0exception@std@@QEAA@QEBDH@Z 000000014001bc64 f i libvcruntime:frame.obj
 0001:0001ac80       ??0iterator@HandlerMap4@FH4@@QEAA@AEAV12@I@Z 000000014001bc80 f i libvcruntime:frame.obj
 0001:0001ac90       ??0iterator@HandlerMap@__FrameHandler3@@QEAA@AEAV12@I@Z 000000014001bc90 f i libvcruntime:frame.obj
 0001:0001aca0       ??0iterator@UWMap4@FH4@@QEAA@AEAV12@PEAE@Z 000000014001bca0 f i libvcruntime:frame.obj
 0001:0001acb0       ??1bad_exception@std@@UEAA@XZ 000000014001bcb0 f i libvcruntime:frame.obj
 0001:0001acc8       ??1exception@std@@UEAA@XZ  000000014001bcc8 f i libvcruntime:frame.obj
 0001:0001ace0       ??4iterator@UWMap4@FH4@@QEAAAEAV012@AEBV012@@Z 000000014001bce0 f i libvcruntime:frame.obj
 0001:0001ad08       ??8iterator@HandlerMap4@FH4@@QEBA_NAEBV012@@Z 000000014001bd08 f i libvcruntime:frame.obj
 0001:0001ad14       ??8iterator@HandlerMap@__FrameHandler3@@QEBA_NAEBV012@@Z 000000014001bd14 f i libvcruntime:frame.obj
 0001:0001ad20       ??8type_info@@QEBA_NAEBV0@@Z 000000014001bd20 f i libvcruntime:frame.obj
 0001:0001ad44       ??9iterator@HandlerMap4@FH4@@QEBA_NAEBV012@@Z 000000014001bd44 f i libvcruntime:frame.obj
 0001:0001ad50       ??9iterator@HandlerMap@__FrameHandler3@@QEBA_NAEBV012@@Z 000000014001bd50 f i libvcruntime:frame.obj
 0001:0001ad5c       ??Diterator@HandlerMap4@FH4@@QEAA?AUHandlerType4@2@XZ 000000014001bd5c f i libvcruntime:frame.obj
 0001:0001ad84       ??Diterator@HandlerMap@__FrameHandler3@@QEAA?BU_s_HandlerType@@XZ 000000014001bd84 f i libvcruntime:frame.obj
 0001:0001adb0       ??Diterator@TryBlockMap@__FrameHandler3@@QEAA?BU_s_TryBlockMapEntry@@XZ 000000014001bdb0 f i libvcruntime:frame.obj
 0001:0001ade8       ??Diterator@UWMap4@FH4@@QEAA?AUUnwindMapEntry4@2@XZ 000000014001bde8 f i libvcruntime:frame.obj
 0001:0001ae50       ??Eiterator@HandlerMap4@FH4@@QEAAAEAV012@XZ 000000014001be50 f i libvcruntime:frame.obj
 0001:0001ae74       ??Eiterator@HandlerMap@__FrameHandler3@@QEAAAEAV012@XZ 000000014001be74 f i libvcruntime:frame.obj
 0001:0001ae7c       ??Eiterator@TryBlockMap@__FrameHandler3@@QEAAAEAV012@XZ 000000014001be7c f i libvcruntime:frame.obj
 0001:0001ae84       ??Eiterator@UWMap4@FH4@@QEAAAEAV012@XZ 000000014001be84 f i libvcruntime:frame.obj
 0001:0001aeac       ??Giterator@UWMap4@FH4@@QEBA_JAEBV012@@Z 000000014001beac f i libvcruntime:frame.obj
 0001:0001aeb8       ??Miterator@TryBlockMap4@FH4@@QEBA_NAEBV012@@Z 000000014001beb8 f i libvcruntime:frame.obj
 0001:0001aec4       ??Miterator@TryBlockMap@__FrameHandler3@@QEBA_NAEBV012@@Z 000000014001bec4 f i libvcruntime:frame.obj
 0001:0001aed0       ??Oiterator@UWMap4@FH4@@QEBA_NAEBV012@@Z 000000014001bed0 f i libvcruntime:frame.obj
 0001:0001aee0       ??Piterator@UWMap4@FH4@@QEBA_NAEBV012@@Z 000000014001bee0 f i libvcruntime:frame.obj
 0001:0001aef0       ??_Ebad_exception@std@@UEAAPEAXI@Z 000000014001bef0 f i libvcruntime:frame.obj
 0001:0001aef0       ??_Gbad_exception@std@@UEAAPEAXI@Z 000000014001bef0 f i libvcruntime:frame.obj
 0001:0001af44       ??_Eexception@std@@UEAAPEAXI@Z 000000014001bf44 f i libvcruntime:frame.obj
 0001:0001af44       ??_Gexception@std@@UEAAPEAXI@Z 000000014001bf44 f i libvcruntime:frame.obj
 0001:0001af98       ?BuildCatchObject@__FrameHandler3@@SAXPEAUEHExceptionRecord@@PEAXPEBU_s_HandlerType@@PEBU_s_CatchableType@@@Z 000000014001bf98 f   libvcruntime:frame.obj
 0001:0001afa0       ?BuildCatchObject@__FrameHandler4@@SAXPEAUEHExceptionRecord@@PEAXPEAUHandlerType4@FH4@@PEBU_s_CatchableType@@@Z 000000014001bfa0 f   libvcruntime:frame.obj
 0001:0001afa8       ?BuildCatchObjectHelper@__FrameHandler3@@SAHPEAUEHExceptionRecord@@PEAXPEBU_s_HandlerType@@PEBU_s_CatchableType@@@Z 000000014001bfa8 f   libvcruntime:frame.obj
 0001:0001afb0       ?BuildCatchObjectHelper@__FrameHandler4@@SAHPEAUEHExceptionRecord@@PEAXPEAUHandlerType4@FH4@@PEBU_s_CatchableType@@@Z 000000014001bfb0 f   libvcruntime:frame.obj
 0001:0001afb8       ?CxxCallCatchBlock@__FrameHandler3@@SAPEAXPEAU_EXCEPTION_RECORD@@@Z 000000014001bfb8 f   libvcruntime:frame.obj
 0001:0001b21c       ?CxxCallCatchBlock@__FrameHandler4@@SAPEAXPEAU_EXCEPTION_RECORD@@@Z 000000014001c21c f   libvcruntime:frame.obj
 0001:0001b4fc       ?DecompHandler@HandlerMap4@FH4@@AEAAXXZ 000000014001c4fc f i libvcruntime:frame.obj
 0001:0001b7d8       ?FrameUnwindToState@__FrameHandler3@@SAXPEA_KPEAU_xDISPATCHER_CONTEXT@@PEBU_s_FuncInfo@@H@Z 000000014001c7d8 f   libvcruntime:frame.obj
 0001:0001b9c4       ?FrameUnwindToState@__FrameHandler4@@SAXPEA_KPEAU_xDISPATCHER_CONTEXT@@PEAUFuncInfo4@FH4@@H@Z 000000014001c9c4 f   libvcruntime:frame.obj
 0001:0001bd8c       ?GetHandlerSearchState@__FrameHandler3@@SAHPEA_KPEAU_xDISPATCHER_CONTEXT@@PEBU_s_FuncInfo@@@Z 000000014001cd8c f i libvcruntime:frame.obj
 0001:0001be48       ?GetHandlerSearchState@__FrameHandler4@@SAHPEA_KPEAU_xDISPATCHER_CONTEXT@@PEAUFuncInfo4@FH4@@@Z 000000014001ce48 f i libvcruntime:frame.obj
 0001:0001bec4       ?GetMaxState@__FrameHandler3@@SAHPEAU_xDISPATCHER_CONTEXT@@PEBU_s_FuncInfo@@@Z 000000014001cec4 f i libvcruntime:frame.obj
 0001:0001bec8       ?GetMaxState@__FrameHandler4@@SAHPEAU_xDISPATCHER_CONTEXT@@PEAUFuncInfo4@FH4@@@Z 000000014001cec8 f i libvcruntime:frame.obj
 0001:0001c0e4       ?ReadEntry@UWMap4@FH4@@AEAAXPEAPEAE@Z 000000014001d0e4 f i libvcruntime:frame.obj
 0001:0001c1a8       ?TypeMatch@__FrameHandler3@@SAHPEBU_s_HandlerType@@PEBU_s_CatchableType@@PEBU_s_ThrowInfo@@@Z 000000014001d1a8 f   libvcruntime:frame.obj
 0001:0001c1b0       ?TypeMatch@__FrameHandler4@@SAHPEAUHandlerType4@FH4@@PEBU_s_CatchableType@@PEBU_s_ThrowInfo@@@Z 000000014001d1b0 f   libvcruntime:frame.obj
 0001:0001c1b8       ?WalkBack@UWMap4@FH4@@AEAAXPEAPEAE@Z 000000014001d1b8 f i libvcruntime:frame.obj
 0001:0001c1fc       ?WalkBack@iterator@UWMap4@FH4@@QEAAXXZ 000000014001d1fc f i libvcruntime:frame.obj
 0001:0001c248       ?WalkForward@UWMap4@FH4@@AEAAXPEAPEAE@Z 000000014001d248 f i libvcruntime:frame.obj
 0001:0001c250       ?_CallMemberFunction1@@YAXQEAX00@Z 000000014001d250 f i libvcruntime:frame.obj
 0001:0001c25c       ?_CallMemberFunction2@@YAXQEAX00H@Z 000000014001d25c f i libvcruntime:frame.obj
 0001:0001c28c       ?begin@HandlerMap4@FH4@@QEAA?AViterator@12@XZ 000000014001d28c f i libvcruntime:frame.obj
 0001:0001c29c       ?begin@HandlerMap@__FrameHandler3@@QEAA?AViterator@12@XZ 000000014001d29c f i libvcruntime:frame.obj
 0001:0001c2ac       ?begin@UWMap4@FH4@@QEAA?AViterator@12@XZ 000000014001d2ac f i libvcruntime:frame.obj
 0001:0001c2c0       ?end@HandlerMap4@FH4@@QEAA?AViterator@12@XZ 000000014001d2c0 f i libvcruntime:frame.obj
 0001:0001c2d0       ?end@HandlerMap@__FrameHandler3@@QEAA?AViterator@12@XZ 000000014001d2d0 f i libvcruntime:frame.obj
 0001:0001c2e0       ?getESTypes@__FrameHandler3@@SAPEBU_s_ESTypeList@@PEBU_s_FuncInfo@@@Z 000000014001d2e0 f i libvcruntime:frame.obj
 0001:0001c314       ?getESTypes@__FrameHandler4@@SAPEBU_s_ESTypeList@@PEAUFuncInfo4@FH4@@@Z 000000014001d314 f i libvcruntime:frame.obj
 0001:0001c318       ?getLastEntry@HandlerMap4@FH4@@QEAAPEAUHandlerType4@2@XZ 000000014001d318 f i libvcruntime:frame.obj
 0001:0001c37c       ?getLastEntry@HandlerMap@__FrameHandler3@@QEAAPEBU_s_HandlerType@@XZ 000000014001d37c f i libvcruntime:frame.obj
 0001:0001c394       ?getMagicNum@__FrameHandler3@@SAIPEBU_s_FuncInfo@@@Z 000000014001d394 f i libvcruntime:frame.obj
 0001:0001c3a0       ?getMagicNum@__FrameHandler4@@SAIPEAUFuncInfo4@FH4@@@Z 000000014001d3a0 f i libvcruntime:frame.obj
 0001:0001c3a8       ?getNumTryBlocks@TryBlockMap4@FH4@@QEAAIXZ 000000014001d3a8 f i libvcruntime:frame.obj
 0001:0001c3ac       ?getNumTryBlocks@TryBlockMap@__FrameHandler3@@QEAAIXZ 000000014001d3ac f i libvcruntime:frame.obj
 0001:0001c3b4       ?getStartStop@UWMap4@FH4@@QEAAXHHAEAViterator@12@0@Z 000000014001d3b4 f i libvcruntime:frame.obj
 0001:0001c4b8       ?getStateFromIterators@UWMap4@FH4@@SAHAEBViterator@12@H0H0@Z 000000014001d4b8 f i libvcruntime:frame.obj
 0001:0001c594       ?isEHs@__FrameHandler3@@SA_NPEBU_s_FuncInfo@@@Z 000000014001d594 f i libvcruntime:frame.obj
 0001:0001c59c       ?isEHs@__FrameHandler4@@SA_NPEAUFuncInfo4@FH4@@@Z 000000014001d59c f i libvcruntime:frame.obj
 0001:0001c5a8       ?isNoExcept@__FrameHandler3@@SA_NPEBU_s_FuncInfo@@@Z 000000014001d5a8 f i libvcruntime:frame.obj
 0001:0001c5b4       ?isNoExcept@__FrameHandler4@@SA_NPEAUFuncInfo4@FH4@@@Z 000000014001d5b4 f i libvcruntime:frame.obj
 0001:0001c5c0       ?reset@HandlerType4@FH4@@QEAAXXZ 000000014001d5c0 f i libvcruntime:frame.obj
 0001:0001c5dc       ?resetBuffer@HandlerMap4@FH4@@QEAAXXZ 000000014001d5dc f i libvcruntime:frame.obj
 0001:0001c5ec       ?setBuffer@HandlerMap4@FH4@@QEAAXI@Z 000000014001d5ec f i libvcruntime:frame.obj
 0001:0001c634       ?what@exception@std@@UEBAPEBDXZ 000000014001d634 f i libvcruntime:frame.obj
 0001:0001c64c       __BuildCatchObject         000000014001d64c f   libvcruntime:frame.obj
 0001:0001c654       __BuildCatchObjectHelper   000000014001d654 f   libvcruntime:frame.obj
 0001:0001c65c       __TypeMatch                000000014001d65c f   libvcruntime:frame.obj
 0001:0001c664       __vcrt_EncodePointer       000000014001d664 f i libvcruntime:frame.obj
 0001:0001c6c0       _CallSettingFrame          000000014001d6c0 f   libvcruntime:handlers.obj
 0001:0001c710       _CallSettingFrame_LookupContinuationIndex 000000014001d710 f   libvcruntime:handlers.obj
 0001:0001c750       _CallSettingFrame_NotifyContinuationAddr 000000014001d750 f   libvcruntime:handlers.obj
 0001:0001c780       _CallSettingFrameEncoded   000000014001d780 f   libvcruntime:handlers.obj
 0001:0001c7d8       ??$?RD@__crt_public_free_policy@@QEBAXQEBD@Z 000000014001d7d8 f i libvcruntime:std_exception.obj
 0001:0001c7e4       ??0?$__crt_unique_heap_ptr@DU__crt_public_free_policy@@@@QEAA@QEAD@Z 000000014001d7e4 f i libvcruntime:std_exception.obj
 0001:0001c7ec       ??1?$__crt_unique_heap_ptr@DU__crt_public_free_policy@@@@QEAA@XZ 000000014001d7ec f i libvcruntime:std_exception.obj
 0001:0001c810       ??B?$__crt_unique_heap_ptr@DU__crt_public_free_policy@@@@QEBA_NXZ 000000014001d810 f i libvcruntime:std_exception.obj
 0001:0001c81c       ?detach@?$__crt_unique_heap_ptr@DU__crt_public_free_policy@@@@QEAAPEADXZ 000000014001d81c f i libvcruntime:std_exception.obj
 0001:0001c828       ?get@?$__crt_unique_heap_ptr@DU__crt_public_free_policy@@@@QEBAPEADXZ 000000014001d828 f i libvcruntime:std_exception.obj
 0001:0001c82c       ?is_valid@?$__crt_unique_heap_ptr@DU__crt_public_free_policy@@@@QEBA_NXZ 000000014001d82c f i libvcruntime:std_exception.obj
 0001:0001c838       ?release@?$__crt_unique_heap_ptr@DU__crt_public_free_policy@@@@QEAAXXZ 000000014001d838 f i libvcruntime:std_exception.obj
 0001:0001c85c       __std_exception_copy       000000014001d85c f   libvcruntime:std_exception.obj
 0001:0001c90c       __std_exception_destroy    000000014001d90c f   libvcruntime:std_exception.obj
 0001:0001c93c       _CxxThrowException         000000014001d93c f   libvcruntime:throw.obj
 0001:0001ca0c       ??$?0AEBV?$stream_output_adapter@D@__crt_stdio_output@@AEB_KAEBQEBDAEAV__crt_cached_ptd_host@@AEBQEAD@?$format_validation_base@DV?$stream_output_adapter@D@__crt_stdio_output@@@__crt_stdio_output@@IEAA@AEBV?$stream_output_adapter@D@1@AEB_KAEBQEBDAEAV__crt_cached_ptd_host@@AEBQEAD@Z 000000014001da0c f i libucrt:output.obj
 0001:0001ca98       ??$?0AEBV?$stream_output_adapter@D@__crt_stdio_output@@AEB_KAEBQEBDAEAV__crt_cached_ptd_host@@AEBQEAD@?$positional_parameter_base@DV?$stream_output_adapter@D@__crt_stdio_output@@@__crt_stdio_output@@IEAA@AEBV?$stream_output_adapter@D@1@AEB_KAEBQEBDAEAV__crt_cached_ptd_host@@AEBQEAD@Z 000000014001da98 f i libucrt:output.obj
 0001:0001cb48       ??$?0AEBV?$stream_output_adapter@D@__crt_stdio_output@@AEB_KAEBQEBDAEAV__crt_cached_ptd_host@@AEBQEAD@?$standard_base@DV?$stream_output_adapter@D@__crt_stdio_output@@@__crt_stdio_output@@IEAA@AEBV?$stream_output_adapter@D@1@AEB_KAEBQEBDAEAV__crt_cached_ptd_host@@AEBQEAD@Z 000000014001db48 f i libucrt:output.obj
 0001:0001cbd4       ??$?0AEBV?$stream_output_adapter@_W@__crt_stdio_output@@AEB_KAEBQEB_WAEAV__crt_cached_ptd_host@@AEBQEAD@?$format_validation_base@_WV?$stream_output_adapter@_W@__crt_stdio_output@@@__crt_stdio_output@@IEAA@AEBV?$stream_output_adapter@_W@1@AEB_KAEBQEB_WAEAV__crt_cached_ptd_host@@AEBQEAD@Z 000000014001dbd4 f i libucrt:output.obj
 0001:0001cc68       ??$?0AEBV?$stream_output_adapter@_W@__crt_stdio_output@@AEB_KAEBQEB_WAEAV__crt_cached_ptd_host@@AEBQEAD@?$positional_parameter_base@_WV?$stream_output_adapter@_W@__crt_stdio_output@@@__crt_stdio_output@@IEAA@AEBV?$stream_output_adapter@_W@1@AEB_KAEBQEB_WAEAV__crt_cached_ptd_host@@AEBQEAD@Z 000000014001dc68 f i libucrt:output.obj
 0001:0001cd20       ??$?0AEBV?$stream_output_adapter@_W@__crt_stdio_output@@AEB_KAEBQEB_WAEAV__crt_cached_ptd_host@@AEBQEAD@?$standard_base@_WV?$stream_output_adapter@_W@__crt_stdio_output@@@__crt_stdio_output@@IEAA@AEBV?$stream_output_adapter@_W@1@AEB_KAEBQEB_WAEAV__crt_cached_ptd_host@@AEBQEAD@Z 000000014001dd20 f i libucrt:output.obj
 0001:0001cdb4       ??$?0AEBV?$string_output_adapter@D@__crt_stdio_output@@AEB_KAEBQEBDAEAV__crt_cached_ptd_host@@AEBQEAD@?$format_validation_base@DV?$string_output_adapter@D@__crt_stdio_output@@@__crt_stdio_output@@IEAA@AEBV?$string_output_adapter@D@1@AEB_KAEBQEBDAEAV__crt_cached_ptd_host@@AEBQEAD@Z 000000014001ddb4 f i libucrt:output.obj
 0001:0001ce40       ??$?0AEBV?$string_output_adapter@D@__crt_stdio_output@@AEB_KAEBQEBDAEAV__crt_cached_ptd_host@@AEBQEAD@?$positional_parameter_base@DV?$string_output_adapter@D@__crt_stdio_output@@@__crt_stdio_output@@IEAA@AEBV?$string_output_adapter@D@1@AEB_KAEBQEBDAEAV__crt_cached_ptd_host@@AEBQEAD@Z 000000014001de40 f i libucrt:output.obj
 0001:0001cef0       ??$?0AEBV?$string_output_adapter@D@__crt_stdio_output@@AEB_KAEBQEBDAEAV__crt_cached_ptd_host@@AEBQEAD@?$standard_base@DV?$string_output_adapter@D@__crt_stdio_output@@@__crt_stdio_output@@IEAA@AEBV?$string_output_adapter@D@1@AEB_KAEBQEBDAEAV__crt_cached_ptd_host@@AEBQEAD@Z 000000014001def0 f i libucrt:output.obj
 0001:0001cf7c       ??$?0AEBV?$string_output_adapter@_W@__crt_stdio_output@@AEB_KAEBQEB_WAEAV__crt_cached_ptd_host@@AEBQEAD@?$format_validation_base@_WV?$string_output_adapter@_W@__crt_stdio_output@@@__crt_stdio_output@@IEAA@AEBV?$string_output_adapter@_W@1@AEB_KAEBQEB_WAEAV__crt_cached_ptd_host@@AEBQEAD@Z 000000014001df7c f i libucrt:output.obj
 0001:0001d010       ??$?0AEBV?$string_output_adapter@_W@__crt_stdio_output@@AEB_KAEBQEB_WAEAV__crt_cached_ptd_host@@AEBQEAD@?$positional_parameter_base@_WV?$string_output_adapter@_W@__crt_stdio_output@@@__crt_stdio_output@@IEAA@AEBV?$string_output_adapter@_W@1@AEB_KAEBQEB_WAEAV__crt_cached_ptd_host@@AEBQEAD@Z 000000014001e010 f i libucrt:output.obj
 0001:0001d0c8       ??$?0AEBV?$string_output_adapter@_W@__crt_stdio_output@@AEB_KAEBQEB_WAEAV__crt_cached_ptd_host@@AEBQEAD@?$standard_base@_WV?$string_output_adapter@_W@__crt_stdio_output@@@__crt_stdio_output@@IEAA@AEBV?$string_output_adapter@_W@1@AEB_KAEBQEB_WAEAV__crt_cached_ptd_host@@AEBQEAD@Z 000000014001e0c8 f i libucrt:output.obj
 0001:0001d45c       ??$__crt_interlocked_read@J@@YAJPEDJ@Z 000000014001e45c f i libucrt:output.obj
 0001:0001d460       ??$_tcstol_internal@DPEAPEAD$0A@@@YAJAEAV__crt_cached_ptd_host@@QEBDQEAPEADH@Z 000000014001e460 f i libucrt:output.obj
 0001:0001d49c       ??$_tcstol_internal@_WPEAPEA_W$0A@@@YAJAEAV__crt_cached_ptd_host@@QEB_WQEAPEA_WH@Z 000000014001e49c f i libucrt:output.obj
 0001:0001ea38       ??$count@D@formatting_buffer@__crt_stdio_output@@QEBA_KXZ 000000014001fa38 f i libucrt:output.obj
 0001:0001ea5c       ??$count@_W@formatting_buffer@__crt_stdio_output@@QEBA_KXZ 000000014001fa5c f i libucrt:output.obj
 0001:0001ea80       ??$data@D@formatting_buffer@__crt_stdio_output@@QEAAPEADXZ 000000014001fa80 f i libucrt:output.obj
 0001:0001ea94       ??$data@_W@formatting_buffer@__crt_stdio_output@@QEAAPEA_WXZ 000000014001fa94 f i libucrt:output.obj
 0001:0001eaa8       ??$ensure_buffer_is_big_enough@D@formatting_buffer@__crt_stdio_output@@QEAA_N_KAEAV__crt_cached_ptd_host@@@Z 000000014001faa8 f i libucrt:output.obj
 0001:0001eb7c       ??$ensure_buffer_is_big_enough@_W@formatting_buffer@__crt_stdio_output@@QEAA_N_KAEAV__crt_cached_ptd_host@@@Z 000000014001fb7c f i libucrt:output.obj
 0001:0001ec54       ??$extract_argument_from_va_list@C_J@?$positional_parameter_base@DV?$stream_output_adapter@D@__crt_stdio_output@@@__crt_stdio_output@@IEAA_NAEA_J@Z 000000014001fc54 f i libucrt:output.obj
 0001:0001eda0       ??$extract_argument_from_va_list@C_J@?$positional_parameter_base@DV?$string_output_adapter@D@__crt_stdio_output@@@__crt_stdio_output@@IEAA_NAEA_J@Z 000000014001fda0 f i libucrt:output.obj
 0001:0001eeec       ??$extract_argument_from_va_list@C_J@?$positional_parameter_base@_WV?$stream_output_adapter@_W@__crt_stdio_output@@@__crt_stdio_output@@IEAA_NAEA_J@Z 000000014001feec f i libucrt:output.obj
 0001:0001f03c       ??$extract_argument_from_va_list@C_J@?$positional_parameter_base@_WV?$string_output_adapter@_W@__crt_stdio_output@@@__crt_stdio_output@@IEAA_NAEA_J@Z 000000014002003c f i libucrt:output.obj
 0001:0001f18c       ??$extract_argument_from_va_list@C_J@?$standard_base@DV?$stream_output_adapter@D@__crt_stdio_output@@@__crt_stdio_output@@IEAA_NAEA_J@Z 000000014002018c f i libucrt:output.obj
 0001:0001f1a8       ??$extract_argument_from_va_list@C_J@?$standard_base@DV?$string_output_adapter@D@__crt_stdio_output@@@__crt_stdio_output@@IEAA_NAEA_J@Z 00000001400201a8 f i libucrt:output.obj
 0001:0001f1c4       ??$extract_argument_from_va_list@C_J@?$standard_base@_WV?$stream_output_adapter@_W@__crt_stdio_output@@@__crt_stdio_output@@IEAA_NAEA_J@Z 00000001400201c4 f i libucrt:output.obj
 0001:0001f1e0       ??$extract_argument_from_va_list@C_J@?$standard_base@_WV?$string_output_adapter@_W@__crt_stdio_output@@@__crt_stdio_output@@IEAA_NAEA_J@Z 00000001400201e0 f i libucrt:output.obj
 0001:0001f1fc       ??$extract_argument_from_va_list@E_J@?$positional_parameter_base@DV?$stream_output_adapter@D@__crt_stdio_output@@@__crt_stdio_output@@IEAA_NAEA_J@Z 00000001400201fc f i libucrt:output.obj
 0001:0001f348       ??$extract_argument_from_va_list@E_J@?$positional_parameter_base@DV?$string_output_adapter@D@__crt_stdio_output@@@__crt_stdio_output@@IEAA_NAEA_J@Z 0000000140020348 f i libucrt:output.obj
 0001:0001f494       ??$extract_argument_from_va_list@E_J@?$positional_parameter_base@_WV?$stream_output_adapter@_W@__crt_stdio_output@@@__crt_stdio_output@@IEAA_NAEA_J@Z 0000000140020494 f i libucrt:output.obj
 0001:0001f5e0       ??$extract_argument_from_va_list@E_J@?$positional_parameter_base@_WV?$string_output_adapter@_W@__crt_stdio_output@@@__crt_stdio_output@@IEAA_NAEA_J@Z 00000001400205e0 f i libucrt:output.obj
 0001:0001f72c       ??$extract_argument_from_va_list@E_J@?$standard_base@DV?$stream_output_adapter@D@__crt_stdio_output@@@__crt_stdio_output@@IEAA_NAEA_J@Z 000000014002072c f i libucrt:output.obj
 0001:0001f748       ??$extract_argument_from_va_list@E_J@?$standard_base@DV?$string_output_adapter@D@__crt_stdio_output@@@__crt_stdio_output@@IEAA_NAEA_J@Z 0000000140020748 f i libucrt:output.obj
 0001:0001f764       ??$extract_argument_from_va_list@E_J@?$standard_base@_WV?$stream_output_adapter@_W@__crt_stdio_output@@@__crt_stdio_output@@IEAA_NAEA_J@Z 0000000140020764 f i libucrt:output.obj
 0001:0001f780       ??$extract_argument_from_va_list@E_J@?$standard_base@_WV?$string_output_adapter@_W@__crt_stdio_output@@@__crt_stdio_output@@IEAA_NAEA_J@Z 0000000140020780 f i libucrt:output.obj
 0001:0001f79c       ??$extract_argument_from_va_list@F_J@?$positional_parameter_base@DV?$stream_output_adapter@D@__crt_stdio_output@@@__crt_stdio_output@@IEAA_NAEA_J@Z 000000014002079c f i libucrt:output.obj
 0001:0001f8e8       ??$extract_argument_from_va_list@F_J@?$positional_parameter_base@DV?$string_output_adapter@D@__crt_stdio_output@@@__crt_stdio_output@@IEAA_NAEA_J@Z 00000001400208e8 f i libucrt:output.obj
 0001:0001fa34       ??$extract_argument_from_va_list@F_J@?$positional_parameter_base@_WV?$stream_output_adapter@_W@__crt_stdio_output@@@__crt_stdio_output@@IEAA_NAEA_J@Z 0000000140020a34 f i libucrt:output.obj
 0001:0001fb84       ??$extract_argument_from_va_list@F_J@?$positional_parameter_base@_WV?$string_output_adapter@_W@__crt_stdio_output@@@__crt_stdio_output@@IEAA_NAEA_J@Z 0000000140020b84 f i libucrt:output.obj
 0001:0001fcd4       ??$extract_argument_from_va_list@F_J@?$standard_base@DV?$stream_output_adapter@D@__crt_stdio_output@@@__crt_stdio_output@@IEAA_NAEA_J@Z 0000000140020cd4 f i libucrt:output.obj
 0001:0001fcf0       ??$extract_argument_from_va_list@F_J@?$standard_base@DV?$string_output_adapter@D@__crt_stdio_output@@@__crt_stdio_output@@IEAA_NAEA_J@Z 0000000140020cf0 f i libucrt:output.obj
 0001:0001fd0c       ??$extract_argument_from_va_list@F_J@?$standard_base@_WV?$stream_output_adapter@_W@__crt_stdio_output@@@__crt_stdio_output@@IEAA_NAEA_J@Z 0000000140020d0c f i libucrt:output.obj
 0001:0001fd28       ??$extract_argument_from_va_list@F_J@?$standard_base@_WV?$string_output_adapter@_W@__crt_stdio_output@@@__crt_stdio_output@@IEAA_NAEA_J@Z 0000000140020d28 f i libucrt:output.obj
 0001:0001fd44       ??$extract_argument_from_va_list@GD@?$positional_parameter_base@DV?$stream_output_adapter@D@__crt_stdio_output@@@__crt_stdio_output@@IEAA_NAEAD@Z 0000000140020d44 f i libucrt:output.obj
 0001:0001fe8c       ??$extract_argument_from_va_list@GD@?$positional_parameter_base@DV?$string_output_adapter@D@__crt_stdio_output@@@__crt_stdio_output@@IEAA_NAEAD@Z 0000000140020e8c f i libucrt:output.obj
 0001:0001ffd4       ??$extract_argument_from_va_list@GD@?$standard_base@DV?$stream_output_adapter@D@__crt_stdio_output@@@__crt_stdio_output@@IEAA_NAEAD@Z 0000000140020fd4 f i libucrt:output.obj
 0001:0001fff0       ??$extract_argument_from_va_list@GD@?$standard_base@DV?$string_output_adapter@D@__crt_stdio_output@@@__crt_stdio_output@@IEAA_NAEAD@Z 0000000140020ff0 f i libucrt:output.obj
 0001:0002000c       ??$extract_argument_from_va_list@G_J@?$positional_parameter_base@DV?$stream_output_adapter@D@__crt_stdio_output@@@__crt_stdio_output@@IEAA_NAEA_J@Z 000000014002100c f i libucrt:output.obj
 0001:00020158       ??$extract_argument_from_va_list@G_J@?$positional_parameter_base@DV?$string_output_adapter@D@__crt_stdio_output@@@__crt_stdio_output@@IEAA_NAEA_J@Z 0000000140021158 f i libucrt:output.obj
 0001:000202a4       ??$extract_argument_from_va_list@G_J@?$positional_parameter_base@_WV?$stream_output_adapter@_W@__crt_stdio_output@@@__crt_stdio_output@@IEAA_NAEA_J@Z 00000001400212a4 f i libucrt:output.obj
 0001:000203f0       ??$extract_argument_from_va_list@G_J@?$positional_parameter_base@_WV?$string_output_adapter@_W@__crt_stdio_output@@@__crt_stdio_output@@IEAA_NAEA_J@Z 00000001400213f0 f i libucrt:output.obj
 0001:0002053c       ??$extract_argument_from_va_list@G_J@?$standard_base@DV?$stream_output_adapter@D@__crt_stdio_output@@@__crt_stdio_output@@IEAA_NAEA_J@Z 000000014002153c f i libucrt:output.obj
 0001:00020558       ??$extract_argument_from_va_list@G_J@?$standard_base@DV?$string_output_adapter@D@__crt_stdio_output@@@__crt_stdio_output@@IEAA_NAEA_J@Z 0000000140021558 f i libucrt:output.obj
 0001:00020574       ??$extract_argument_from_va_list@G_J@?$standard_base@_WV?$stream_output_adapter@_W@__crt_stdio_output@@@__crt_stdio_output@@IEAA_NAEA_J@Z 0000000140021574 f i libucrt:output.obj
 0001:00020590       ??$extract_argument_from_va_list@G_J@?$standard_base@_WV?$string_output_adapter@_W@__crt_stdio_output@@@__crt_stdio_output@@IEAA_NAEA_J@Z 0000000140021590 f i libucrt:output.obj
 0001:000205ac       ??$extract_argument_from_va_list@H_J@?$positional_parameter_base@DV?$stream_output_adapter@D@__crt_stdio_output@@@__crt_stdio_output@@IEAA_NAEA_J@Z 00000001400215ac f i libucrt:output.obj
 0001:000206f4       ??$extract_argument_from_va_list@H_J@?$positional_parameter_base@DV?$string_output_adapter@D@__crt_stdio_output@@@__crt_stdio_output@@IEAA_NAEA_J@Z 00000001400216f4 f i libucrt:output.obj
 0001:0002083c       ??$extract_argument_from_va_list@H_J@?$positional_parameter_base@_WV?$stream_output_adapter@_W@__crt_stdio_output@@@__crt_stdio_output@@IEAA_NAEA_J@Z 000000014002183c f i libucrt:output.obj
 0001:00020988       ??$extract_argument_from_va_list@H_J@?$positional_parameter_base@_WV?$string_output_adapter@_W@__crt_stdio_output@@@__crt_stdio_output@@IEAA_NAEA_J@Z 0000000140021988 f i libucrt:output.obj
 0001:00020ad4       ??$extract_argument_from_va_list@H_J@?$standard_base@DV?$stream_output_adapter@D@__crt_stdio_output@@@__crt_stdio_output@@IEAA_NAEA_J@Z 0000000140021ad4 f i libucrt:output.obj
 0001:00020af0       ??$extract_argument_from_va_list@H_J@?$standard_base@DV?$string_output_adapter@D@__crt_stdio_output@@@__crt_stdio_output@@IEAA_NAEA_J@Z 0000000140021af0 f i libucrt:output.obj
 0001:00020b0c       ??$extract_argument_from_va_list@H_J@?$standard_base@_WV?$stream_output_adapter@_W@__crt_stdio_output@@@__crt_stdio_output@@IEAA_NAEA_J@Z 0000000140021b0c f i libucrt:output.obj
 0001:00020b28       ??$extract_argument_from_va_list@H_J@?$standard_base@_WV?$string_output_adapter@_W@__crt_stdio_output@@@__crt_stdio_output@@IEAA_NAEA_J@Z 0000000140021b28 f i libucrt:output.obj
 0001:00020b44       ??$extract_argument_from_va_list@I_J@?$positional_parameter_base@DV?$stream_output_adapter@D@__crt_stdio_output@@@__crt_stdio_output@@IEAA_NAEA_J@Z 0000000140021b44 f i libucrt:output.obj
 0001:00020c8c       ??$extract_argument_from_va_list@I_J@?$positional_parameter_base@DV?$string_output_adapter@D@__crt_stdio_output@@@__crt_stdio_output@@IEAA_NAEA_J@Z 0000000140021c8c f i libucrt:output.obj
 0001:00020dd4       ??$extract_argument_from_va_list@I_J@?$positional_parameter_base@_WV?$stream_output_adapter@_W@__crt_stdio_output@@@__crt_stdio_output@@IEAA_NAEA_J@Z 0000000140021dd4 f i libucrt:output.obj
 0001:00020f20       ??$extract_argument_from_va_list@I_J@?$positional_parameter_base@_WV?$string_output_adapter@_W@__crt_stdio_output@@@__crt_stdio_output@@IEAA_NAEA_J@Z 0000000140021f20 f i libucrt:output.obj
 0001:0002106c       ??$extract_argument_from_va_list@I_J@?$standard_base@DV?$stream_output_adapter@D@__crt_stdio_output@@@__crt_stdio_output@@IEAA_NAEA_J@Z 000000014002206c f i libucrt:output.obj
 0001:00021088       ??$extract_argument_from_va_list@I_J@?$standard_base@DV?$string_output_adapter@D@__crt_stdio_output@@@__crt_stdio_output@@IEAA_NAEA_J@Z 0000000140022088 f i libucrt:output.obj
 0001:000210a4       ??$extract_argument_from_va_list@I_J@?$standard_base@_WV?$stream_output_adapter@_W@__crt_stdio_output@@@__crt_stdio_output@@IEAA_NAEA_J@Z 00000001400220a4 f i libucrt:output.obj
 0001:000210c0       ??$extract_argument_from_va_list@I_J@?$standard_base@_WV?$string_output_adapter@_W@__crt_stdio_output@@@__crt_stdio_output@@IEAA_NAEA_J@Z 00000001400220c0 f i libucrt:output.obj
 0001:000210dc       ??$extract_argument_from_va_list@PEADPEAD@?$positional_parameter_base@DV?$stream_output_adapter@D@__crt_stdio_output@@@__crt_stdio_output@@IEAA_NAEAPEAD@Z 00000001400220dc f i libucrt:output.obj
 0001:00021224       ??$extract_argument_from_va_list@PEADPEAD@?$positional_parameter_base@DV?$string_output_adapter@D@__crt_stdio_output@@@__crt_stdio_output@@IEAA_NAEAPEAD@Z 0000000140022224 f i libucrt:output.obj
 0001:0002136c       ??$extract_argument_from_va_list@PEADPEAD@?$positional_parameter_base@_WV?$stream_output_adapter@_W@__crt_stdio_output@@@__crt_stdio_output@@IEAA_NAEAPEAD@Z 000000014002236c f i libucrt:output.obj
 0001:000214b8       ??$extract_argument_from_va_list@PEADPEAD@?$positional_parameter_base@_WV?$string_output_adapter@_W@__crt_stdio_output@@@__crt_stdio_output@@IEAA_NAEAPEAD@Z 00000001400224b8 f i libucrt:output.obj
 0001:00021604       ??$extract_argument_from_va_list@PEADPEAD@?$standard_base@DV?$stream_output_adapter@D@__crt_stdio_output@@@__crt_stdio_output@@IEAA_NAEAPEAD@Z 0000000140022604 f i libucrt:output.obj
 0001:00021620       ??$extract_argument_from_va_list@PEADPEAD@?$standard_base@DV?$string_output_adapter@D@__crt_stdio_output@@@__crt_stdio_output@@IEAA_NAEAPEAD@Z 0000000140022620 f i libucrt:output.obj
 0001:0002163c       ??$extract_argument_from_va_list@PEADPEAD@?$standard_base@_WV?$stream_output_adapter@_W@__crt_stdio_output@@@__crt_stdio_output@@IEAA_NAEAPEAD@Z 000000014002263c f i libucrt:output.obj
 0001:00021658       ??$extract_argument_from_va_list@PEADPEAD@?$standard_base@_WV?$string_output_adapter@_W@__crt_stdio_output@@@__crt_stdio_output@@IEAA_NAEAPEAD@Z 0000000140022658 f i libucrt:output.obj
 0001:00021674       ??$extract_argument_from_va_list@PEAUansi_string@?1??type_case_Z@?$output_processor@DV?$stream_output_adapter@D@__crt_stdio_output@@V?$format_validation_base@DV?$stream_output_adapter@D@__crt_stdio_output@@@2@@__crt_stdio_output@@AEAA_NXZ@PEAU1?1??234@AEAA_NXZ@@?$standard_base@DV?$stream_output_adapter@D@__crt_stdio_output@@@__crt_stdio_output@@IEAA_NAEAPEAUansi_string@?1??type_case_Z@?$output_processor@DV?$stream_output_adapter@D@__crt_stdio_output@@V?$format_validation_base@DV?$stream_output_adapter@D@__crt_stdio_output@@@2@@1@AEAA_NXZ@@Z 0000000140022674 f i libucrt:output.obj
 0001:00021690       ??$extract_argument_from_va_list@PEAUansi_string@?1??type_case_Z@?$output_processor@DV?$stream_output_adapter@D@__crt_stdio_output@@V?$positional_parameter_base@DV?$stream_output_adapter@D@__crt_stdio_output@@@2@@__crt_stdio_output@@AEAA_NXZ@PEAU1?1??234@AEAA_NXZ@@?$positional_parameter_base@DV?$stream_output_adapter@D@__crt_stdio_output@@@__crt_stdio_output@@IEAA_NAEAPEAUansi_string@?1??type_case_Z@?$output_processor@DV?$stream_output_adapter@D@__crt_stdio_output@@V?$positional_parameter_base@DV?$stream_output_adapter@D@__crt_stdio_output@@@2@@1@AEAA_NXZ@@Z 0000000140022690 f i libucrt:output.obj
 0001:000217d8       ??$extract_argument_from_va_list@PEAUansi_string@?1??type_case_Z@?$output_processor@DV?$stream_output_adapter@D@__crt_stdio_output@@V?$positional_parameter_base@DV?$stream_output_adapter@D@__crt_stdio_output@@@2@@__crt_stdio_output@@AEAA_NXZ@PEAU1?1??234@AEAA_NXZ@@?$standard_base@DV?$stream_output_adapter@D@__crt_stdio_output@@@__crt_stdio_output@@IEAA_NAEAPEAUansi_string@?1??type_case_Z@?$output_processor@DV?$stream_output_adapter@D@__crt_stdio_output@@V?$positional_parameter_base@DV?$stream_output_adapter@D@__crt_stdio_output@@@2@@1@AEAA_NXZ@@Z 00000001400227d8 f i libucrt:output.obj
 0001:000217f4       ??$extract_argument_from_va_list@PEAUansi_string@?1??type_case_Z@?$output_processor@DV?$stream_output_adapter@D@__crt_stdio_output@@V?$standard_base@DV?$stream_output_adapter@D@__crt_stdio_output@@@2@@__crt_stdio_output@@AEAA_NXZ@PEAU1?1??234@AEAA_NXZ@@?$standard_base@DV?$stream_output_adapter@D@__crt_stdio_output@@@__crt_stdio_output@@IEAA_NAEAPEAUansi_string@?1??type_case_Z@?$output_processor@DV?$stream_output_adapter@D@__crt_stdio_output@@V?$standard_base@DV?$stream_output_adapter@D@__crt_stdio_output@@@2@@1@AEAA_NXZ@@Z 00000001400227f4 f i libucrt:output.obj
 0001:00021810       ??$extract_argument_from_va_list@PEAUansi_string@?1??type_case_Z@?$output_processor@DV?$string_output_adapter@D@__crt_stdio_output@@V?$format_validation_base@DV?$string_output_adapter@D@__crt_stdio_output@@@2@@__crt_stdio_output@@AEAA_NXZ@PEAU1?1??234@AEAA_NXZ@@?$standard_base@DV?$string_output_adapter@D@__crt_stdio_output@@@__crt_stdio_output@@IEAA_NAEAPEAUansi_string@?1??type_case_Z@?$output_processor@DV?$string_output_adapter@D@__crt_stdio_output@@V?$format_validation_base@DV?$string_output_adapter@D@__crt_stdio_output@@@2@@1@AEAA_NXZ@@Z 0000000140022810 f i libucrt:output.obj
 0001:0002182c       ??$extract_argument_from_va_list@PEAUansi_string@?1??type_case_Z@?$output_processor@DV?$string_output_adapter@D@__crt_stdio_output@@V?$positional_parameter_base@DV?$string_output_adapter@D@__crt_stdio_output@@@2@@__crt_stdio_output@@AEAA_NXZ@PEAU1?1??234@AEAA_NXZ@@?$positional_parameter_base@DV?$string_output_adapter@D@__crt_stdio_output@@@__crt_stdio_output@@IEAA_NAEAPEAUansi_string@?1??type_case_Z@?$output_processor@DV?$string_output_adapter@D@__crt_stdio_output@@V?$positional_parameter_base@DV?$string_output_adapter@D@__crt_stdio_output@@@2@@1@AEAA_NXZ@@Z 000000014002282c f i libucrt:output.obj
 0001:00021974       ??$extract_argument_from_va_list@PEAUansi_string@?1??type_case_Z@?$output_processor@DV?$string_output_adapter@D@__crt_stdio_output@@V?$positional_parameter_base@DV?$string_output_adapter@D@__crt_stdio_output@@@2@@__crt_stdio_output@@AEAA_NXZ@PEAU1?1??234@AEAA_NXZ@@?$standard_base@DV?$string_output_adapter@D@__crt_stdio_output@@@__crt_stdio_output@@IEAA_NAEAPEAUansi_string@?1??type_case_Z@?$output_processor@DV?$string_output_adapter@D@__crt_stdio_output@@V?$positional_parameter_base@DV?$string_output_adapter@D@__crt_stdio_output@@@2@@1@AEAA_NXZ@@Z 0000000140022974 f i libucrt:output.obj
 0001:00021990       ??$extract_argument_from_va_list@PEAUansi_string@?1??type_case_Z@?$output_processor@DV?$string_output_adapter@D@__crt_stdio_output@@V?$standard_base@DV?$string_output_adapter@D@__crt_stdio_output@@@2@@__crt_stdio_output@@AEAA_NXZ@PEAU1?1??234@AEAA_NXZ@@?$standard_base@DV?$string_output_adapter@D@__crt_stdio_output@@@__crt_stdio_output@@IEAA_NAEAPEAUansi_string@?1??type_case_Z@?$output_processor@DV?$string_output_adapter@D@__crt_stdio_output@@V?$standard_base@DV?$string_output_adapter@D@__crt_stdio_output@@@2@@1@AEAA_NXZ@@Z 0000000140022990 f i libucrt:output.obj
 0001:000219ac       ??$extract_argument_from_va_list@PEAUansi_string@?1??type_case_Z@?$output_processor@_WV?$stream_output_adapter@_W@__crt_stdio_output@@V?$format_validation_base@_WV?$stream_output_adapter@_W@__crt_stdio_output@@@2@@__crt_stdio_output@@AEAA_NXZ@PEAU1?1??234@AEAA_NXZ@@?$standard_base@_WV?$stream_output_adapter@_W@__crt_stdio_output@@@__crt_stdio_output@@IEAA_NAEAPEAUansi_string@?1??type_case_Z@?$output_processor@_WV?$stream_output_adapter@_W@__crt_stdio_output@@V?$format_validation_base@_WV?$stream_output_adapter@_W@__crt_stdio_output@@@2@@1@AEAA_NXZ@@Z 00000001400229ac f i libucrt:output.obj
 0001:000219c8       ??$extract_argument_from_va_list@PEAUansi_string@?1??type_case_Z@?$output_processor@_WV?$stream_output_adapter@_W@__crt_stdio_output@@V?$positional_parameter_base@_WV?$stream_output_adapter@_W@__crt_stdio_output@@@2@@__crt_stdio_output@@AEAA_NXZ@PEAU1?1??234@AEAA_NXZ@@?$positional_parameter_base@_WV?$stream_output_adapter@_W@__crt_stdio_output@@@__crt_stdio_output@@IEAA_NAEAPEAUansi_string@?1??type_case_Z@?$output_processor@_WV?$stream_output_adapter@_W@__crt_stdio_output@@V?$positional_parameter_base@_WV?$stream_output_adapter@_W@__crt_stdio_output@@@2@@1@AEAA_NXZ@@Z 00000001400229c8 f i libucrt:output.obj
 0001:00021b14       ??$extract_argument_from_va_list@PEAUansi_string@?1??type_case_Z@?$output_processor@_WV?$stream_output_adapter@_W@__crt_stdio_output@@V?$positional_parameter_base@_WV?$stream_output_adapter@_W@__crt_stdio_output@@@2@@__crt_stdio_output@@AEAA_NXZ@PEAU1?1??234@AEAA_NXZ@@?$standard_base@_WV?$stream_output_adapter@_W@__crt_stdio_output@@@__crt_stdio_output@@IEAA_NAEAPEAUansi_string@?1??type_case_Z@?$output_processor@_WV?$stream_output_adapter@_W@__crt_stdio_output@@V?$positional_parameter_base@_WV?$stream_output_adapter@_W@__crt_stdio_output@@@2@@1@AEAA_NXZ@@Z 0000000140022b14 f i libucrt:output.obj
 0001:00021b30       ??$extract_argument_from_va_list@PEAUansi_string@?1??type_case_Z@?$output_processor@_WV?$stream_output_adapter@_W@__crt_stdio_output@@V?$standard_base@_WV?$stream_output_adapter@_W@__crt_stdio_output@@@2@@__crt_stdio_output@@AEAA_NXZ@PEAU1?1??234@AEAA_NXZ@@?$standard_base@_WV?$stream_output_adapter@_W@__crt_stdio_output@@@__crt_stdio_output@@IEAA_NAEAPEAUansi_string@?1??type_case_Z@?$output_processor@_WV?$stream_output_adapter@_W@__crt_stdio_output@@V?$standard_base@_WV?$stream_output_adapter@_W@__crt_stdio_output@@@2@@1@AEAA_NXZ@@Z 0000000140022b30 f i libucrt:output.obj
 0001:00021b4c       ??$extract_argument_from_va_list@PEAUansi_string@?1??type_case_Z@?$output_processor@_WV?$string_output_adapter@_W@__crt_stdio_output@@V?$format_validation_base@_WV?$string_output_adapter@_W@__crt_stdio_output@@@2@@__crt_stdio_output@@AEAA_NXZ@PEAU1?1??234@AEAA_NXZ@@?$standard_base@_WV?$string_output_adapter@_W@__crt_stdio_output@@@__crt_stdio_output@@IEAA_NAEAPEAUansi_string@?1??type_case_Z@?$output_processor@_WV?$string_output_adapter@_W@__crt_stdio_output@@V?$format_validation_base@_WV?$string_output_adapter@_W@__crt_stdio_output@@@2@@1@AEAA_NXZ@@Z 0000000140022b4c f i libucrt:output.obj
 0001:00021b68       ??$extract_argument_from_va_list@PEAUansi_string@?1??type_case_Z@?$output_processor@_WV?$string_output_adapter@_W@__crt_stdio_output@@V?$positional_parameter_base@_WV?$string_output_adapter@_W@__crt_stdio_output@@@2@@__crt_stdio_output@@AEAA_NXZ@PEAU1?1??234@AEAA_NXZ@@?$positional_parameter_base@_WV?$string_output_adapter@_W@__crt_stdio_output@@@__crt_stdio_output@@IEAA_NAEAPEAUansi_string@?1??type_case_Z@?$output_processor@_WV?$string_output_adapter@_W@__crt_stdio_output@@V?$positional_parameter_base@_WV?$string_output_adapter@_W@__crt_stdio_output@@@2@@1@AEAA_NXZ@@Z 0000000140022b68 f i libucrt:output.obj
 0001:00021cb4       ??$extract_argument_from_va_list@PEAUansi_string@?1??type_case_Z@?$output_processor@_WV?$string_output_adapter@_W@__crt_stdio_output@@V?$positional_parameter_base@_WV?$string_output_adapter@_W@__crt_stdio_output@@@2@@__crt_stdio_output@@AEAA_NXZ@PEAU1?1??234@AEAA_NXZ@@?$standard_base@_WV?$string_output_adapter@_W@__crt_stdio_output@@@__crt_stdio_output@@IEAA_NAEAPEAUansi_string@?1??type_case_Z@?$output_processor@_WV?$string_output_adapter@_W@__crt_stdio_output@@V?$positional_parameter_base@_WV?$string_output_adapter@_W@__crt_stdio_output@@@2@@1@AEAA_NXZ@@Z 0000000140022cb4 f i libucrt:output.obj
 0001:00021cd0       ??$extract_argument_from_va_list@PEAUansi_string@?1??type_case_Z@?$output_processor@_WV?$string_output_adapter@_W@__crt_stdio_output@@V?$standard_base@_WV?$string_output_adapter@_W@__crt_stdio_output@@@2@@__crt_stdio_output@@AEAA_NXZ@PEAU1?1??234@AEAA_NXZ@@?$standard_base@_WV?$string_output_adapter@_W@__crt_stdio_output@@@__crt_stdio_output@@IEAA_NAEAPEAUansi_string@?1??type_case_Z@?$output_processor@_WV?$string_output_adapter@_W@__crt_stdio_output@@V?$standard_base@_WV?$string_output_adapter@_W@__crt_stdio_output@@@2@@1@AEAA_NXZ@@Z 0000000140022cd0 f i libucrt:output.obj
 0001:00021cec       ??$extract_argument_from_va_list@PEAXPEAX@?$positional_parameter_base@DV?$stream_output_adapter@D@__crt_stdio_output@@@__crt_stdio_output@@IEAA_NAEAPEAX@Z 0000000140022cec f i libucrt:output.obj
 0001:00021e34       ??$extract_argument_from_va_list@PEAXPEAX@?$positional_parameter_base@DV?$string_output_adapter@D@__crt_stdio_output@@@__crt_stdio_output@@IEAA_NAEAPEAX@Z 0000000140022e34 f i libucrt:output.obj
 0001:00021f7c       ??$extract_argument_from_va_list@PEAXPEAX@?$positional_parameter_base@_WV?$stream_output_adapter@_W@__crt_stdio_output@@@__crt_stdio_output@@IEAA_NAEAPEAX@Z 0000000140022f7c f i libucrt:output.obj
 0001:000220c8       ??$extract_argument_from_va_list@PEAXPEAX@?$positional_parameter_base@_WV?$string_output_adapter@_W@__crt_stdio_output@@@__crt_stdio_output@@IEAA_NAEAPEAX@Z 00000001400230c8 f i libucrt:output.obj
 0001:00022214       ??$extract_argument_from_va_list@PEAXPEAX@?$standard_base@DV?$stream_output_adapter@D@__crt_stdio_output@@@__crt_stdio_output@@IEAA_NAEAPEAX@Z 0000000140023214 f i libucrt:output.obj
 0001:00022230       ??$extract_argument_from_va_list@PEAXPEAX@?$standard_base@DV?$string_output_adapter@D@__crt_stdio_output@@@__crt_stdio_output@@IEAA_NAEAPEAX@Z 0000000140023230 f i libucrt:output.obj
 0001:0002224c       ??$extract_argument_from_va_list@PEAXPEAX@?$standard_base@_WV?$stream_output_adapter@_W@__crt_stdio_output@@@__crt_stdio_output@@IEAA_NAEAPEAX@Z 000000014002324c f i libucrt:output.obj
 0001:00022268       ??$extract_argument_from_va_list@PEAXPEAX@?$standard_base@_WV?$string_output_adapter@_W@__crt_stdio_output@@@__crt_stdio_output@@IEAA_NAEAPEAX@Z 0000000140023268 f i libucrt:output.obj
 0001:00022284       ??$extract_argument_from_va_list@U_CRT_DOUBLE@@U1@@?$positional_parameter_base@DV?$stream_output_adapter@D@__crt_stdio_output@@@__crt_stdio_output@@IEAA_NAEAU_CRT_DOUBLE@@@Z 0000000140023284 f i libucrt:output.obj
 0001:000223d0       ??$extract_argument_from_va_list@U_CRT_DOUBLE@@U1@@?$positional_parameter_base@DV?$string_output_adapter@D@__crt_stdio_output@@@__crt_stdio_output@@IEAA_NAEAU_CRT_DOUBLE@@@Z 00000001400233d0 f i libucrt:output.obj
 0001:0002251c       ??$extract_argument_from_va_list@U_CRT_DOUBLE@@U1@@?$positional_parameter_base@_WV?$stream_output_adapter@_W@__crt_stdio_output@@@__crt_stdio_output@@IEAA_NAEAU_CRT_DOUBLE@@@Z 000000014002351c f i libucrt:output.obj
 0001:00022668       ??$extract_argument_from_va_list@U_CRT_DOUBLE@@U1@@?$positional_parameter_base@_WV?$string_output_adapter@_W@__crt_stdio_output@@@__crt_stdio_output@@IEAA_NAEAU_CRT_DOUBLE@@@Z 0000000140023668 f i libucrt:output.obj
 0001:000227b4       ??$extract_argument_from_va_list@U_CRT_DOUBLE@@U1@@?$standard_base@DV?$stream_output_adapter@D@__crt_stdio_output@@@__crt_stdio_output@@IEAA_NAEAU_CRT_DOUBLE@@@Z 00000001400237b4 f i libucrt:output.obj
 0001:000227d4       ??$extract_argument_from_va_list@U_CRT_DOUBLE@@U1@@?$standard_base@DV?$string_output_adapter@D@__crt_stdio_output@@@__crt_stdio_output@@IEAA_NAEAU_CRT_DOUBLE@@@Z 00000001400237d4 f i libucrt:output.obj
 0001:000227f4       ??$extract_argument_from_va_list@U_CRT_DOUBLE@@U1@@?$standard_base@_WV?$stream_output_adapter@_W@__crt_stdio_output@@@__crt_stdio_output@@IEAA_NAEAU_CRT_DOUBLE@@@Z 00000001400237f4 f i libucrt:output.obj
 0001:00022814       ??$extract_argument_from_va_list@U_CRT_DOUBLE@@U1@@?$standard_base@_WV?$string_output_adapter@_W@__crt_stdio_output@@@__crt_stdio_output@@IEAA_NAEAU_CRT_DOUBLE@@@Z 0000000140023814 f i libucrt:output.obj
 0001:00022834       ??$extract_argument_from_va_list@_J_J@?$positional_parameter_base@DV?$stream_output_adapter@D@__crt_stdio_output@@@__crt_stdio_output@@IEAA_NAEA_J@Z 0000000140023834 f i libucrt:output.obj
 0001:0002297c       ??$extract_argument_from_va_list@_J_J@?$positional_parameter_base@DV?$string_output_adapter@D@__crt_stdio_output@@@__crt_stdio_output@@IEAA_NAEA_J@Z 000000014002397c f i libucrt:output.obj
 0001:00022ac4       ??$extract_argument_from_va_list@_J_J@?$positional_parameter_base@_WV?$stream_output_adapter@_W@__crt_stdio_output@@@__crt_stdio_output@@IEAA_NAEA_J@Z 0000000140023ac4 f i libucrt:output.obj
 0001:00022c10       ??$extract_argument_from_va_list@_J_J@?$positional_parameter_base@_WV?$string_output_adapter@_W@__crt_stdio_output@@@__crt_stdio_output@@IEAA_NAEA_J@Z 0000000140023c10 f i libucrt:output.obj
 0001:00022d5c       ??$extract_argument_from_va_list@_J_J@?$standard_base@DV?$stream_output_adapter@D@__crt_stdio_output@@@__crt_stdio_output@@IEAA_NAEA_J@Z 0000000140023d5c f i libucrt:output.obj
 0001:00022d78       ??$extract_argument_from_va_list@_J_J@?$standard_base@DV?$string_output_adapter@D@__crt_stdio_output@@@__crt_stdio_output@@IEAA_NAEA_J@Z 0000000140023d78 f i libucrt:output.obj
 0001:00022d94       ??$extract_argument_from_va_list@_J_J@?$standard_base@_WV?$stream_output_adapter@_W@__crt_stdio_output@@@__crt_stdio_output@@IEAA_NAEA_J@Z 0000000140023d94 f i libucrt:output.obj
 0001:00022db0       ??$extract_argument_from_va_list@_J_J@?$standard_base@_WV?$string_output_adapter@_W@__crt_stdio_output@@@__crt_stdio_output@@IEAA_NAEA_J@Z 0000000140023db0 f i libucrt:output.obj
 0001:00022dcc       ??$extract_argument_from_va_list@_K_J@?$positional_parameter_base@DV?$stream_output_adapter@D@__crt_stdio_output@@@__crt_stdio_output@@IEAA_NAEA_J@Z 0000000140023dcc f i libucrt:output.obj
 0001:00022f14       ??$extract_argument_from_va_list@_K_J@?$positional_parameter_base@DV?$string_output_adapter@D@__crt_stdio_output@@@__crt_stdio_output@@IEAA_NAEA_J@Z 0000000140023f14 f i libucrt:output.obj
 0001:0002305c       ??$extract_argument_from_va_list@_K_J@?$positional_parameter_base@_WV?$stream_output_adapter@_W@__crt_stdio_output@@@__crt_stdio_output@@IEAA_NAEA_J@Z 000000014002405c f i libucrt:output.obj
 0001:000231a8       ??$extract_argument_from_va_list@_K_J@?$positional_parameter_base@_WV?$string_output_adapter@_W@__crt_stdio_output@@@__crt_stdio_output@@IEAA_NAEA_J@Z 00000001400241a8 f i libucrt:output.obj
 0001:000232f4       ??$extract_argument_from_va_list@_K_J@?$standard_base@DV?$stream_output_adapter@D@__crt_stdio_output@@@__crt_stdio_output@@IEAA_NAEA_J@Z 00000001400242f4 f i libucrt:output.obj
 0001:00023310       ??$extract_argument_from_va_list@_K_J@?$standard_base@DV?$string_output_adapter@D@__crt_stdio_output@@@__crt_stdio_output@@IEAA_NAEA_J@Z 0000000140024310 f i libucrt:output.obj
 0001:0002332c       ??$extract_argument_from_va_list@_K_J@?$standard_base@_WV?$stream_output_adapter@_W@__crt_stdio_output@@@__crt_stdio_output@@IEAA_NAEA_J@Z 000000014002432c f i libucrt:output.obj
 0001:00023348       ??$extract_argument_from_va_list@_K_J@?$standard_base@_WV?$string_output_adapter@_W@__crt_stdio_output@@@__crt_stdio_output@@IEAA_NAEA_J@Z 0000000140024348 f i libucrt:output.obj
 0001:00023364       ??$extract_argument_from_va_list@_W_W@?$positional_parameter_base@DV?$stream_output_adapter@D@__crt_stdio_output@@@__crt_stdio_output@@IEAA_NAEA_W@Z 0000000140024364 f i libucrt:output.obj
 0001:000234b0       ??$extract_argument_from_va_list@_W_W@?$positional_parameter_base@DV?$string_output_adapter@D@__crt_stdio_output@@@__crt_stdio_output@@IEAA_NAEA_W@Z 00000001400244b0 f i libucrt:output.obj
 0001:000235fc       ??$extract_argument_from_va_list@_W_W@?$positional_parameter_base@_WV?$stream_output_adapter@_W@__crt_stdio_output@@@__crt_stdio_output@@IEAA_NAEA_W@Z 00000001400245fc f i libucrt:output.obj
 0001:00023748       ??$extract_argument_from_va_list@_W_W@?$positional_parameter_base@_WV?$string_output_adapter@_W@__crt_stdio_output@@@__crt_stdio_output@@IEAA_NAEA_W@Z 0000000140024748 f i libucrt:output.obj
 0001:00023894       ??$extract_argument_from_va_list@_W_W@?$standard_base@DV?$stream_output_adapter@D@__crt_stdio_output@@@__crt_stdio_output@@IEAA_NAEA_W@Z 0000000140024894 f i libucrt:output.obj
 0001:000238b0       ??$extract_argument_from_va_list@_W_W@?$standard_base@DV?$string_output_adapter@D@__crt_stdio_output@@@__crt_stdio_output@@IEAA_NAEA_W@Z 00000001400248b0 f i libucrt:output.obj
 0001:000238cc       ??$extract_argument_from_va_list@_W_W@?$standard_base@_WV?$stream_output_adapter@_W@__crt_stdio_output@@@__crt_stdio_output@@IEAA_NAEA_W@Z 00000001400248cc f i libucrt:output.obj
 0001:000238e8       ??$extract_argument_from_va_list@_W_W@?$standard_base@_WV?$string_output_adapter@_W@__crt_stdio_output@@@__crt_stdio_output@@IEAA_NAEA_W@Z 00000001400248e8 f i libucrt:output.obj
 0001:00023904       ??$get_parameter_type@D@?$positional_parameter_base@DV?$stream_output_adapter@D@__crt_stdio_output@@@__crt_stdio_output@@CA?AW4parameter_type@01@PEAD@Z 0000000140024904 f i libucrt:output.obj
 0001:0002390c       ??$get_parameter_type@D@?$positional_parameter_base@DV?$string_output_adapter@D@__crt_stdio_output@@@__crt_stdio_output@@CA?AW4parameter_type@01@PEAD@Z 000000014002490c f i libucrt:output.obj
 0001:00023914       ??$get_parameter_type@D@?$positional_parameter_base@_WV?$stream_output_adapter@_W@__crt_stdio_output@@@__crt_stdio_output@@CA?AW4parameter_type@01@PEAD@Z 0000000140024914 f i libucrt:output.obj
 0001:0002391c       ??$get_parameter_type@D@?$positional_parameter_base@_WV?$string_output_adapter@_W@__crt_stdio_output@@@__crt_stdio_output@@CA?AW4parameter_type@01@PEAD@Z 000000014002491c f i libucrt:output.obj
 0001:00023924       ??$get_parameter_type@Uansi_string@?1??type_case_Z@?$output_processor@DV?$stream_output_adapter@D@__crt_stdio_output@@V?$positional_parameter_base@DV?$stream_output_adapter@D@__crt_stdio_output@@@2@@__crt_stdio_output@@AEAA_NXZ@@?$positional_parameter_base@DV?$stream_output_adapter@D@__crt_stdio_output@@@__crt_stdio_output@@CA?AW4parameter_type@01@PEAUansi_string@?1??type_case_Z@?$output_processor@DV?$stream_output_adapter@D@__crt_stdio_output@@V?$positional_parameter_base@DV?$stream_output_adapter@D@__crt_stdio_output@@@2@@1@AEAA_NXZ@@Z 0000000140024924 f i libucrt:output.obj
 0001:0002392c       ??$get_parameter_type@Uansi_string@?1??type_case_Z@?$output_processor@DV?$string_output_adapter@D@__crt_stdio_output@@V?$positional_parameter_base@DV?$string_output_adapter@D@__crt_stdio_output@@@2@@__crt_stdio_output@@AEAA_NXZ@@?$positional_parameter_base@DV?$string_output_adapter@D@__crt_stdio_output@@@__crt_stdio_output@@CA?AW4parameter_type@01@PEAUansi_string@?1??type_case_Z@?$output_processor@DV?$string_output_adapter@D@__crt_stdio_output@@V?$positional_parameter_base@DV?$string_output_adapter@D@__crt_stdio_output@@@2@@1@AEAA_NXZ@@Z 000000014002492c f i libucrt:output.obj
 0001:00023934       ??$get_parameter_type@Uansi_string@?1??type_case_Z@?$output_processor@_WV?$stream_output_adapter@_W@__crt_stdio_output@@V?$positional_parameter_base@_WV?$stream_output_adapter@_W@__crt_stdio_output@@@2@@__crt_stdio_output@@AEAA_NXZ@@?$positional_parameter_base@_WV?$stream_output_adapter@_W@__crt_stdio_output@@@__crt_stdio_output@@CA?AW4parameter_type@01@PEAUansi_string@?1??type_case_Z@?$output_processor@_WV?$stream_output_adapter@_W@__crt_stdio_output@@V?$positional_parameter_base@_WV?$stream_output_adapter@_W@__crt_stdio_output@@@2@@1@AEAA_NXZ@@Z 0000000140024934 f i libucrt:output.obj
 0001:0002393c       ??$get_parameter_type@Uansi_string@?1??type_case_Z@?$output_processor@_WV?$string_output_adapter@_W@__crt_stdio_output@@V?$positional_parameter_base@_WV?$string_output_adapter@_W@__crt_stdio_output@@@2@@__crt_stdio_output@@AEAA_NXZ@@?$positional_parameter_base@_WV?$string_output_adapter@_W@__crt_stdio_output@@@__crt_stdio_output@@CA?AW4parameter_type@01@PEAUansi_string@?1??type_case_Z@?$output_processor@_WV?$string_output_adapter@_W@__crt_stdio_output@@V?$positional_parameter_base@_WV?$string_output_adapter@_W@__crt_stdio_output@@@2@@1@AEAA_NXZ@@Z 000000014002493c f i libucrt:output.obj
 0001:00023944       ??$get_parameter_type@X@?$positional_parameter_base@DV?$stream_output_adapter@D@__crt_stdio_output@@@__crt_stdio_output@@CA?AW4parameter_type@01@PEAX@Z 0000000140024944 f i libucrt:output.obj
 0001:0002394c       ??$get_parameter_type@X@?$positional_parameter_base@DV?$string_output_adapter@D@__crt_stdio_output@@@__crt_stdio_output@@CA?AW4parameter_type@01@PEAX@Z 000000014002494c f i libucrt:output.obj
 0001:00023954       ??$get_parameter_type@X@?$positional_parameter_base@_WV?$stream_output_adapter@_W@__crt_stdio_output@@@__crt_stdio_output@@CA?AW4parameter_type@01@PEAX@Z 0000000140024954 f i libucrt:output.obj
 0001:0002395c       ??$get_parameter_type@X@?$positional_parameter_base@_WV?$string_output_adapter@_W@__crt_stdio_output@@@__crt_stdio_output@@CA?AW4parameter_type@01@PEAX@Z 000000014002495c f i libucrt:output.obj
 0001:00023964       ??$is_character_specifier@D@?$positional_parameter_base@DV?$stream_output_adapter@D@__crt_stdio_output@@@__crt_stdio_output@@CA_ND@Z 0000000140024964 f i libucrt:output.obj
 0001:00023970       ??$is_character_specifier@D@?$positional_parameter_base@DV?$string_output_adapter@D@__crt_stdio_output@@@__crt_stdio_output@@CA_ND@Z 0000000140024970 f i libucrt:output.obj
 0001:0002397c       ??$is_character_specifier@_W@?$positional_parameter_base@_WV?$stream_output_adapter@_W@__crt_stdio_output@@@__crt_stdio_output@@CA_N_W@Z 000000014002497c f i libucrt:output.obj
 0001:00023990       ??$is_character_specifier@_W@?$positional_parameter_base@_WV?$string_output_adapter@_W@__crt_stdio_output@@@__crt_stdio_output@@CA_N_W@Z 0000000140024990 f i libucrt:output.obj
 0001:000239a4       ??$is_integral_specifier@D@?$positional_parameter_base@DV?$stream_output_adapter@D@__crt_stdio_output@@@__crt_stdio_output@@CA_ND@Z 00000001400249a4 f i libucrt:output.obj
 0001:000239d0       ??$is_integral_specifier@D@?$positional_parameter_base@DV?$string_output_adapter@D@__crt_stdio_output@@@__crt_stdio_output@@CA_ND@Z 00000001400249d0 f i libucrt:output.obj
 0001:000239fc       ??$is_integral_specifier@_W@?$positional_parameter_base@_WV?$stream_output_adapter@_W@__crt_stdio_output@@@__crt_stdio_output@@CA_N_W@Z 00000001400249fc f i libucrt:output.obj
 0001:00023a2c       ??$is_integral_specifier@_W@?$positional_parameter_base@_WV?$string_output_adapter@_W@__crt_stdio_output@@@__crt_stdio_output@@CA_N_W@Z 0000000140024a2c f i libucrt:output.obj
 0001:00023a5c       ??$is_overflow_condition@K@__crt_strtox@@YA_NIK@Z 0000000140024a5c f i libucrt:output.obj
 0001:00023a8c       ??$is_pointer_specifier@D@?$positional_parameter_base@DV?$stream_output_adapter@D@__crt_stdio_output@@@__crt_stdio_output@@CA_ND@Z 0000000140024a8c f i libucrt:output.obj
 0001:00023a94       ??$is_pointer_specifier@D@?$positional_parameter_base@DV?$string_output_adapter@D@__crt_stdio_output@@@__crt_stdio_output@@CA_ND@Z 0000000140024a94 f i libucrt:output.obj
 0001:00023a9c       ??$is_pointer_specifier@_W@?$positional_parameter_base@_WV?$stream_output_adapter@_W@__crt_stdio_output@@@__crt_stdio_output@@CA_N_W@Z 0000000140024a9c f i libucrt:output.obj
 0001:00023aa8       ??$is_pointer_specifier@_W@?$positional_parameter_base@_WV?$string_output_adapter@_W@__crt_stdio_output@@@__crt_stdio_output@@CA_N_W@Z 0000000140024aa8 f i libucrt:output.obj
 0001:00023ab4       ??$is_string_specifier@D@?$positional_parameter_base@DV?$stream_output_adapter@D@__crt_stdio_output@@@__crt_stdio_output@@CA_ND@Z 0000000140024ab4 f i libucrt:output.obj
 0001:00023ac0       ??$is_string_specifier@D@?$positional_parameter_base@DV?$string_output_adapter@D@__crt_stdio_output@@@__crt_stdio_output@@CA_ND@Z 0000000140024ac0 f i libucrt:output.obj
 0001:00023acc       ??$is_string_specifier@_W@?$positional_parameter_base@_WV?$stream_output_adapter@_W@__crt_stdio_output@@@__crt_stdio_output@@CA_N_W@Z 0000000140024acc f i libucrt:output.obj
 0001:00023ae0       ??$is_string_specifier@_W@?$positional_parameter_base@_WV?$string_output_adapter@_W@__crt_stdio_output@@@__crt_stdio_output@@CA_N_W@Z 0000000140024ae0 f i libucrt:output.obj
 0001:00023af4       ??$is_wide_character_specifier@D@__crt_stdio_output@@YA_N_KDW4length_modifier@0@@Z 0000000140024af4 f i libucrt:output.obj
 0001:00023b28       ??$is_wide_character_specifier@_W@__crt_stdio_output@@YA_N_K_WW4length_modifier@0@@Z 0000000140024b28 f i libucrt:output.obj
 0001:00023b78       ??$make_c_string_character_source@DPEAPEAD@__crt_strtox@@YA?AV?$c_string_character_source@D@0@QEBDQEAPEAD@Z 0000000140024b78 f i libucrt:output.obj
 0001:00023b90       ??$make_c_string_character_source@_WPEAPEA_W@__crt_strtox@@YA?AV?$c_string_character_source@_W@0@QEB_WQEAPEA_W@Z 0000000140024b90 f i libucrt:output.obj
 0001:00023ba8       ??$parse_integer@KV?$c_string_character_source@D@__crt_strtox@@$0A@@__crt_strtox@@YAKAEAV__crt_cached_ptd_host@@V?$c_string_character_source@D@0@H_N@Z 0000000140024ba8 f i libucrt:output.obj
 0001:00023f08       ??$parse_integer@KV?$c_string_character_source@_W@__crt_strtox@@$0A@@__crt_strtox@@YAKAEAV__crt_cached_ptd_host@@V?$c_string_character_source@_W@0@H_N@Z 0000000140024f08 f i libucrt:output.obj
 0001:0002485c       ??$peek_va_arg@C@__crt_stdio_output@@YACPEAD@Z 000000014002585c f i libucrt:output.obj
 0001:00024860       ??$peek_va_arg@E@__crt_stdio_output@@YAEPEAD@Z 0000000140025860 f i libucrt:output.obj
 0001:00024864       ??$peek_va_arg@F@__crt_stdio_output@@YAFPEAD@Z 0000000140025864 f i libucrt:output.obj
 0001:00024868       ??$peek_va_arg@G@__crt_stdio_output@@YAGPEAD@Z 0000000140025868 f i libucrt:output.obj
 0001:0002486c       ??$peek_va_arg@H@__crt_stdio_output@@YAHPEAD@Z 000000014002586c f i libucrt:output.obj
 0001:00024870       ??$peek_va_arg@I@__crt_stdio_output@@YAIPEAD@Z 0000000140025870 f i libucrt:output.obj
 0001:00024874       ??$peek_va_arg@PEAD@__crt_stdio_output@@YAPEADPEAD@Z 0000000140025874 f i libucrt:output.obj
 0001:00024878       ??$peek_va_arg@PEAUansi_string@?1??type_case_Z@?$output_processor@DV?$stream_output_adapter@D@__crt_stdio_output@@V?$positional_parameter_base@DV?$stream_output_adapter@D@__crt_stdio_output@@@2@@__crt_stdio_output@@AEAA_NXZ@@__crt_stdio_output@@YAPEAUansi_string@?1??type_case_Z@?$output_processor@DV?$stream_output_adapter@D@__crt_stdio_output@@V?$positional_parameter_base@DV?$stream_output_adapter@D@__crt_stdio_output@@@2@@0@AEAA_NXZ@PEAD@Z 0000000140025878 f i libucrt:output.obj
 0001:0002487c       ??$peek_va_arg@PEAUansi_string@?1??type_case_Z@?$output_processor@DV?$string_output_adapter@D@__crt_stdio_output@@V?$positional_parameter_base@DV?$string_output_adapter@D@__crt_stdio_output@@@2@@__crt_stdio_output@@AEAA_NXZ@@__crt_stdio_output@@YAPEAUansi_string@?1??type_case_Z@?$output_processor@DV?$string_output_adapter@D@__crt_stdio_output@@V?$positional_parameter_base@DV?$string_output_adapter@D@__crt_stdio_output@@@2@@0@AEAA_NXZ@PEAD@Z 000000014002587c f i libucrt:output.obj
 0001:00024880       ??$peek_va_arg@PEAUansi_string@?1??type_case_Z@?$output_processor@_WV?$stream_output_adapter@_W@__crt_stdio_output@@V?$positional_parameter_base@_WV?$stream_output_adapter@_W@__crt_stdio_output@@@2@@__crt_stdio_output@@AEAA_NXZ@@__crt_stdio_output@@YAPEAUansi_string@?1??type_case_Z@?$output_processor@_WV?$stream_output_adapter@_W@__crt_stdio_output@@V?$positional_parameter_base@_WV?$stream_output_adapter@_W@__crt_stdio_output@@@2@@0@AEAA_NXZ@PEAD@Z 0000000140025880 f i libucrt:output.obj
 0001:00024884       ??$peek_va_arg@PEAUansi_string@?1??type_case_Z@?$output_processor@_WV?$string_output_adapter@_W@__crt_stdio_output@@V?$positional_parameter_base@_WV?$string_output_adapter@_W@__crt_stdio_output@@@2@@__crt_stdio_output@@AEAA_NXZ@@__crt_stdio_output@@YAPEAUansi_string@?1??type_case_Z@?$output_processor@_WV?$string_output_adapter@_W@__crt_stdio_output@@V?$positional_parameter_base@_WV?$string_output_adapter@_W@__crt_stdio_output@@@2@@0@AEAA_NXZ@PEAD@Z 0000000140025884 f i libucrt:output.obj
 0001:00024888       ??$peek_va_arg@PEAX@__crt_stdio_output@@YAPEAXPEAD@Z 0000000140025888 f i libucrt:output.obj
 0001:0002488c       ??$peek_va_arg@U_CRT_DOUBLE@@@__crt_stdio_output@@YA?AU_CRT_DOUBLE@@PEAD@Z 000000014002588c f i libucrt:output.obj
 0001:00024890       ??$peek_va_arg@_J@__crt_stdio_output@@YA_JPEAD@Z 0000000140025890 f i libucrt:output.obj
 0001:00024894       ??$peek_va_arg@_K@__crt_stdio_output@@YA_KPEAD@Z 0000000140025894 f i libucrt:output.obj
 0001:00024898       ??$peek_va_arg@_W@__crt_stdio_output@@YA_WPEAD@Z 0000000140025898 f i libucrt:output.obj
 0001:0002489c       ??$puttc_nolock_internal@AEBDPEAU_iobuf@@AEAV__crt_cached_ptd_host@@@?$__crt_char_traits@D@@SAHAEBD$$QEAPEAU_iobuf@@AEAV__crt_cached_ptd_host@@@Z 000000014002589c f i libucrt:output.obj
 0001:000248ac       ??$puttc_nolock_internal@AEB_WPEAU_iobuf@@AEAV__crt_cached_ptd_host@@@?$__crt_char_traits@_W@@SAGAEB_W$$QEAPEAU_iobuf@@AEAV__crt_cached_ptd_host@@@Z 00000001400258ac f i libucrt:output.obj
 0001:000248bc       ??$read_va_arg@C@__crt_stdio_output@@YACAEAPEAD@Z 00000001400258bc f i libucrt:output.obj
 0001:000248cc       ??$read_va_arg@E@__crt_stdio_output@@YAEAEAPEAD@Z 00000001400258cc f i libucrt:output.obj
 0001:000248dc       ??$read_va_arg@F@__crt_stdio_output@@YAFAEAPEAD@Z 00000001400258dc f i libucrt:output.obj
 0001:000248f0       ??$read_va_arg@G@__crt_stdio_output@@YAGAEAPEAD@Z 00000001400258f0 f i libucrt:output.obj
 0001:00024904       ??$read_va_arg@H@__crt_stdio_output@@YAHAEAPEAD@Z 0000000140025904 f i libucrt:output.obj
 0001:00024914       ??$read_va_arg@I@__crt_stdio_output@@YAIAEAPEAD@Z 0000000140025914 f i libucrt:output.obj
 0001:00024924       ??$read_va_arg@PEAD@__crt_stdio_output@@YAPEADAEAPEAD@Z 0000000140025924 f i libucrt:output.obj
 0001:00024938       ??$read_va_arg@PEAUansi_string@?1??type_case_Z@?$output_processor@DV?$stream_output_adapter@D@__crt_stdio_output@@V?$format_validation_base@DV?$stream_output_adapter@D@__crt_stdio_output@@@2@@__crt_stdio_output@@AEAA_NXZ@@__crt_stdio_output@@YAPEAUansi_string@?1??type_case_Z@?$output_processor@DV?$stream_output_adapter@D@__crt_stdio_output@@V?$format_validation_base@DV?$stream_output_adapter@D@__crt_stdio_output@@@2@@0@AEAA_NXZ@AEAPEAD@Z 0000000140025938 f i libucrt:output.obj
 0001:0002494c       ??$read_va_arg@PEAUansi_string@?1??type_case_Z@?$output_processor@DV?$stream_output_adapter@D@__crt_stdio_output@@V?$positional_parameter_base@DV?$stream_output_adapter@D@__crt_stdio_output@@@2@@__crt_stdio_output@@AEAA_NXZ@@__crt_stdio_output@@YAPEAUansi_string@?1??type_case_Z@?$output_processor@DV?$stream_output_adapter@D@__crt_stdio_output@@V?$positional_parameter_base@DV?$stream_output_adapter@D@__crt_stdio_output@@@2@@0@AEAA_NXZ@AEAPEAD@Z 000000014002594c f i libucrt:output.obj
 0001:00024960       ??$read_va_arg@PEAUansi_string@?1??type_case_Z@?$output_processor@DV?$stream_output_adapter@D@__crt_stdio_output@@V?$standard_base@DV?$stream_output_adapter@D@__crt_stdio_output@@@2@@__crt_stdio_output@@AEAA_NXZ@@__crt_stdio_output@@YAPEAUansi_string@?1??type_case_Z@?$output_processor@DV?$stream_output_adapter@D@__crt_stdio_output@@V?$standard_base@DV?$stream_output_adapter@D@__crt_stdio_output@@@2@@0@AEAA_NXZ@AEAPEAD@Z 0000000140025960 f i libucrt:output.obj
 0001:00024974       ??$read_va_arg@PEAUansi_string@?1??type_case_Z@?$output_processor@DV?$string_output_adapter@D@__crt_stdio_output@@V?$format_validation_base@DV?$string_output_adapter@D@__crt_stdio_output@@@2@@__crt_stdio_output@@AEAA_NXZ@@__crt_stdio_output@@YAPEAUansi_string@?1??type_case_Z@?$output_processor@DV?$string_output_adapter@D@__crt_stdio_output@@V?$format_validation_base@DV?$string_output_adapter@D@__crt_stdio_output@@@2@@0@AEAA_NXZ@AEAPEAD@Z 0000000140025974 f i libucrt:output.obj
 0001:00024988       ??$read_va_arg@PEAUansi_string@?1??type_case_Z@?$output_processor@DV?$string_output_adapter@D@__crt_stdio_output@@V?$positional_parameter_base@DV?$string_output_adapter@D@__crt_stdio_output@@@2@@__crt_stdio_output@@AEAA_NXZ@@__crt_stdio_output@@YAPEAUansi_string@?1??type_case_Z@?$output_processor@DV?$string_output_adapter@D@__crt_stdio_output@@V?$positional_parameter_base@DV?$string_output_adapter@D@__crt_stdio_output@@@2@@0@AEAA_NXZ@AEAPEAD@Z 0000000140025988 f i libucrt:output.obj
 0001:0002499c       ??$read_va_arg@PEAUansi_string@?1??type_case_Z@?$output_processor@DV?$string_output_adapter@D@__crt_stdio_output@@V?$standard_base@DV?$string_output_adapter@D@__crt_stdio_output@@@2@@__crt_stdio_output@@AEAA_NXZ@@__crt_stdio_output@@YAPEAUansi_string@?1??type_case_Z@?$output_processor@DV?$string_output_adapter@D@__crt_stdio_output@@V?$standard_base@DV?$string_output_adapter@D@__crt_stdio_output@@@2@@0@AEAA_NXZ@AEAPEAD@Z 000000014002599c f i libucrt:output.obj
 0001:000249b0       ??$read_va_arg@PEAUansi_string@?1??type_case_Z@?$output_processor@_WV?$stream_output_adapter@_W@__crt_stdio_output@@V?$format_validation_base@_WV?$stream_output_adapter@_W@__crt_stdio_output@@@2@@__crt_stdio_output@@AEAA_NXZ@@__crt_stdio_output@@YAPEAUansi_string@?1??type_case_Z@?$output_processor@_WV?$stream_output_adapter@_W@__crt_stdio_output@@V?$format_validation_base@_WV?$stream_output_adapter@_W@__crt_stdio_output@@@2@@0@AEAA_NXZ@AEAPEAD@Z 00000001400259b0 f i libucrt:output.obj
 0001:000249c4       ??$read_va_arg@PEAUansi_string@?1??type_case_Z@?$output_processor@_WV?$stream_output_adapter@_W@__crt_stdio_output@@V?$positional_parameter_base@_WV?$stream_output_adapter@_W@__crt_stdio_output@@@2@@__crt_stdio_output@@AEAA_NXZ@@__crt_stdio_output@@YAPEAUansi_string@?1??type_case_Z@?$output_processor@_WV?$stream_output_adapter@_W@__crt_stdio_output@@V?$positional_parameter_base@_WV?$stream_output_adapter@_W@__crt_stdio_output@@@2@@0@AEAA_NXZ@AEAPEAD@Z 00000001400259c4 f i libucrt:output.obj
 0001:000249d8       ??$read_va_arg@PEAUansi_string@?1??type_case_Z@?$output_processor@_WV?$stream_output_adapter@_W@__crt_stdio_output@@V?$standard_base@_WV?$stream_output_adapter@_W@__crt_stdio_output@@@2@@__crt_stdio_output@@AEAA_NXZ@@__crt_stdio_output@@YAPEAUansi_string@?1??type_case_Z@?$output_processor@_WV?$stream_output_adapter@_W@__crt_stdio_output@@V?$standard_base@_WV?$stream_output_adapter@_W@__crt_stdio_output@@@2@@0@AEAA_NXZ@AEAPEAD@Z 00000001400259d8 f i libucrt:output.obj
 0001:000249ec       ??$read_va_arg@PEAUansi_string@?1??type_case_Z@?$output_processor@_WV?$string_output_adapter@_W@__crt_stdio_output@@V?$format_validation_base@_WV?$string_output_adapter@_W@__crt_stdio_output@@@2@@__crt_stdio_output@@AEAA_NXZ@@__crt_stdio_output@@YAPEAUansi_string@?1??type_case_Z@?$output_processor@_WV?$string_output_adapter@_W@__crt_stdio_output@@V?$format_validation_base@_WV?$string_output_adapter@_W@__crt_stdio_output@@@2@@0@AEAA_NXZ@AEAPEAD@Z 00000001400259ec f i libucrt:output.obj
 0001:00024a00       ??$read_va_arg@PEAUansi_string@?1??type_case_Z@?$output_processor@_WV?$string_output_adapter@_W@__crt_stdio_output@@V?$positional_parameter_base@_WV?$string_output_adapter@_W@__crt_stdio_output@@@2@@__crt_stdio_output@@AEAA_NXZ@@__crt_stdio_output@@YAPEAUansi_string@?1??type_case_Z@?$output_processor@_WV?$string_output_adapter@_W@__crt_stdio_output@@V?$positional_parameter_base@_WV?$string_output_adapter@_W@__crt_stdio_output@@@2@@0@AEAA_NXZ@AEAPEAD@Z 0000000140025a00 f i libucrt:output.obj
 0001:00024a14       ??$read_va_arg@PEAUansi_string@?1??type_case_Z@?$output_processor@_WV?$string_output_adapter@_W@__crt_stdio_output@@V?$standard_base@_WV?$string_output_adapter@_W@__crt_stdio_output@@@2@@__crt_stdio_output@@AEAA_NXZ@@__crt_stdio_output@@YAPEAUansi_string@?1??type_case_Z@?$output_processor@_WV?$string_output_adapter@_W@__crt_stdio_output@@V?$standard_base@_WV?$string_output_adapter@_W@__crt_stdio_output@@@2@@0@AEAA_NXZ@AEAPEAD@Z 0000000140025a14 f i libucrt:output.obj
 0001:00024a28       ??$read_va_arg@PEAX@__crt_stdio_output@@YAPEAXAEAPEAD@Z 0000000140025a28 f i libucrt:output.obj
 0001:00024a3c       ??$read_va_arg@U_CRT_DOUBLE@@@__crt_stdio_output@@YA?AU_CRT_DOUBLE@@AEAPEAD@Z 0000000140025a3c f i libucrt:output.obj
 0001:00024a50       ??$read_va_arg@_J@__crt_stdio_output@@YA_JAEAPEAD@Z 0000000140025a50 f i libucrt:output.obj
 0001:00024a64       ??$read_va_arg@_K@__crt_stdio_output@@YA_KAEAPEAD@Z 0000000140025a64 f i libucrt:output.obj
 0001:00024a78       ??$read_va_arg@_W@__crt_stdio_output@@YA_WAEAPEAD@Z 0000000140025a78 f i libucrt:output.obj
 0001:00024a8c       ??$scratch_count@D@formatting_buffer@__crt_stdio_output@@QEBA_KXZ 0000000140025a8c f i libucrt:output.obj
 0001:00024ab0       ??$scratch_data@D@formatting_buffer@__crt_stdio_output@@QEAAPEADXZ 0000000140025ab0 f i libucrt:output.obj
 0001:00024adc       ??$type_case_integer@$07@?$output_processor@DV?$stream_output_adapter@D@__crt_stdio_output@@V?$format_validation_base@DV?$stream_output_adapter@D@__crt_stdio_output@@@2@@__crt_stdio_output@@AEAA_N_N@Z 0000000140025adc f i libucrt:output.obj
 0001:00024d60       ??$type_case_integer@$07@?$output_processor@DV?$stream_output_adapter@D@__crt_stdio_output@@V?$positional_parameter_base@DV?$stream_output_adapter@D@__crt_stdio_output@@@2@@__crt_stdio_output@@AEAA_N_N@Z 0000000140025d60 f i libucrt:output.obj
 0001:00025018       ??$type_case_integer@$07@?$output_processor@DV?$stream_output_adapter@D@__crt_stdio_output@@V?$standard_base@DV?$stream_output_adapter@D@__crt_stdio_output@@@2@@__crt_stdio_output@@AEAA_N_N@Z 0000000140026018 f i libucrt:output.obj
 0001:0002529c       ??$type_case_integer@$07@?$output_processor@DV?$string_output_adapter@D@__crt_stdio_output@@V?$format_validation_base@DV?$string_output_adapter@D@__crt_stdio_output@@@2@@__crt_stdio_output@@AEAA_N_N@Z 000000014002629c f i libucrt:output.obj
 0001:00025520       ??$type_case_integer@$07@?$output_processor@DV?$string_output_adapter@D@__crt_stdio_output@@V?$positional_parameter_base@DV?$string_output_adapter@D@__crt_stdio_output@@@2@@__crt_stdio_output@@AEAA_N_N@Z 0000000140026520 f i libucrt:output.obj
 0001:000257d8       ??$type_case_integer@$07@?$output_processor@DV?$string_output_adapter@D@__crt_stdio_output@@V?$standard_base@DV?$string_output_adapter@D@__crt_stdio_output@@@2@@__crt_stdio_output@@AEAA_N_N@Z 00000001400267d8 f i libucrt:output.obj
 0001:00025a5c       ??$type_case_integer@$07@?$output_processor@_WV?$stream_output_adapter@_W@__crt_stdio_output@@V?$format_validation_base@_WV?$stream_output_adapter@_W@__crt_stdio_output@@@2@@__crt_stdio_output@@AEAA_N_N@Z 0000000140026a5c f i libucrt:output.obj
 0001:00025ce8       ??$type_case_integer@$07@?$output_processor@_WV?$stream_output_adapter@_W@__crt_stdio_output@@V?$positional_parameter_base@_WV?$stream_output_adapter@_W@__crt_stdio_output@@@2@@__crt_stdio_output@@AEAA_N_N@Z 0000000140026ce8 f i libucrt:output.obj
 0001:00025fa8       ??$type_case_integer@$07@?$output_processor@_WV?$stream_output_adapter@_W@__crt_stdio_output@@V?$standard_base@_WV?$stream_output_adapter@_W@__crt_stdio_output@@@2@@__crt_stdio_output@@AEAA_N_N@Z 0000000140026fa8 f i libucrt:output.obj
 0001:00026234       ??$type_case_integer@$07@?$output_processor@_WV?$string_output_adapter@_W@__crt_stdio_output@@V?$format_validation_base@_WV?$string_output_adapter@_W@__crt_stdio_output@@@2@@__crt_stdio_output@@AEAA_N_N@Z 0000000140027234 f i libucrt:output.obj
 0001:000264c0       ??$type_case_integer@$07@?$output_processor@_WV?$string_output_adapter@_W@__crt_stdio_output@@V?$positional_parameter_base@_WV?$string_output_adapter@_W@__crt_stdio_output@@@2@@__crt_stdio_output@@AEAA_N_N@Z 00000001400274c0 f i libucrt:output.obj
 0001:00026780       ??$type_case_integer@$07@?$output_processor@_WV?$string_output_adapter@_W@__crt_stdio_output@@V?$standard_base@_WV?$string_output_adapter@_W@__crt_stdio_output@@@2@@__crt_stdio_output@@AEAA_N_N@Z 0000000140027780 f i libucrt:output.obj
 0001:00026a0c       ??$type_case_integer@$09@?$output_processor@DV?$stream_output_adapter@D@__crt_stdio_output@@V?$format_validation_base@DV?$stream_output_adapter@D@__crt_stdio_output@@@2@@__crt_stdio_output@@AEAA_N_N@Z 0000000140027a0c f i libucrt:output.obj
 0001:00026c90       ??$type_case_integer@$09@?$output_processor@DV?$stream_output_adapter@D@__crt_stdio_output@@V?$positional_parameter_base@DV?$stream_output_adapter@D@__crt_stdio_output@@@2@@__crt_stdio_output@@AEAA_N_N@Z 0000000140027c90 f i libucrt:output.obj
 0001:00026f48       ??$type_case_integer@$09@?$output_processor@DV?$stream_output_adapter@D@__crt_stdio_output@@V?$standard_base@DV?$stream_output_adapter@D@__crt_stdio_output@@@2@@__crt_stdio_output@@AEAA_N_N@Z 0000000140027f48 f i libucrt:output.obj
 0001:000271cc       ??$type_case_integer@$09@?$output_processor@DV?$string_output_adapter@D@__crt_stdio_output@@V?$format_validation_base@DV?$string_output_adapter@D@__crt_stdio_output@@@2@@__crt_stdio_output@@AEAA_N_N@Z 00000001400281cc f i libucrt:output.obj
 0001:00027450       ??$type_case_integer@$09@?$output_processor@DV?$string_output_adapter@D@__crt_stdio_output@@V?$positional_parameter_base@DV?$string_output_adapter@D@__crt_stdio_output@@@2@@__crt_stdio_output@@AEAA_N_N@Z 0000000140028450 f i libucrt:output.obj
 0001:00027708       ??$type_case_integer@$09@?$output_processor@DV?$string_output_adapter@D@__crt_stdio_output@@V?$standard_base@DV?$string_output_adapter@D@__crt_stdio_output@@@2@@__crt_stdio_output@@AEAA_N_N@Z 0000000140028708 f i libucrt:output.obj
 0001:0002798c       ??$type_case_integer@$09@?$output_processor@_WV?$stream_output_adapter@_W@__crt_stdio_output@@V?$format_validation_base@_WV?$stream_output_adapter@_W@__crt_stdio_output@@@2@@__crt_stdio_output@@AEAA_N_N@Z 000000014002898c f i libucrt:output.obj
 0001:00027c18       ??$type_case_integer@$09@?$output_processor@_WV?$stream_output_adapter@_W@__crt_stdio_output@@V?$positional_parameter_base@_WV?$stream_output_adapter@_W@__crt_stdio_output@@@2@@__crt_stdio_output@@AEAA_N_N@Z 0000000140028c18 f i libucrt:output.obj
 0001:00027ed8       ??$type_case_integer@$09@?$output_processor@_WV?$stream_output_adapter@_W@__crt_stdio_output@@V?$standard_base@_WV?$stream_output_adapter@_W@__crt_stdio_output@@@2@@__crt_stdio_output@@AEAA_N_N@Z 0000000140028ed8 f i libucrt:output.obj
 0001:00028164       ??$type_case_integer@$09@?$output_processor@_WV?$string_output_adapter@_W@__crt_stdio_output@@V?$format_validation_base@_WV?$string_output_adapter@_W@__crt_stdio_output@@@2@@__crt_stdio_output@@AEAA_N_N@Z 0000000140029164 f i libucrt:output.obj
 0001:000283f0       ??$type_case_integer@$09@?$output_processor@_WV?$string_output_adapter@_W@__crt_stdio_output@@V?$positional_parameter_base@_WV?$string_output_adapter@_W@__crt_stdio_output@@@2@@__crt_stdio_output@@AEAA_N_N@Z 00000001400293f0 f i libucrt:output.obj
 0001:000286b0       ??$type_case_integer@$09@?$output_processor@_WV?$string_output_adapter@_W@__crt_stdio_output@@V?$standard_base@_WV?$string_output_adapter@_W@__crt_stdio_output@@@2@@__crt_stdio_output@@AEAA_N_N@Z 00000001400296b0 f i libucrt:output.obj
 0001:0002893c       ??$type_case_integer@$0BA@@?$output_processor@DV?$stream_output_adapter@D@__crt_stdio_output@@V?$format_validation_base@DV?$stream_output_adapter@D@__crt_stdio_output@@@2@@__crt_stdio_output@@AEAA_N_N@Z 000000014002993c f i libucrt:output.obj
 0001:00028bc0       ??$type_case_integer@$0BA@@?$output_processor@DV?$stream_output_adapter@D@__crt_stdio_output@@V?$positional_parameter_base@DV?$stream_output_adapter@D@__crt_stdio_output@@@2@@__crt_stdio_output@@AEAA_N_N@Z 0000000140029bc0 f i libucrt:output.obj
 0001:00028e78       ??$type_case_integer@$0BA@@?$output_processor@DV?$stream_output_adapter@D@__crt_stdio_output@@V?$standard_base@DV?$stream_output_adapter@D@__crt_stdio_output@@@2@@__crt_stdio_output@@AEAA_N_N@Z 0000000140029e78 f i libucrt:output.obj
 0001:000290fc       ??$type_case_integer@$0BA@@?$output_processor@DV?$string_output_adapter@D@__crt_stdio_output@@V?$format_validation_base@DV?$string_output_adapter@D@__crt_stdio_output@@@2@@__crt_stdio_output@@AEAA_N_N@Z 000000014002a0fc f i libucrt:output.obj
 0001:00029380       ??$type_case_integer@$0BA@@?$output_processor@DV?$string_output_adapter@D@__crt_stdio_output@@V?$positional_parameter_base@DV?$string_output_adapter@D@__crt_stdio_output@@@2@@__crt_stdio_output@@AEAA_N_N@Z 000000014002a380 f i libucrt:output.obj
 0001:00029638       ??$type_case_integer@$0BA@@?$output_processor@DV?$string_output_adapter@D@__crt_stdio_output@@V?$standard_base@DV?$string_output_adapter@D@__crt_stdio_output@@@2@@__crt_stdio_output@@AEAA_N_N@Z 000000014002a638 f i libucrt:output.obj
 0001:000298bc       ??$type_case_integer@$0BA@@?$output_processor@_WV?$stream_output_adapter@_W@__crt_stdio_output@@V?$format_validation_base@_WV?$stream_output_adapter@_W@__crt_stdio_output@@@2@@__crt_stdio_output@@AEAA_N_N@Z 000000014002a8bc f i libucrt:output.obj
 0001:00029b48       ??$type_case_integer@$0BA@@?$output_processor@_WV?$stream_output_adapter@_W@__crt_stdio_output@@V?$positional_parameter_base@_WV?$stream_output_adapter@_W@__crt_stdio_output@@@2@@__crt_stdio_output@@AEAA_N_N@Z 000000014002ab48 f i libucrt:output.obj
 0001:00029e08       ??$type_case_integer@$0BA@@?$output_processor@_WV?$stream_output_adapter@_W@__crt_stdio_output@@V?$standard_base@_WV?$stream_output_adapter@_W@__crt_stdio_output@@@2@@__crt_stdio_output@@AEAA_N_N@Z 000000014002ae08 f i libucrt:output.obj
 0001:0002a094       ??$type_case_integer@$0BA@@?$output_processor@_WV?$string_output_adapter@_W@__crt_stdio_output@@V?$format_validation_base@_WV?$string_output_adapter@_W@__crt_stdio_output@@@2@@__crt_stdio_output@@AEAA_N_N@Z 000000014002b094 f i libucrt:output.obj
 0001:0002a320       ??$type_case_integer@$0BA@@?$output_processor@_WV?$string_output_adapter@_W@__crt_stdio_output@@V?$positional_parameter_base@_WV?$string_output_adapter@_W@__crt_stdio_output@@@2@@__crt_stdio_output@@AEAA_N_N@Z 000000014002b320 f i libucrt:output.obj
 0001:0002a5e0       ??$type_case_integer@$0BA@@?$output_processor@_WV?$string_output_adapter@_W@__crt_stdio_output@@V?$standard_base@_WV?$string_output_adapter@_W@__crt_stdio_output@@@2@@__crt_stdio_output@@AEAA_N_N@Z 000000014002b5e0 f i libucrt:output.obj
 0001:0002a86c       ??$type_case_integer_parse_into_buffer@I$07@?$output_processor@DV?$stream_output_adapter@D@__crt_stdio_output@@V?$format_validation_base@DV?$stream_output_adapter@D@__crt_stdio_output@@@2@@__crt_stdio_output@@AEAAXI_N@Z 000000014002b86c f i libucrt:output.obj
 0001:0002a8f4       ??$type_case_integer_parse_into_buffer@I$07@?$output_processor@DV?$stream_output_adapter@D@__crt_stdio_output@@V?$positional_parameter_base@DV?$stream_output_adapter@D@__crt_stdio_output@@@2@@__crt_stdio_output@@AEAAXI_N@Z 000000014002b8f4 f i libucrt:output.obj
 0001:0002a97c       ??$type_case_integer_parse_into_buffer@I$07@?$output_processor@DV?$stream_output_adapter@D@__crt_stdio_output@@V?$standard_base@DV?$stream_output_adapter@D@__crt_stdio_output@@@2@@__crt_stdio_output@@AEAAXI_N@Z 000000014002b97c f i libucrt:output.obj
 0001:0002aa04       ??$type_case_integer_parse_into_buffer@I$07@?$output_processor@DV?$string_output_adapter@D@__crt_stdio_output@@V?$format_validation_base@DV?$string_output_adapter@D@__crt_stdio_output@@@2@@__crt_stdio_output@@AEAAXI_N@Z 000000014002ba04 f i libucrt:output.obj
 0001:0002aa8c       ??$type_case_integer_parse_into_buffer@I$07@?$output_processor@DV?$string_output_adapter@D@__crt_stdio_output@@V?$positional_parameter_base@DV?$string_output_adapter@D@__crt_stdio_output@@@2@@__crt_stdio_output@@AEAAXI_N@Z 000000014002ba8c f i libucrt:output.obj
 0001:0002ab14       ??$type_case_integer_parse_into_buffer@I$07@?$output_processor@DV?$string_output_adapter@D@__crt_stdio_output@@V?$standard_base@DV?$string_output_adapter@D@__crt_stdio_output@@@2@@__crt_stdio_output@@AEAAXI_N@Z 000000014002bb14 f i libucrt:output.obj
 0001:0002ab9c       ??$type_case_integer_parse_into_buffer@I$07@?$output_processor@_WV?$stream_output_adapter@_W@__crt_stdio_output@@V?$format_validation_base@_WV?$stream_output_adapter@_W@__crt_stdio_output@@@2@@__crt_stdio_output@@AEAAXI_N@Z 000000014002bb9c f i libucrt:output.obj
 0001:0002ac44       ??$type_case_integer_parse_into_buffer@I$07@?$output_processor@_WV?$stream_output_adapter@_W@__crt_stdio_output@@V?$positional_parameter_base@_WV?$stream_output_adapter@_W@__crt_stdio_output@@@2@@__crt_stdio_output@@AEAAXI_N@Z 000000014002bc44 f i libucrt:output.obj
 0001:0002acec       ??$type_case_integer_parse_into_buffer@I$07@?$output_processor@_WV?$stream_output_adapter@_W@__crt_stdio_output@@V?$standard_base@_WV?$stream_output_adapter@_W@__crt_stdio_output@@@2@@__crt_stdio_output@@AEAAXI_N@Z 000000014002bcec f i libucrt:output.obj
 0001:0002ad94       ??$type_case_integer_parse_into_buffer@I$07@?$output_processor@_WV?$string_output_adapter@_W@__crt_stdio_output@@V?$format_validation_base@_WV?$string_output_adapter@_W@__crt_stdio_output@@@2@@__crt_stdio_output@@AEAAXI_N@Z 000000014002bd94 f i libucrt:output.obj
 0001:0002ae3c       ??$type_case_integer_parse_into_buffer@I$07@?$output_processor@_WV?$string_output_adapter@_W@__crt_stdio_output@@V?$positional_parameter_base@_WV?$string_output_adapter@_W@__crt_stdio_output@@@2@@__crt_stdio_output@@AEAAXI_N@Z 000000014002be3c f i libucrt:output.obj
 0001:0002aee4       ??$type_case_integer_parse_into_buffer@I$07@?$output_processor@_WV?$string_output_adapter@_W@__crt_stdio_output@@V?$standard_base@_WV?$string_output_adapter@_W@__crt_stdio_output@@@2@@__crt_stdio_output@@AEAAXI_N@Z 000000014002bee4 f i libucrt:output.obj
 0001:0002af8c       ??$type_case_integer_parse_into_buffer@I$09@?$output_processor@DV?$stream_output_adapter@D@__crt_stdio_output@@V?$format_validation_base@DV?$stream_output_adapter@D@__crt_stdio_output@@@2@@__crt_stdio_output@@AEAAXI_N@Z 000000014002bf8c f i libucrt:output.obj
 0001:0002b060       ??$type_case_integer_parse_into_buffer@I$09@?$output_processor@DV?$stream_output_adapter@D@__crt_stdio_output@@V?$positional_parameter_base@DV?$stream_output_adapter@D@__crt_stdio_output@@@2@@__crt_stdio_output@@AEAAXI_N@Z 000000014002c060 f i libucrt:output.obj
 0001:0002b134       ??$type_case_integer_parse_into_buffer@I$09@?$output_processor@DV?$stream_output_adapter@D@__crt_stdio_output@@V?$standard_base@DV?$stream_output_adapter@D@__crt_stdio_output@@@2@@__crt_stdio_output@@AEAAXI_N@Z 000000014002c134 f i libucrt:output.obj
 0001:0002b208       ??$type_case_integer_parse_into_buffer@I$09@?$output_processor@DV?$string_output_adapter@D@__crt_stdio_output@@V?$format_validation_base@DV?$string_output_adapter@D@__crt_stdio_output@@@2@@__crt_stdio_output@@AEAAXI_N@Z 000000014002c208 f i libucrt:output.obj
 0001:0002b2dc       ??$type_case_integer_parse_into_buffer@I$09@?$output_processor@DV?$string_output_adapter@D@__crt_stdio_output@@V?$positional_parameter_base@DV?$string_output_adapter@D@__crt_stdio_output@@@2@@__crt_stdio_output@@AEAAXI_N@Z 000000014002c2dc f i libucrt:output.obj
 0001:0002b3b0       ??$type_case_integer_parse_into_buffer@I$09@?$output_processor@DV?$string_output_adapter@D@__crt_stdio_output@@V?$standard_base@DV?$string_output_adapter@D@__crt_stdio_output@@@2@@__crt_stdio_output@@AEAAXI_N@Z 000000014002c3b0 f i libucrt:output.obj
 0001:0002b484       ??$type_case_integer_parse_into_buffer@I$09@?$output_processor@_WV?$stream_output_adapter@_W@__crt_stdio_output@@V?$format_validation_base@_WV?$stream_output_adapter@_W@__crt_stdio_output@@@2@@__crt_stdio_output@@AEAAXI_N@Z 000000014002c484 f i libucrt:output.obj
 0001:0002b570       ??$type_case_integer_parse_into_buffer@I$09@?$output_processor@_WV?$stream_output_adapter@_W@__crt_stdio_output@@V?$positional_parameter_base@_WV?$stream_output_adapter@_W@__crt_stdio_output@@@2@@__crt_stdio_output@@AEAAXI_N@Z 000000014002c570 f i libucrt:output.obj
 0001:0002b65c       ??$type_case_integer_parse_into_buffer@I$09@?$output_processor@_WV?$stream_output_adapter@_W@__crt_stdio_output@@V?$standard_base@_WV?$stream_output_adapter@_W@__crt_stdio_output@@@2@@__crt_stdio_output@@AEAAXI_N@Z 000000014002c65c f i libucrt:output.obj
 0001:0002b748       ??$type_case_integer_parse_into_buffer@I$09@?$output_processor@_WV?$string_output_adapter@_W@__crt_stdio_output@@V?$format_validation_base@_WV?$string_output_adapter@_W@__crt_stdio_output@@@2@@__crt_stdio_output@@AEAAXI_N@Z 000000014002c748 f i libucrt:output.obj
 0001:0002b834       ??$type_case_integer_parse_into_buffer@I$09@?$output_processor@_WV?$string_output_adapter@_W@__crt_stdio_output@@V?$positional_parameter_base@_WV?$string_output_adapter@_W@__crt_stdio_output@@@2@@__crt_stdio_output@@AEAAXI_N@Z 000000014002c834 f i libucrt:output.obj
 0001:0002b920       ??$type_case_integer_parse_into_buffer@I$09@?$output_processor@_WV?$string_output_adapter@_W@__crt_stdio_output@@V?$standard_base@_WV?$string_output_adapter@_W@__crt_stdio_output@@@2@@__crt_stdio_output@@AEAAXI_N@Z 000000014002c920 f i libucrt:output.obj
 0001:0002ba0c       ??$type_case_integer_parse_into_buffer@I$0BA@@?$output_processor@DV?$stream_output_adapter@D@__crt_stdio_output@@V?$format_validation_base@DV?$stream_output_adapter@D@__crt_stdio_output@@@2@@__crt_stdio_output@@AEAAXI_N@Z 000000014002ca0c f i libucrt:output.obj
 0001:0002bab4       ??$type_case_integer_parse_into_buffer@I$0BA@@?$output_processor@DV?$stream_output_adapter@D@__crt_stdio_output@@V?$positional_parameter_base@DV?$stream_output_adapter@D@__crt_stdio_output@@@2@@__crt_stdio_output@@AEAAXI_N@Z 000000014002cab4 f i libucrt:output.obj
 0001:0002bb5c       ??$type_case_integer_parse_into_buffer@I$0BA@@?$output_processor@DV?$stream_output_adapter@D@__crt_stdio_output@@V?$standard_base@DV?$stream_output_adapter@D@__crt_stdio_output@@@2@@__crt_stdio_output@@AEAAXI_N@Z 000000014002cb5c f i libucrt:output.obj
 0001:0002bc04       ??$type_case_integer_parse_into_buffer@I$0BA@@?$output_processor@DV?$string_output_adapter@D@__crt_stdio_output@@V?$format_validation_base@DV?$string_output_adapter@D@__crt_stdio_output@@@2@@__crt_stdio_output@@AEAAXI_N@Z 000000014002cc04 f i libucrt:output.obj
 0001:0002bcac       ??$type_case_integer_parse_into_buffer@I$0BA@@?$output_processor@DV?$string_output_adapter@D@__crt_stdio_output@@V?$positional_parameter_base@DV?$string_output_adapter@D@__crt_stdio_output@@@2@@__crt_stdio_output@@AEAAXI_N@Z 000000014002ccac f i libucrt:output.obj
 0001:0002bd54       ??$type_case_integer_parse_into_buffer@I$0BA@@?$output_processor@DV?$string_output_adapter@D@__crt_stdio_output@@V?$standard_base@DV?$string_output_adapter@D@__crt_stdio_output@@@2@@__crt_stdio_output@@AEAAXI_N@Z 000000014002cd54 f i libucrt:output.obj
 0001:0002bdfc       ??$type_case_integer_parse_into_buffer@I$0BA@@?$output_processor@_WV?$stream_output_adapter@_W@__crt_stdio_output@@V?$format_validation_base@_WV?$stream_output_adapter@_W@__crt_stdio_output@@@2@@__crt_stdio_output@@AEAAXI_N@Z 000000014002cdfc f i libucrt:output.obj
 0001:0002bec4       ??$type_case_integer_parse_into_buffer@I$0BA@@?$output_processor@_WV?$stream_output_adapter@_W@__crt_stdio_output@@V?$positional_parameter_base@_WV?$stream_output_adapter@_W@__crt_stdio_output@@@2@@__crt_stdio_output@@AEAAXI_N@Z 000000014002cec4 f i libucrt:output.obj
 0001:0002bf8c       ??$type_case_integer_parse_into_buffer@I$0BA@@?$output_processor@_WV?$stream_output_adapter@_W@__crt_stdio_output@@V?$standard_base@_WV?$stream_output_adapter@_W@__crt_stdio_output@@@2@@__crt_stdio_output@@AEAAXI_N@Z 000000014002cf8c f i libucrt:output.obj
 0001:0002c054       ??$type_case_integer_parse_into_buffer@I$0BA@@?$output_processor@_WV?$string_output_adapter@_W@__crt_stdio_output@@V?$format_validation_base@_WV?$string_output_adapter@_W@__crt_stdio_output@@@2@@__crt_stdio_output@@AEAAXI_N@Z 000000014002d054 f i libucrt:output.obj
 0001:0002c11c       ??$type_case_integer_parse_into_buffer@I$0BA@@?$output_processor@_WV?$string_output_adapter@_W@__crt_stdio_output@@V?$positional_parameter_base@_WV?$string_output_adapter@_W@__crt_stdio_output@@@2@@__crt_stdio_output@@AEAAXI_N@Z 000000014002d11c f i libucrt:output.obj
 0001:0002c1e4       ??$type_case_integer_parse_into_buffer@I$0BA@@?$output_processor@_WV?$string_output_adapter@_W@__crt_stdio_output@@V?$standard_base@_WV?$string_output_adapter@_W@__crt_stdio_output@@@2@@__crt_stdio_output@@AEAAXI_N@Z 000000014002d1e4 f i libucrt:output.obj
 0001:0002c2ac       ??$type_case_integer_parse_into_buffer@_K$07@?$output_processor@DV?$stream_output_adapter@D@__crt_stdio_output@@V?$format_validation_base@DV?$stream_output_adapter@D@__crt_stdio_output@@@2@@__crt_stdio_output@@AEAAX_K_N@Z 000000014002d2ac f i libucrt:output.obj
 0001:0002c334       ??$type_case_integer_parse_into_buffer@_K$07@?$output_processor@DV?$stream_output_adapter@D@__crt_stdio_output@@V?$positional_parameter_base@DV?$stream_output_adapter@D@__crt_stdio_output@@@2@@__crt_stdio_output@@AEAAX_K_N@Z 000000014002d334 f i libucrt:output.obj
 0001:0002c3bc       ??$type_case_integer_parse_into_buffer@_K$07@?$output_processor@DV?$stream_output_adapter@D@__crt_stdio_output@@V?$standard_base@DV?$stream_output_adapter@D@__crt_stdio_output@@@2@@__crt_stdio_output@@AEAAX_K_N@Z 000000014002d3bc f i libucrt:output.obj
 0001:0002c444       ??$type_case_integer_parse_into_buffer@_K$07@?$output_processor@DV?$string_output_adapter@D@__crt_stdio_output@@V?$format_validation_base@DV?$string_output_adapter@D@__crt_stdio_output@@@2@@__crt_stdio_output@@AEAAX_K_N@Z 000000014002d444 f i libucrt:output.obj
 0001:0002c4cc       ??$type_case_integer_parse_into_buffer@_K$07@?$output_processor@DV?$string_output_adapter@D@__crt_stdio_output@@V?$positional_parameter_base@DV?$string_output_adapter@D@__crt_stdio_output@@@2@@__crt_stdio_output@@AEAAX_K_N@Z 000000014002d4cc f i libucrt:output.obj
 0001:0002c554       ??$type_case_integer_parse_into_buffer@_K$07@?$output_processor@DV?$string_output_adapter@D@__crt_stdio_output@@V?$standard_base@DV?$string_output_adapter@D@__crt_stdio_output@@@2@@__crt_stdio_output@@AEAAX_K_N@Z 000000014002d554 f i libucrt:output.obj
 0001:0002c5dc       ??$type_case_integer_parse_into_buffer@_K$07@?$output_processor@_WV?$stream_output_adapter@_W@__crt_stdio_output@@V?$format_validation_base@_WV?$stream_output_adapter@_W@__crt_stdio_output@@@2@@__crt_stdio_output@@AEAAX_K_N@Z 000000014002d5dc f i libucrt:output.obj
 0001:0002c684       ??$type_case_integer_parse_into_buffer@_K$07@?$output_processor@_WV?$stream_output_adapter@_W@__crt_stdio_output@@V?$positional_parameter_base@_WV?$stream_output_adapter@_W@__crt_stdio_output@@@2@@__crt_stdio_output@@AEAAX_K_N@Z 000000014002d684 f i libucrt:output.obj
 0001:0002c72c       ??$type_case_integer_parse_into_buffer@_K$07@?$output_processor@_WV?$stream_output_adapter@_W@__crt_stdio_output@@V?$standard_base@_WV?$stream_output_adapter@_W@__crt_stdio_output@@@2@@__crt_stdio_output@@AEAAX_K_N@Z 000000014002d72c f i libucrt:output.obj
 0001:0002c7d4       ??$type_case_integer_parse_into_buffer@_K$07@?$output_processor@_WV?$string_output_adapter@_W@__crt_stdio_output@@V?$format_validation_base@_WV?$string_output_adapter@_W@__crt_stdio_output@@@2@@__crt_stdio_output@@AEAAX_K_N@Z 000000014002d7d4 f i libucrt:output.obj
 0001:0002c87c       ??$type_case_integer_parse_into_buffer@_K$07@?$output_processor@_WV?$string_output_adapter@_W@__crt_stdio_output@@V?$positional_parameter_base@_WV?$string_output_adapter@_W@__crt_stdio_output@@@2@@__crt_stdio_output@@AEAAX_K_N@Z 000000014002d87c f i libucrt:output.obj
 0001:0002c924       ??$type_case_integer_parse_into_buffer@_K$07@?$output_processor@_WV?$string_output_adapter@_W@__crt_stdio_output@@V?$standard_base@_WV?$string_output_adapter@_W@__crt_stdio_output@@@2@@__crt_stdio_output@@AEAAX_K_N@Z 000000014002d924 f i libucrt:output.obj
 0001:0002c9cc       ??$type_case_integer_parse_into_buffer@_K$09@?$output_processor@DV?$stream_output_adapter@D@__crt_stdio_output@@V?$format_validation_base@DV?$stream_output_adapter@D@__crt_stdio_output@@@2@@__crt_stdio_output@@AEAAX_K_N@Z 000000014002d9cc f i libucrt:output.obj
 0001:0002caa8       ??$type_case_integer_parse_into_buffer@_K$09@?$output_processor@DV?$stream_output_adapter@D@__crt_stdio_output@@V?$positional_parameter_base@DV?$stream_output_adapter@D@__crt_stdio_output@@@2@@__crt_stdio_output@@AEAAX_K_N@Z 000000014002daa8 f i libucrt:output.obj
 0001:0002cb84       ??$type_case_integer_parse_into_buffer@_K$09@?$output_processor@DV?$stream_output_adapter@D@__crt_stdio_output@@V?$standard_base@DV?$stream_output_adapter@D@__crt_stdio_output@@@2@@__crt_stdio_output@@AEAAX_K_N@Z 000000014002db84 f i libucrt:output.obj
 0001:0002cc60       ??$type_case_integer_parse_into_buffer@_K$09@?$output_processor@DV?$string_output_adapter@D@__crt_stdio_output@@V?$format_validation_base@DV?$string_output_adapter@D@__crt_stdio_output@@@2@@__crt_stdio_output@@AEAAX_K_N@Z 000000014002dc60 f i libucrt:output.obj
 0001:0002cd3c       ??$type_case_integer_parse_into_buffer@_K$09@?$output_processor@DV?$string_output_adapter@D@__crt_stdio_output@@V?$positional_parameter_base@DV?$string_output_adapter@D@__crt_stdio_output@@@2@@__crt_stdio_output@@AEAAX_K_N@Z 000000014002dd3c f i libucrt:output.obj
 0001:0002ce18       ??$type_case_integer_parse_into_buffer@_K$09@?$output_processor@DV?$string_output_adapter@D@__crt_stdio_output@@V?$standard_base@DV?$string_output_adapter@D@__crt_stdio_output@@@2@@__crt_stdio_output@@AEAAX_K_N@Z 000000014002de18 f i libucrt:output.obj
 0001:0002cef4       ??$type_case_integer_parse_into_buffer@_K$09@?$output_processor@_WV?$stream_output_adapter@_W@__crt_stdio_output@@V?$format_validation_base@_WV?$stream_output_adapter@_W@__crt_stdio_output@@@2@@__crt_stdio_output@@AEAAX_K_N@Z 000000014002def4 f i libucrt:output.obj
 0001:0002cfe8       ??$type_case_integer_parse_into_buffer@_K$09@?$output_processor@_WV?$stream_output_adapter@_W@__crt_stdio_output@@V?$positional_parameter_base@_WV?$stream_output_adapter@_W@__crt_stdio_output@@@2@@__crt_stdio_output@@AEAAX_K_N@Z 000000014002dfe8 f i libucrt:output.obj
 0001:0002d0dc       ??$type_case_integer_parse_into_buffer@_K$09@?$output_processor@_WV?$stream_output_adapter@_W@__crt_stdio_output@@V?$standard_base@_WV?$stream_output_adapter@_W@__crt_stdio_output@@@2@@__crt_stdio_output@@AEAAX_K_N@Z 000000014002e0dc f i libucrt:output.obj
 0001:0002d1d0       ??$type_case_integer_parse_into_buffer@_K$09@?$output_processor@_WV?$string_output_adapter@_W@__crt_stdio_output@@V?$format_validation_base@_WV?$string_output_adapter@_W@__crt_stdio_output@@@2@@__crt_stdio_output@@AEAAX_K_N@Z 000000014002e1d0 f i libucrt:output.obj
 0001:0002d2c4       ??$type_case_integer_parse_into_buffer@_K$09@?$output_processor@_WV?$string_output_adapter@_W@__crt_stdio_output@@V?$positional_parameter_base@_WV?$string_output_adapter@_W@__crt_stdio_output@@@2@@__crt_stdio_output@@AEAAX_K_N@Z 000000014002e2c4 f i libucrt:output.obj
 0001:0002d3b8       ??$type_case_integer_parse_into_buffer@_K$09@?$output_processor@_WV?$string_output_adapter@_W@__crt_stdio_output@@V?$standard_base@_WV?$string_output_adapter@_W@__crt_stdio_output@@@2@@__crt_stdio_output@@AEAAX_K_N@Z 000000014002e3b8 f i libucrt:output.obj
 0001:0002d4ac       ??$type_case_integer_parse_into_buffer@_K$0BA@@?$output_processor@DV?$stream_output_adapter@D@__crt_stdio_output@@V?$format_validation_base@DV?$stream_output_adapter@D@__crt_stdio_output@@@2@@__crt_stdio_output@@AEAAX_K_N@Z 000000014002e4ac f i libucrt:output.obj
 0001:0002d554       ??$type_case_integer_parse_into_buffer@_K$0BA@@?$output_processor@DV?$stream_output_adapter@D@__crt_stdio_output@@V?$positional_parameter_base@DV?$stream_output_adapter@D@__crt_stdio_output@@@2@@__crt_stdio_output@@AEAAX_K_N@Z 000000014002e554 f i libucrt:output.obj
 0001:0002d5fc       ??$type_case_integer_parse_into_buffer@_K$0BA@@?$output_processor@DV?$stream_output_adapter@D@__crt_stdio_output@@V?$standard_base@DV?$stream_output_adapter@D@__crt_stdio_output@@@2@@__crt_stdio_output@@AEAAX_K_N@Z 000000014002e5fc f i libucrt:output.obj
 0001:0002d6a4       ??$type_case_integer_parse_into_buffer@_K$0BA@@?$output_processor@DV?$string_output_adapter@D@__crt_stdio_output@@V?$format_validation_base@DV?$string_output_adapter@D@__crt_stdio_output@@@2@@__crt_stdio_output@@AEAAX_K_N@Z 000000014002e6a4 f i libucrt:output.obj
 0001:0002d74c       ??$type_case_integer_parse_into_buffer@_K$0BA@@?$output_processor@DV?$string_output_adapter@D@__crt_stdio_output@@V?$positional_parameter_base@DV?$string_output_adapter@D@__crt_stdio_output@@@2@@__crt_stdio_output@@AEAAX_K_N@Z 000000014002e74c f i libucrt:output.obj
 0001:0002d7f4       ??$type_case_integer_parse_into_buffer@_K$0BA@@?$output_processor@DV?$string_output_adapter@D@__crt_stdio_output@@V?$standard_base@DV?$string_output_adapter@D@__crt_stdio_output@@@2@@__crt_stdio_output@@AEAAX_K_N@Z 000000014002e7f4 f i libucrt:output.obj
 0001:0002d89c       ??$type_case_integer_parse_into_buffer@_K$0BA@@?$output_processor@_WV?$stream_output_adapter@_W@__crt_stdio_output@@V?$format_validation_base@_WV?$stream_output_adapter@_W@__crt_stdio_output@@@2@@__crt_stdio_output@@AEAAX_K_N@Z 000000014002e89c f i libucrt:output.obj
 0001:0002d964       ??$type_case_integer_parse_into_buffer@_K$0BA@@?$output_processor@_WV?$stream_output_adapter@_W@__crt_stdio_output@@V?$positional_parameter_base@_WV?$stream_output_adapter@_W@__crt_stdio_output@@@2@@__crt_stdio_output@@AEAAX_K_N@Z 000000014002e964 f i libucrt:output.obj
 0001:0002da2c       ??$type_case_integer_parse_into_buffer@_K$0BA@@?$output_processor@_WV?$stream_output_adapter@_W@__crt_stdio_output@@V?$standard_base@_WV?$stream_output_adapter@_W@__crt_stdio_output@@@2@@__crt_stdio_output@@AEAAX_K_N@Z 000000014002ea2c f i libucrt:output.obj
 0001:0002daf4       ??$type_case_integer_parse_into_buffer@_K$0BA@@?$output_processor@_WV?$string_output_adapter@_W@__crt_stdio_output@@V?$format_validation_base@_WV?$string_output_adapter@_W@__crt_stdio_output@@@2@@__crt_stdio_output@@AEAAX_K_N@Z 000000014002eaf4 f i libucrt:output.obj
 0001:0002dbbc       ??$type_case_integer_parse_into_buffer@_K$0BA@@?$output_processor@_WV?$string_output_adapter@_W@__crt_stdio_output@@V?$positional_parameter_base@_WV?$string_output_adapter@_W@__crt_stdio_output@@@2@@__crt_stdio_output@@AEAAX_K_N@Z 000000014002ebbc f i libucrt:output.obj
 0001:0002dc84       ??$type_case_integer_parse_into_buffer@_K$0BA@@?$output_processor@_WV?$string_output_adapter@_W@__crt_stdio_output@@V?$standard_base@_WV?$string_output_adapter@_W@__crt_stdio_output@@@2@@__crt_stdio_output@@AEAAX_K_N@Z 000000014002ec84 f i libucrt:output.obj
 0001:0002dd4c       ??$write_multiple_characters@V?$stream_output_adapter@D@__crt_stdio_output@@D@__crt_stdio_output@@YAXAEBV?$stream_output_adapter@D@0@DHQEAHAEAV__crt_cached_ptd_host@@@Z 000000014002ed4c f i libucrt:output.obj
 0001:0002de04       ??$write_multiple_characters@V?$stream_output_adapter@_W@__crt_stdio_output@@D@__crt_stdio_output@@YAXAEBV?$stream_output_adapter@_W@0@DHQEAHAEAV__crt_cached_ptd_host@@@Z 000000014002ee04 f i libucrt:output.obj
 0001:0002dec0       ??$write_multiple_characters@V?$string_output_adapter@D@__crt_stdio_output@@D@__crt_stdio_output@@YAXAEBV?$string_output_adapter@D@0@DHQEAHAEAV__crt_cached_ptd_host@@@Z 000000014002eec0 f i libucrt:output.obj
 0001:0002df54       ??$write_multiple_characters@V?$string_output_adapter@_W@__crt_stdio_output@@D@__crt_stdio_output@@YAXAEBV?$string_output_adapter@_W@0@DHQEAHAEAV__crt_cached_ptd_host@@@Z 000000014002ef54 f i libucrt:output.obj
 0001:0002e180       ??0?$c_string_character_source@D@__crt_strtox@@QEAA@QEBDQEAPEBD@Z 000000014002f180 f i libucrt:output.obj
 0001:0002e198       ??0?$c_string_character_source@_W@__crt_strtox@@QEAA@QEB_WQEAPEB_W@Z 000000014002f198 f i libucrt:output.obj
 0001:0002e1b0       ??0?$cached@H@__crt_cached_ptd_host@@QEAA@XZ 000000014002f1b0 f i libucrt:output.obj
 0001:0002e1bc       ??0?$cached@K@__crt_cached_ptd_host@@QEAA@XZ 000000014002f1bc f i libucrt:output.obj
 0001:0002e1c8       ??0?$common_data@D@__crt_stdio_output@@IEAA@AEAV__crt_cached_ptd_host@@@Z 000000014002f1c8 f i libucrt:output.obj
 0001:0002e210       ??0?$common_data@_W@__crt_stdio_output@@IEAA@AEAV__crt_cached_ptd_host@@@Z 000000014002f210 f i libucrt:output.obj
 0001:0002e25c       ??0?$output_adapter_data@DV?$stream_output_adapter@D@__crt_stdio_output@@@__crt_stdio_output@@IEAA@AEBV?$stream_output_adapter@D@1@_KQEBDAEAV__crt_cached_ptd_host@@QEAD@Z 000000014002f25c f i libucrt:output.obj
 0001:0002e2d4       ??0?$output_adapter_data@DV?$string_output_adapter@D@__crt_stdio_output@@@__crt_stdio_output@@IEAA@AEBV?$string_output_adapter@D@1@_KQEBDAEAV__crt_cached_ptd_host@@QEAD@Z 000000014002f2d4 f i libucrt:output.obj
 0001:0002e34c       ??0?$output_adapter_data@_WV?$stream_output_adapter@_W@__crt_stdio_output@@@__crt_stdio_output@@IEAA@AEBV?$stream_output_adapter@_W@1@_KQEB_WAEAV__crt_cached_ptd_host@@QEAD@Z 000000014002f34c f i libucrt:output.obj
 0001:0002e3cc       ??0?$output_adapter_data@_WV?$string_output_adapter@_W@__crt_stdio_output@@@__crt_stdio_output@@IEAA@AEBV?$string_output_adapter@_W@1@_KQEB_WAEAV__crt_cached_ptd_host@@QEAD@Z 000000014002f3cc f i libucrt:output.obj
 0001:0002e44c       ??0?$output_processor@DV?$stream_output_adapter@D@__crt_stdio_output@@V?$format_validation_base@DV?$stream_output_adapter@D@__crt_stdio_output@@@2@@__crt_stdio_output@@QEAA@AEBV?$stream_output_adapter@D@1@_KQEBDAEAV__crt_cached_ptd_host@@QEAD@Z 000000014002f44c f i libucrt:output.obj
 0001:0002e4cc       ??0?$output_processor@DV?$stream_output_adapter@D@__crt_stdio_output@@V?$positional_parameter_base@DV?$stream_output_adapter@D@__crt_stdio_output@@@2@@__crt_stdio_output@@QEAA@AEBV?$stream_output_adapter@D@1@_KQEBDAEAV__crt_cached_ptd_host@@QEAD@Z 000000014002f4cc f i libucrt:output.obj
 0001:0002e574       ??0?$output_processor@DV?$stream_output_adapter@D@__crt_stdio_output@@V?$standard_base@DV?$stream_output_adapter@D@__crt_stdio_output@@@2@@__crt_stdio_output@@QEAA@AEBV?$stream_output_adapter@D@1@_KQEBDAEAV__crt_cached_ptd_host@@QEAD@Z 000000014002f574 f i libucrt:output.obj
 0001:0002e5f4       ??0?$output_processor@DV?$string_output_adapter@D@__crt_stdio_output@@V?$format_validation_base@DV?$string_output_adapter@D@__crt_stdio_output@@@2@@__crt_stdio_output@@QEAA@AEBV?$string_output_adapter@D@1@_KQEBDAEAV__crt_cached_ptd_host@@QEAD@Z 000000014002f5f4 f i libucrt:output.obj
 0001:0002e674       ??0?$output_processor@DV?$string_output_adapter@D@__crt_stdio_output@@V?$positional_parameter_base@DV?$string_output_adapter@D@__crt_stdio_output@@@2@@__crt_stdio_output@@QEAA@AEBV?$string_output_adapter@D@1@_KQEBDAEAV__crt_cached_ptd_host@@QEAD@Z 000000014002f674 f i libucrt:output.obj
 0001:0002e71c       ??0?$output_processor@DV?$string_output_adapter@D@__crt_stdio_output@@V?$standard_base@DV?$string_output_adapter@D@__crt_stdio_output@@@2@@__crt_stdio_output@@QEAA@AEBV?$string_output_adapter@D@1@_KQEBDAEAV__crt_cached_ptd_host@@QEAD@Z 000000014002f71c f i libucrt:output.obj
 0001:0002e79c       ??0?$output_processor@_WV?$stream_output_adapter@_W@__crt_stdio_output@@V?$format_validation_base@_WV?$stream_output_adapter@_W@__crt_stdio_output@@@2@@__crt_stdio_output@@QEAA@AEBV?$stream_output_adapter@_W@1@_KQEB_WAEAV__crt_cached_ptd_host@@QEAD@Z 000000014002f79c f i libucrt:output.obj
 0001:0002e824       ??0?$output_processor@_WV?$stream_output_adapter@_W@__crt_stdio_output@@V?$positional_parameter_base@_WV?$stream_output_adapter@_W@__crt_stdio_output@@@2@@__crt_stdio_output@@QEAA@AEBV?$stream_output_adapter@_W@1@_KQEB_WAEAV__crt_cached_ptd_host@@QEAD@Z 000000014002f824 f i libucrt:output.obj
 0001:0002e8d0       ??0?$output_processor@_WV?$stream_output_adapter@_W@__crt_stdio_output@@V?$standard_base@_WV?$stream_output_adapter@_W@__crt_stdio_output@@@2@@__crt_stdio_output@@QEAA@AEBV?$stream_output_adapter@_W@1@_KQEB_WAEAV__crt_cached_ptd_host@@QEAD@Z 000000014002f8d0 f i libucrt:output.obj
 0001:0002e958       ??0?$output_processor@_WV?$string_output_adapter@_W@__crt_stdio_output@@V?$format_validation_base@_WV?$string_output_adapter@_W@__crt_stdio_output@@@2@@__crt_stdio_output@@QEAA@AEBV?$string_output_adapter@_W@1@_KQEB_WAEAV__crt_cached_ptd_host@@QEAD@Z 000000014002f958 f i libucrt:output.obj
 0001:0002e9e0       ??0?$output_processor@_WV?$string_output_adapter@_W@__crt_stdio_output@@V?$positional_parameter_base@_WV?$string_output_adapter@_W@__crt_stdio_output@@@2@@__crt_stdio_output@@QEAA@AEBV?$string_output_adapter@_W@1@_KQEB_WAEAV__crt_cached_ptd_host@@QEAD@Z 000000014002f9e0 f i libucrt:output.obj
 0001:0002ea8c       ??0?$output_processor@_WV?$string_output_adapter@_W@__crt_stdio_output@@V?$standard_base@_WV?$string_output_adapter@_W@__crt_stdio_output@@@2@@__crt_stdio_output@@QEAA@AEBV?$string_output_adapter@_W@1@_KQEB_WAEAV__crt_cached_ptd_host@@QEAD@Z 000000014002fa8c f i libucrt:output.obj
 0001:0002eb14       ??0?$stream_output_adapter@D@__crt_stdio_output@@QEAA@QEAU_iobuf@@@Z 000000014002fb14 f i libucrt:output.obj
 0001:0002eb1c       ??0?$stream_output_adapter@_W@__crt_stdio_output@@QEAA@QEAU_iobuf@@@Z 000000014002fb1c f i libucrt:output.obj
 0001:0002eb24       ??0?$string_output_adapter@D@__crt_stdio_output@@QEAA@QEAU?$string_output_adapter_context@D@1@@Z 000000014002fb24 f i libucrt:output.obj
 0001:0002eb2c       ??0?$string_output_adapter@_W@__crt_stdio_output@@QEAA@QEAU?$string_output_adapter_context@_W@1@@Z 000000014002fb2c f i libucrt:output.obj
 0001:0002eb34       ??0__acrt_stdio_temporary_buffering_guard@@QEAA@QEAU_iobuf@@AEAV__crt_cached_ptd_host@@@Z 000000014002fb34 f i libucrt:output.obj
 0001:0002eb70       ??0__crt_cached_ptd_host@@QEAA@QEAU__crt_locale_pointers@@@Z 000000014002fb70 f i libucrt:output.obj
 0001:0002ebc8       ??0__crt_scoped_get_last_error_reset@@QEAA@XZ 000000014002fbc8 f i libucrt:output.obj
 0001:0002ebe8       ??0__crt_stdio_stream@@QEAA@QEAU_iobuf@@@Z 000000014002fbe8 f i libucrt:output.obj
 0001:0002ebf0       ??0formatting_buffer@__crt_stdio_output@@QEAA@XZ 000000014002fbf0 f i libucrt:output.obj
 0001:0002ec0c       ??0guard@?$cached@H@__crt_cached_ptd_host@@QEAA@AEAU12@@Z 000000014002fc0c f i libucrt:output.obj
 0001:0002ec24       ??1?$c_string_character_source@D@__crt_strtox@@QEAA@XZ 000000014002fc24 f i libucrt:output.obj
 0001:0002ec38       ??1?$c_string_character_source@_W@__crt_strtox@@QEAA@XZ 000000014002fc38 f i libucrt:output.obj
 0001:0002ec4c       ??1?$common_data@D@__crt_stdio_output@@QEAA@XZ 000000014002fc4c f i libucrt:output.obj
 0001:0002ec78       ??1?$common_data@_W@__crt_stdio_output@@QEAA@XZ 000000014002fc78 f i libucrt:output.obj
 0001:0002eca4       ??1?$format_validation_base@DV?$stream_output_adapter@D@__crt_stdio_output@@@__crt_stdio_output@@QEAA@XZ 000000014002fca4 f i libucrt:output.obj
 0001:0002ecd0       ??1?$format_validation_base@DV?$string_output_adapter@D@__crt_stdio_output@@@__crt_stdio_output@@QEAA@XZ 000000014002fcd0 f i libucrt:output.obj
 0001:0002ecfc       ??1?$format_validation_base@_WV?$stream_output_adapter@_W@__crt_stdio_output@@@__crt_stdio_output@@QEAA@XZ 000000014002fcfc f i libucrt:output.obj
 0001:0002ed28       ??1?$format_validation_base@_WV?$string_output_adapter@_W@__crt_stdio_output@@@__crt_stdio_output@@QEAA@XZ 000000014002fd28 f i libucrt:output.obj
 0001:0002ed54       ??1?$output_adapter_data@DV?$stream_output_adapter@D@__crt_stdio_output@@@__crt_stdio_output@@QEAA@XZ 000000014002fd54 f i libucrt:output.obj
 0001:0002ed80       ??1?$output_adapter_data@DV?$string_output_adapter@D@__crt_stdio_output@@@__crt_stdio_output@@QEAA@XZ 000000014002fd80 f i libucrt:output.obj
 0001:0002edac       ??1?$output_adapter_data@_WV?$stream_output_adapter@_W@__crt_stdio_output@@@__crt_stdio_output@@QEAA@XZ 000000014002fdac f i libucrt:output.obj
 0001:0002edd8       ??1?$output_adapter_data@_WV?$string_output_adapter@_W@__crt_stdio_output@@@__crt_stdio_output@@QEAA@XZ 000000014002fdd8 f i libucrt:output.obj
 0001:0002ee04       ??1?$output_processor@DV?$stream_output_adapter@D@__crt_stdio_output@@V?$format_validation_base@DV?$stream_output_adapter@D@__crt_stdio_output@@@2@@__crt_stdio_output@@QEAA@XZ 000000014002fe04 f i libucrt:output.obj
 0001:0002ee30       ??1?$output_processor@DV?$stream_output_adapter@D@__crt_stdio_output@@V?$positional_parameter_base@DV?$stream_output_adapter@D@__crt_stdio_output@@@2@@__crt_stdio_output@@QEAA@XZ 000000014002fe30 f i libucrt:output.obj
 0001:0002ee5c       ??1?$output_processor@DV?$stream_output_adapter@D@__crt_stdio_output@@V?$standard_base@DV?$stream_output_adapter@D@__crt_stdio_output@@@2@@__crt_stdio_output@@QEAA@XZ 000000014002fe5c f i libucrt:output.obj
 0001:0002ee88       ??1?$output_processor@DV?$string_output_adapter@D@__crt_stdio_output@@V?$format_validation_base@DV?$string_output_adapter@D@__crt_stdio_output@@@2@@__crt_stdio_output@@QEAA@XZ 000000014002fe88 f i libucrt:output.obj
 0001:0002eeb4       ??1?$output_processor@DV?$string_output_adapter@D@__crt_stdio_output@@V?$positional_parameter_base@DV?$string_output_adapter@D@__crt_stdio_output@@@2@@__crt_stdio_output@@QEAA@XZ 000000014002feb4 f i libucrt:output.obj
 0001:0002eee0       ??1?$output_processor@DV?$string_output_adapter@D@__crt_stdio_output@@V?$standard_base@DV?$string_output_adapter@D@__crt_stdio_output@@@2@@__crt_stdio_output@@QEAA@XZ 000000014002fee0 f i libucrt:output.obj
 0001:0002ef0c       ??1?$output_processor@_WV?$stream_output_adapter@_W@__crt_stdio_output@@V?$format_validation_base@_WV?$stream_output_adapter@_W@__crt_stdio_output@@@2@@__crt_stdio_output@@QEAA@XZ 000000014002ff0c f i libucrt:output.obj
 0001:0002ef38       ??1?$output_processor@_WV?$stream_output_adapter@_W@__crt_stdio_output@@V?$positional_parameter_base@_WV?$stream_output_adapter@_W@__crt_stdio_output@@@2@@__crt_stdio_output@@QEAA@XZ 000000014002ff38 f i libucrt:output.obj
 0001:0002ef64       ??1?$output_processor@_WV?$stream_output_adapter@_W@__crt_stdio_output@@V?$standard_base@_WV?$stream_output_adapter@_W@__crt_stdio_output@@@2@@__crt_stdio_output@@QEAA@XZ 000000014002ff64 f i libucrt:output.obj
 0001:0002ef90       ??1?$output_processor@_WV?$string_output_adapter@_W@__crt_stdio_output@@V?$format_validation_base@_WV?$string_output_adapter@_W@__crt_stdio_output@@@2@@__crt_stdio_output@@QEAA@XZ 000000014002ff90 f i libucrt:output.obj
 0001:0002efbc       ??1?$output_processor@_WV?$string_output_adapter@_W@__crt_stdio_output@@V?$positional_parameter_base@_WV?$string_output_adapter@_W@__crt_stdio_output@@@2@@__crt_stdio_output@@QEAA@XZ 000000014002ffbc f i libucrt:output.obj
 0001:0002efe8       ??1?$output_processor@_WV?$string_output_adapter@_W@__crt_stdio_output@@V?$standard_base@_WV?$string_output_adapter@_W@__crt_stdio_output@@@2@@__crt_stdio_output@@QEAA@XZ 000000014002ffe8 f i libucrt:output.obj
 0001:0002f014       ??1?$positional_parameter_base@DV?$stream_output_adapter@D@__crt_stdio_output@@@__crt_stdio_output@@QEAA@XZ 0000000140030014 f i libucrt:output.obj
 0001:0002f040       ??1?$positional_parameter_base@DV?$string_output_adapter@D@__crt_stdio_output@@@__crt_stdio_output@@QEAA@XZ 0000000140030040 f i libucrt:output.obj
 0001:0002f06c       ??1?$positional_parameter_base@_WV?$stream_output_adapter@_W@__crt_stdio_output@@@__crt_stdio_output@@QEAA@XZ 000000014003006c f i libucrt:output.obj
 0001:0002f098       ??1?$positional_parameter_base@_WV?$string_output_adapter@_W@__crt_stdio_output@@@__crt_stdio_output@@QEAA@XZ 0000000140030098 f i libucrt:output.obj
 0001:0002f0c4       ??1?$standard_base@DV?$stream_output_adapter@D@__crt_stdio_output@@@__crt_stdio_output@@QEAA@XZ 00000001400300c4 f i libucrt:output.obj
 0001:0002f0f0       ??1?$standard_base@DV?$string_output_adapter@D@__crt_stdio_output@@@__crt_stdio_output@@QEAA@XZ 00000001400300f0 f i libucrt:output.obj
 0001:0002f11c       ??1?$standard_base@_WV?$stream_output_adapter@_W@__crt_stdio_output@@@__crt_stdio_output@@QEAA@XZ 000000014003011c f i libucrt:output.obj
 0001:0002f148       ??1?$standard_base@_WV?$string_output_adapter@_W@__crt_stdio_output@@@__crt_stdio_output@@QEAA@XZ 0000000140030148 f i libucrt:output.obj
 0001:0002f174       ??1__acrt_stdio_temporary_buffering_guard@@QEAA@XZ 0000000140030174 f i libucrt:output.obj
 0001:0002f190       ??1__crt_cached_ptd_host@@QEAA@XZ 0000000140030190 f i libucrt:output.obj
 0001:0002f1f4       ??1__crt_scoped_get_last_error_reset@@QEAA@XZ 00000001400301f4 f i libucrt:output.obj
 0001:0002f200       ??1formatting_buffer@__crt_stdio_output@@QEAA@XZ 0000000140030200 f i libucrt:output.obj
 0001:0002f22c       ??1guard@?$cached@H@__crt_cached_ptd_host@@QEAA@XZ 000000014003022c f i libucrt:output.obj
 0001:0002f244       ??4?$__crt_unique_heap_ptr@DU__crt_internal_free_policy@@@@QEAAAEAV0@$$QEAV0@@Z 0000000140030244 f i libucrt:output.obj
 0001:0002f288       ??A?$spectre_mitigated_lookup_table@Ustate_transition_pair@__crt_stdio_output@@$0IA@@__crt_stdio_output@@QEBAAEBUstate_transition_pair@1@_K@Z 0000000140030288 f i libucrt:output.obj
 0001:0002f294       ??C__crt_stdio_stream@@QEBAPEAU__crt_stdio_stream_data@@XZ 0000000140030294 f i libucrt:output.obj
 0001:0002fbc8       ?__crt_interlocked_read_32@@YAHPEDH@Z 0000000140030bc8 f i libucrt:output.obj
 0001:0002fbcc       ?adjust_hexit@?$output_processor@DV?$stream_output_adapter@D@__crt_stdio_output@@V?$format_validation_base@DV?$stream_output_adapter@D@__crt_stdio_output@@@2@@__crt_stdio_output@@CADH_N@Z 0000000140030bcc f i libucrt:output.obj
 0001:0002fbdc       ?adjust_hexit@?$output_processor@DV?$stream_output_adapter@D@__crt_stdio_output@@V?$positional_parameter_base@DV?$stream_output_adapter@D@__crt_stdio_output@@@2@@__crt_stdio_output@@CADH_N@Z 0000000140030bdc f i libucrt:output.obj
 0001:0002fbec       ?adjust_hexit@?$output_processor@DV?$stream_output_adapter@D@__crt_stdio_output@@V?$standard_base@DV?$stream_output_adapter@D@__crt_stdio_output@@@2@@__crt_stdio_output@@CADH_N@Z 0000000140030bec f i libucrt:output.obj
 0001:0002fbfc       ?adjust_hexit@?$output_processor@DV?$string_output_adapter@D@__crt_stdio_output@@V?$format_validation_base@DV?$string_output_adapter@D@__crt_stdio_output@@@2@@__crt_stdio_output@@CADH_N@Z 0000000140030bfc f i libucrt:output.obj
 0001:0002fc0c       ?adjust_hexit@?$output_processor@DV?$string_output_adapter@D@__crt_stdio_output@@V?$positional_parameter_base@DV?$string_output_adapter@D@__crt_stdio_output@@@2@@__crt_stdio_output@@CADH_N@Z 0000000140030c0c f i libucrt:output.obj
 0001:0002fc1c       ?adjust_hexit@?$output_processor@DV?$string_output_adapter@D@__crt_stdio_output@@V?$standard_base@DV?$string_output_adapter@D@__crt_stdio_output@@@2@@__crt_stdio_output@@CADH_N@Z 0000000140030c1c f i libucrt:output.obj
 0001:0002fc2c       ?adjust_hexit@?$output_processor@_WV?$stream_output_adapter@_W@__crt_stdio_output@@V?$format_validation_base@_WV?$stream_output_adapter@_W@__crt_stdio_output@@@2@@__crt_stdio_output@@CADH_N@Z 0000000140030c2c f i libucrt:output.obj
 0001:0002fc3c       ?adjust_hexit@?$output_processor@_WV?$stream_output_adapter@_W@__crt_stdio_output@@V?$positional_parameter_base@_WV?$stream_output_adapter@_W@__crt_stdio_output@@@2@@__crt_stdio_output@@CADH_N@Z 0000000140030c3c f i libucrt:output.obj
 0001:0002fc4c       ?adjust_hexit@?$output_processor@_WV?$stream_output_adapter@_W@__crt_stdio_output@@V?$standard_base@_WV?$stream_output_adapter@_W@__crt_stdio_output@@@2@@__crt_stdio_output@@CADH_N@Z 0000000140030c4c f i libucrt:output.obj
 0001:0002fc5c       ?adjust_hexit@?$output_processor@_WV?$string_output_adapter@_W@__crt_stdio_output@@V?$format_validation_base@_WV?$string_output_adapter@_W@__crt_stdio_output@@@2@@__crt_stdio_output@@CADH_N@Z 0000000140030c5c f i libucrt:output.obj
 0001:0002fc6c       ?adjust_hexit@?$output_processor@_WV?$string_output_adapter@_W@__crt_stdio_output@@V?$positional_parameter_base@_WV?$string_output_adapter@_W@__crt_stdio_output@@@2@@__crt_stdio_output@@CADH_N@Z 0000000140030c6c f i libucrt:output.obj
 0001:0002fc7c       ?adjust_hexit@?$output_processor@_WV?$string_output_adapter@_W@__crt_stdio_output@@V?$standard_base@_WV?$string_output_adapter@_W@__crt_stdio_output@@@2@@__crt_stdio_output@@CADH_N@Z 0000000140030c7c f i libucrt:output.obj
 0001:0002fc8c       ?advance_to_next_pass@?$positional_parameter_base@DV?$stream_output_adapter@D@__crt_stdio_output@@@__crt_stdio_output@@IEAA_NXZ 0000000140030c8c f i libucrt:output.obj
 0001:0002fcf4       ?advance_to_next_pass@?$positional_parameter_base@DV?$string_output_adapter@D@__crt_stdio_output@@@__crt_stdio_output@@IEAA_NXZ 0000000140030cf4 f i libucrt:output.obj
 0001:0002fd5c       ?advance_to_next_pass@?$positional_parameter_base@_WV?$stream_output_adapter@_W@__crt_stdio_output@@@__crt_stdio_output@@IEAA_NXZ 0000000140030d5c f i libucrt:output.obj
 0001:0002fdc4       ?advance_to_next_pass@?$positional_parameter_base@_WV?$string_output_adapter@_W@__crt_stdio_output@@@__crt_stdio_output@@IEAA_NXZ 0000000140030dc4 f i libucrt:output.obj
 0001:0002fe2c       ?advance_to_next_pass@?$standard_base@DV?$stream_output_adapter@D@__crt_stdio_output@@@__crt_stdio_output@@IEAA_NXZ 0000000140030e2c f i libucrt:output.obj
 0001:0002fe44       ?advance_to_next_pass@?$standard_base@DV?$string_output_adapter@D@__crt_stdio_output@@@__crt_stdio_output@@IEAA_NXZ 0000000140030e44 f i libucrt:output.obj
 0001:0002fe5c       ?advance_to_next_pass@?$standard_base@_WV?$stream_output_adapter@_W@__crt_stdio_output@@@__crt_stdio_output@@IEAA_NXZ 0000000140030e5c f i libucrt:output.obj
 0001:0002fe74       ?advance_to_next_pass@?$standard_base@_WV?$string_output_adapter@_W@__crt_stdio_output@@@__crt_stdio_output@@IEAA_NXZ 0000000140030e74 f i libucrt:output.obj
 0001:0002fe8c       ?check@?$cached@H@__crt_cached_ptd_host@@QEBA_NH@Z 0000000140030e8c f i libucrt:output.obj
 0001:0002fea0       ?check_synchronize_global_state_index@__crt_cached_ptd_host@@AEAA_KAEBV__crt_scoped_get_last_error_reset@@@Z 0000000140030ea0 f i libucrt:output.obj
 0001:0002fec0       ?check_synchronize_per_thread_data@__crt_cached_ptd_host@@AEAAPEAU__acrt_ptd@@XZ 0000000140030ec0 f i libucrt:output.obj
 0001:0002ff40       ?create_guard@?$cached@H@__crt_cached_ptd_host@@QEAA?AVguard@12@XZ 0000000140030f40 f i libucrt:output.obj
 0001:0002ff58       ?crop_zeroes@__crt_stdio_output@@YAXPEADQEAU__crt_locale_pointers@@@Z 0000000140030f58 f i libucrt:output.obj
 0001:0002ffdc       ?disable@guard@?$cached@H@__crt_cached_ptd_host@@QEAAXXZ 0000000140030fdc f i libucrt:output.obj
 0001:0002ffe4       ?enable@guard@?$cached@H@__crt_cached_ptd_host@@QEAAXXZ 0000000140030fe4 f i libucrt:output.obj
 0001:0002ffec       ?find_next_state@?$output_processor@DV?$stream_output_adapter@D@__crt_stdio_output@@V?$format_validation_base@DV?$stream_output_adapter@D@__crt_stdio_output@@@2@@__crt_stdio_output@@AEBA?AW4state@2@DW432@@Z 0000000140030fec f i libucrt:output.obj
 0001:00030030       ?find_next_state@?$output_processor@DV?$stream_output_adapter@D@__crt_stdio_output@@V?$positional_parameter_base@DV?$stream_output_adapter@D@__crt_stdio_output@@@2@@__crt_stdio_output@@AEBA?AW4state@2@DW432@@Z 0000000140031030 f i libucrt:output.obj
 0001:00030074       ?find_next_state@?$output_processor@DV?$stream_output_adapter@D@__crt_stdio_output@@V?$standard_base@DV?$stream_output_adapter@D@__crt_stdio_output@@@2@@__crt_stdio_output@@AEBA?AW4state@2@DW432@@Z 0000000140031074 f i libucrt:output.obj
 0001:000300b8       ?find_next_state@?$output_processor@DV?$string_output_adapter@D@__crt_stdio_output@@V?$format_validation_base@DV?$string_output_adapter@D@__crt_stdio_output@@@2@@__crt_stdio_output@@AEBA?AW4state@2@DW432@@Z 00000001400310b8 f i libucrt:output.obj
 0001:000300fc       ?find_next_state@?$output_processor@DV?$string_output_adapter@D@__crt_stdio_output@@V?$positional_parameter_base@DV?$string_output_adapter@D@__crt_stdio_output@@@2@@__crt_stdio_output@@AEBA?AW4state@2@DW432@@Z 00000001400310fc f i libucrt:output.obj
 0001:00030140       ?find_next_state@?$output_processor@DV?$string_output_adapter@D@__crt_stdio_output@@V?$standard_base@DV?$string_output_adapter@D@__crt_stdio_output@@@2@@__crt_stdio_output@@AEBA?AW4state@2@DW432@@Z 0000000140031140 f i libucrt:output.obj
 0001:00030184       ?find_next_state@?$output_processor@_WV?$stream_output_adapter@_W@__crt_stdio_output@@V?$format_validation_base@_WV?$stream_output_adapter@_W@__crt_stdio_output@@@2@@__crt_stdio_output@@AEBA?AW4state@2@_WW432@@Z 0000000140031184 f i libucrt:output.obj
 0001:000301d4       ?find_next_state@?$output_processor@_WV?$stream_output_adapter@_W@__crt_stdio_output@@V?$positional_parameter_base@_WV?$stream_output_adapter@_W@__crt_stdio_output@@@2@@__crt_stdio_output@@AEBA?AW4state@2@_WW432@@Z 00000001400311d4 f i libucrt:output.obj
 0001:00030224       ?find_next_state@?$output_processor@_WV?$stream_output_adapter@_W@__crt_stdio_output@@V?$standard_base@_WV?$stream_output_adapter@_W@__crt_stdio_output@@@2@@__crt_stdio_output@@AEBA?AW4state@2@_WW432@@Z 0000000140031224 f i libucrt:output.obj
 0001:00030270       ?find_next_state@?$output_processor@_WV?$string_output_adapter@_W@__crt_stdio_output@@V?$format_validation_base@_WV?$string_output_adapter@_W@__crt_stdio_output@@@2@@__crt_stdio_output@@AEBA?AW4state@2@_WW432@@Z 0000000140031270 f i libucrt:output.obj
 0001:000302c0       ?find_next_state@?$output_processor@_WV?$string_output_adapter@_W@__crt_stdio_output@@V?$positional_parameter_base@_WV?$string_output_adapter@_W@__crt_stdio_output@@@2@@__crt_stdio_output@@AEBA?AW4state@2@_WW432@@Z 00000001400312c0 f i libucrt:output.obj
 0001:00030310       ?find_next_state@?$output_processor@_WV?$string_output_adapter@_W@__crt_stdio_output@@V?$standard_base@_WV?$string_output_adapter@_W@__crt_stdio_output@@@2@@__crt_stdio_output@@AEBA?AW4state@2@_WW432@@Z 0000000140031310 f i libucrt:output.obj
 0001:0003035c       ?force_decimal_point@__crt_stdio_output@@YAXPEADQEAU__crt_locale_pointers@@@Z 000000014003135c f i libucrt:output.obj
 0001:000303e0       ?force_synchronize_global_state_index@__crt_cached_ptd_host@@AEAA_KAEBV__crt_scoped_get_last_error_reset@@@Z 00000001400313e0 f i libucrt:output.obj
 0001:00030400       ?force_synchronize_per_thread_data@__crt_cached_ptd_host@@AEAAPEAU__acrt_ptd@@XZ 0000000140031400 f i libucrt:output.obj
 0001:0003046c       ?get@?$c_string_character_source@D@__crt_strtox@@QEAADXZ 000000014003146c f i libucrt:output.obj
 0001:0003047c       ?get@?$c_string_character_source@_W@__crt_strtox@@QEAA_WXZ 000000014003147c f i libucrt:output.obj
 0001:00030490       ?get_current_state_index@__crt_state_management@@YA_KAEBV__crt_scoped_get_last_error_reset@@@Z 0000000140031490 f i libucrt:output.obj
 0001:000304a0       ?get_errno@__crt_cached_ptd_host@@QEAA@XZ 00000001400314a0 f i libucrt:output.obj
 0001:000304a8       ?get_flags@__crt_stdio_stream@@QEBAJXZ 00000001400314a8 f i libucrt:output.obj
 0001:000304c0       ?get_locale@__crt_cached_ptd_host@@QEAAPEAU__crt_locale_pointers@@XZ 00000001400314c0 f i libucrt:output.obj
 0001:000304f4       ?get_parameter_type@?$positional_parameter_base@DV?$stream_output_adapter@D@__crt_stdio_output@@@__crt_stdio_output@@CA?AW4parameter_type@12@F@Z 00000001400314f4 f i libucrt:output.obj
 0001:000304fc       ?get_parameter_type@?$positional_parameter_base@DV?$stream_output_adapter@D@__crt_stdio_output@@@__crt_stdio_output@@CA?AW4parameter_type@12@G@Z 00000001400314fc f i libucrt:output.obj
 0001:00030504       ?get_parameter_type@?$positional_parameter_base@DV?$stream_output_adapter@D@__crt_stdio_output@@@__crt_stdio_output@@CA?AW4parameter_type@12@H@Z 0000000140031504 f i libucrt:output.obj
 0001:0003050c       ?get_parameter_type@?$positional_parameter_base@DV?$stream_output_adapter@D@__crt_stdio_output@@@__crt_stdio_output@@CA?AW4parameter_type@12@I@Z 000000014003150c f i libucrt:output.obj
 0001:00030514       ?get_parameter_type@?$positional_parameter_base@DV?$stream_output_adapter@D@__crt_stdio_output@@@__crt_stdio_output@@CA?AW4parameter_type@12@U_CRT_DOUBLE@@@Z 0000000140031514 f i libucrt:output.obj
 0001:0003051c       ?get_parameter_type@?$positional_parameter_base@DV?$stream_output_adapter@D@__crt_stdio_output@@@__crt_stdio_output@@CA?AW4parameter_type@12@_J@Z 000000014003151c f i libucrt:output.obj
 0001:00030524       ?get_parameter_type@?$positional_parameter_base@DV?$stream_output_adapter@D@__crt_stdio_output@@@__crt_stdio_output@@CA?AW4parameter_type@12@_K@Z 0000000140031524 f i libucrt:output.obj
 0001:0003052c       ?get_parameter_type@?$positional_parameter_base@DV?$stream_output_adapter@D@__crt_stdio_output@@@__crt_stdio_output@@CA?AW4parameter_type@12@_W@Z 000000014003152c f i libucrt:output.obj
 0001:00030534       ?get_parameter_type@?$positional_parameter_base@DV?$string_output_adapter@D@__crt_stdio_output@@@__crt_stdio_output@@CA?AW4parameter_type@12@F@Z 0000000140031534 f i libucrt:output.obj
 0001:0003053c       ?get_parameter_type@?$positional_parameter_base@DV?$string_output_adapter@D@__crt_stdio_output@@@__crt_stdio_output@@CA?AW4parameter_type@12@G@Z 000000014003153c f i libucrt:output.obj
 0001:00030544       ?get_parameter_type@?$positional_parameter_base@DV?$string_output_adapter@D@__crt_stdio_output@@@__crt_stdio_output@@CA?AW4parameter_type@12@H@Z 0000000140031544 f i libucrt:output.obj
 0001:0003054c       ?get_parameter_type@?$positional_parameter_base@DV?$string_output_adapter@D@__crt_stdio_output@@@__crt_stdio_output@@CA?AW4parameter_type@12@I@Z 000000014003154c f i libucrt:output.obj
 0001:00030554       ?get_parameter_type@?$positional_parameter_base@DV?$string_output_adapter@D@__crt_stdio_output@@@__crt_stdio_output@@CA?AW4parameter_type@12@U_CRT_DOUBLE@@@Z 0000000140031554 f i libucrt:output.obj
 0001:0003055c       ?get_parameter_type@?$positional_parameter_base@DV?$string_output_adapter@D@__crt_stdio_output@@@__crt_stdio_output@@CA?AW4parameter_type@12@_J@Z 000000014003155c f i libucrt:output.obj
 0001:00030564       ?get_parameter_type@?$positional_parameter_base@DV?$string_output_adapter@D@__crt_stdio_output@@@__crt_stdio_output@@CA?AW4parameter_type@12@_K@Z 0000000140031564 f i libucrt:output.obj
 0001:0003056c       ?get_parameter_type@?$positional_parameter_base@DV?$string_output_adapter@D@__crt_stdio_output@@@__crt_stdio_output@@CA?AW4parameter_type@12@_W@Z 000000014003156c f i libucrt:output.obj
 0001:00030574       ?get_parameter_type@?$positional_parameter_base@_WV?$stream_output_adapter@_W@__crt_stdio_output@@@__crt_stdio_output@@CA?AW4parameter_type@12@F@Z 0000000140031574 f i libucrt:output.obj
 0001:0003057c       ?get_parameter_type@?$positional_parameter_base@_WV?$stream_output_adapter@_W@__crt_stdio_output@@@__crt_stdio_output@@CA?AW4parameter_type@12@G@Z 000000014003157c f i libucrt:output.obj
 0001:00030584       ?get_parameter_type@?$positional_parameter_base@_WV?$stream_output_adapter@_W@__crt_stdio_output@@@__crt_stdio_output@@CA?AW4parameter_type@12@H@Z 0000000140031584 f i libucrt:output.obj
 0001:0003058c       ?get_parameter_type@?$positional_parameter_base@_WV?$stream_output_adapter@_W@__crt_stdio_output@@@__crt_stdio_output@@CA?AW4parameter_type@12@I@Z 000000014003158c f i libucrt:output.obj
 0001:00030594       ?get_parameter_type@?$positional_parameter_base@_WV?$stream_output_adapter@_W@__crt_stdio_output@@@__crt_stdio_output@@CA?AW4parameter_type@12@U_CRT_DOUBLE@@@Z 0000000140031594 f i libucrt:output.obj
 0001:0003059c       ?get_parameter_type@?$positional_parameter_base@_WV?$stream_output_adapter@_W@__crt_stdio_output@@@__crt_stdio_output@@CA?AW4parameter_type@12@_J@Z 000000014003159c f i libucrt:output.obj
 0001:000305a4       ?get_parameter_type@?$positional_parameter_base@_WV?$stream_output_adapter@_W@__crt_stdio_output@@@__crt_stdio_output@@CA?AW4parameter_type@12@_K@Z 00000001400315a4 f i libucrt:output.obj
 0001:000305ac       ?get_parameter_type@?$positional_parameter_base@_WV?$stream_output_adapter@_W@__crt_stdio_output@@@__crt_stdio_output@@CA?AW4parameter_type@12@_W@Z 00000001400315ac f i libucrt:output.obj
 0001:000305b4       ?get_parameter_type@?$positional_parameter_base@_WV?$string_output_adapter@_W@__crt_stdio_output@@@__crt_stdio_output@@CA?AW4parameter_type@12@F@Z 00000001400315b4 f i libucrt:output.obj
 0001:000305bc       ?get_parameter_type@?$positional_parameter_base@_WV?$string_output_adapter@_W@__crt_stdio_output@@@__crt_stdio_output@@CA?AW4parameter_type@12@G@Z 00000001400315bc f i libucrt:output.obj
 0001:000305c4       ?get_parameter_type@?$positional_parameter_base@_WV?$string_output_adapter@_W@__crt_stdio_output@@@__crt_stdio_output@@CA?AW4parameter_type@12@H@Z 00000001400315c4 f i libucrt:output.obj
 0001:000305cc       ?get_parameter_type@?$positional_parameter_base@_WV?$string_output_adapter@_W@__crt_stdio_output@@@__crt_stdio_output@@CA?AW4parameter_type@12@I@Z 00000001400315cc f i libucrt:output.obj
 0001:000305d4       ?get_parameter_type@?$positional_parameter_base@_WV?$string_output_adapter@_W@__crt_stdio_output@@@__crt_stdio_output@@CA?AW4parameter_type@12@U_CRT_DOUBLE@@@Z 00000001400315d4 f i libucrt:output.obj
 0001:000305dc       ?get_parameter_type@?$positional_parameter_base@_WV?$string_output_adapter@_W@__crt_stdio_output@@@__crt_stdio_output@@CA?AW4parameter_type@12@_J@Z 00000001400315dc f i libucrt:output.obj
 0001:000305e4       ?get_parameter_type@?$positional_parameter_base@_WV?$string_output_adapter@_W@__crt_stdio_output@@@__crt_stdio_output@@CA?AW4parameter_type@12@_K@Z 00000001400315e4 f i libucrt:output.obj
 0001:000305ec       ?get_parameter_type@?$positional_parameter_base@_WV?$string_output_adapter@_W@__crt_stdio_output@@@__crt_stdio_output@@CA?AW4parameter_type@12@_W@Z 00000001400315ec f i libucrt:output.obj
 0001:00030600       ?get_raw_ptd@__crt_cached_ptd_host@@QEAAPEAU__acrt_ptd@@XZ 0000000140031600 f i libucrt:output.obj
 0001:00030680       ?has_flag@?$output_processor@DV?$stream_output_adapter@D@__crt_stdio_output@@V?$format_validation_base@DV?$stream_output_adapter@D@__crt_stdio_output@@@2@@__crt_stdio_output@@AEBA_NI@Z 0000000140031680 f i libucrt:output.obj
 0001:00030688       ?has_flag@?$output_processor@DV?$stream_output_adapter@D@__crt_stdio_output@@V?$positional_parameter_base@DV?$stream_output_adapter@D@__crt_stdio_output@@@2@@__crt_stdio_output@@AEBA_NI@Z 0000000140031688 f i libucrt:output.obj
 0001:00030690       ?has_flag@?$output_processor@DV?$stream_output_adapter@D@__crt_stdio_output@@V?$standard_base@DV?$stream_output_adapter@D@__crt_stdio_output@@@2@@__crt_stdio_output@@AEBA_NI@Z 0000000140031690 f i libucrt:output.obj
 0001:00030698       ?has_flag@?$output_processor@DV?$string_output_adapter@D@__crt_stdio_output@@V?$format_validation_base@DV?$string_output_adapter@D@__crt_stdio_output@@@2@@__crt_stdio_output@@AEBA_NI@Z 0000000140031698 f i libucrt:output.obj
 0001:000306a0       ?has_flag@?$output_processor@DV?$string_output_adapter@D@__crt_stdio_output@@V?$positional_parameter_base@DV?$string_output_adapter@D@__crt_stdio_output@@@2@@__crt_stdio_output@@AEBA_NI@Z 00000001400316a0 f i libucrt:output.obj
 0001:000306a8       ?has_flag@?$output_processor@DV?$string_output_adapter@D@__crt_stdio_output@@V?$standard_base@DV?$string_output_adapter@D@__crt_stdio_output@@@2@@__crt_stdio_output@@AEBA_NI@Z 00000001400316a8 f i libucrt:output.obj
 0001:000306b0       ?has_flag@?$output_processor@_WV?$stream_output_adapter@_W@__crt_stdio_output@@V?$format_validation_base@_WV?$stream_output_adapter@_W@__crt_stdio_output@@@2@@__crt_stdio_output@@AEBA_NI@Z 00000001400316b0 f i libucrt:output.obj
 0001:000306b8       ?has_flag@?$output_processor@_WV?$stream_output_adapter@_W@__crt_stdio_output@@V?$positional_parameter_base@_WV?$stream_output_adapter@_W@__crt_stdio_output@@@2@@__crt_stdio_output@@AEBA_NI@Z 00000001400316b8 f i libucrt:output.obj
 0001:000306c0       ?has_flag@?$output_processor@_WV?$stream_output_adapter@_W@__crt_stdio_output@@V?$standard_base@_WV?$stream_output_adapter@_W@__crt_stdio_output@@@2@@__crt_stdio_output@@AEBA_NI@Z 00000001400316c0 f i libucrt:output.obj
 0001:000306c8       ?has_flag@?$output_processor@_WV?$string_output_adapter@_W@__crt_stdio_output@@V?$format_validation_base@_WV?$string_output_adapter@_W@__crt_stdio_output@@@2@@__crt_stdio_output@@AEBA_NI@Z 00000001400316c8 f i libucrt:output.obj
 0001:000306d0       ?has_flag@?$output_processor@_WV?$string_output_adapter@_W@__crt_stdio_output@@V?$positional_parameter_base@_WV?$string_output_adapter@_W@__crt_stdio_output@@@2@@__crt_stdio_output@@AEBA_NI@Z 00000001400316d0 f i libucrt:output.obj
 0001:000306d8       ?has_flag@?$output_processor@_WV?$string_output_adapter@_W@__crt_stdio_output@@V?$standard_base@_WV?$string_output_adapter@_W@__crt_stdio_output@@@2@@__crt_stdio_output@@AEBA_NI@Z 00000001400316d8 f i libucrt:output.obj
 0001:000306e0       ?is_positional_parameter_reappearance_consistent@?$positional_parameter_base@DV?$stream_output_adapter@D@__crt_stdio_output@@@__crt_stdio_output@@AEAA_NAEBUparameter_data@12@W4parameter_type@12@DW4length_modifier@2@@Z 00000001400316e0 f i libucrt:output.obj
 0001:000309a4       ?is_positional_parameter_reappearance_consistent@?$positional_parameter_base@DV?$string_output_adapter@D@__crt_stdio_output@@@__crt_stdio_output@@AEAA_NAEBUparameter_data@12@W4parameter_type@12@DW4length_modifier@2@@Z 00000001400319a4 f i libucrt:output.obj
 0001:00030c68       ?is_positional_parameter_reappearance_consistent@?$positional_parameter_base@_WV?$stream_output_adapter@_W@__crt_stdio_output@@@__crt_stdio_output@@AEAA_NAEBUparameter_data@12@W4parameter_type@12@_WW4length_modifier@2@@Z 0000000140031c68 f i libucrt:output.obj
 0001:00030eec       ?is_positional_parameter_reappearance_consistent@?$positional_parameter_base@_WV?$string_output_adapter@_W@__crt_stdio_output@@@__crt_stdio_output@@AEAA_NAEBUparameter_data@12@W4parameter_type@12@_WW4length_modifier@2@@Z 0000000140031eec f i libucrt:output.obj
 0001:00031170       ?is_string_backed@__crt_stdio_stream@@QEBA_NXZ 0000000140032170 f i libucrt:output.obj
 0001:00031180       ?maximum_signed_value@__crt_strtox@@YAJK@Z 0000000140032180 f i libucrt:output.obj
 0001:00031188       ?minimum_signed_value@__crt_strtox@@YAJK@Z 0000000140032188 f i libucrt:output.obj
 0001:00031190       ?narrow_null_string@?$output_processor@DV?$stream_output_adapter@D@__crt_stdio_output@@V?$format_validation_base@DV?$stream_output_adapter@D@__crt_stdio_output@@@2@@__crt_stdio_output@@CAPEADXZ 0000000140032190 f i libucrt:output.obj
 0001:0003119c       ?narrow_null_string@?$output_processor@DV?$stream_output_adapter@D@__crt_stdio_output@@V?$positional_parameter_base@DV?$stream_output_adapter@D@__crt_stdio_output@@@2@@__crt_stdio_output@@CAPEADXZ 000000014003219c f i libucrt:output.obj
 0001:000311a8       ?narrow_null_string@?$output_processor@DV?$stream_output_adapter@D@__crt_stdio_output@@V?$standard_base@DV?$stream_output_adapter@D@__crt_stdio_output@@@2@@__crt_stdio_output@@CAPEADXZ 00000001400321a8 f i libucrt:output.obj
 0001:000311b4       ?narrow_null_string@?$output_processor@DV?$string_output_adapter@D@__crt_stdio_output@@V?$format_validation_base@DV?$string_output_adapter@D@__crt_stdio_output@@@2@@__crt_stdio_output@@CAPEADXZ 00000001400321b4 f i libucrt:output.obj
 0001:000311c0       ?narrow_null_string@?$output_processor@DV?$string_output_adapter@D@__crt_stdio_output@@V?$positional_parameter_base@DV?$string_output_adapter@D@__crt_stdio_output@@@2@@__crt_stdio_output@@CAPEADXZ 00000001400321c0 f i libucrt:output.obj
 0001:000311cc       ?narrow_null_string@?$output_processor@DV?$string_output_adapter@D@__crt_stdio_output@@V?$standard_base@DV?$string_output_adapter@D@__crt_stdio_output@@@2@@__crt_stdio_output@@CAPEADXZ 00000001400321cc f i libucrt:output.obj
 0001:000311d8       ?narrow_null_string@?$output_processor@_WV?$stream_output_adapter@_W@__crt_stdio_output@@V?$format_validation_base@_WV?$stream_output_adapter@_W@__crt_stdio_output@@@2@@__crt_stdio_output@@CAPEADXZ 00000001400321d8 f i libucrt:output.obj
 0001:000311e4       ?narrow_null_string@?$output_processor@_WV?$stream_output_adapter@_W@__crt_stdio_output@@V?$positional_parameter_base@_WV?$stream_output_adapter@_W@__crt_stdio_output@@@2@@__crt_stdio_output@@CAPEADXZ 00000001400321e4 f i libucrt:output.obj
 0001:000311f0       ?narrow_null_string@?$output_processor@_WV?$stream_output_adapter@_W@__crt_stdio_output@@V?$standard_base@_WV?$stream_output_adapter@_W@__crt_stdio_output@@@2@@__crt_stdio_output@@CAPEADXZ 00000001400321f0 f i libucrt:output.obj
 0001:000311fc       ?narrow_null_string@?$output_processor@_WV?$string_output_adapter@_W@__crt_stdio_output@@V?$format_validation_base@_WV?$string_output_adapter@_W@__crt_stdio_output@@@2@@__crt_stdio_output@@CAPEADXZ 00000001400321fc f i libucrt:output.obj
 0001:00031208       ?narrow_null_string@?$output_processor@_WV?$string_output_adapter@_W@__crt_stdio_output@@V?$positional_parameter_base@_WV?$string_output_adapter@_W@__crt_stdio_output@@@2@@__crt_stdio_output@@CAPEADXZ 0000000140032208 f i libucrt:output.obj
 0001:00031214       ?narrow_null_string@?$output_processor@_WV?$string_output_adapter@_W@__crt_stdio_output@@V?$standard_base@_WV?$string_output_adapter@_W@__crt_stdio_output@@@2@@__crt_stdio_output@@CAPEADXZ 0000000140032214 f i libucrt:output.obj
 0001:00031220       ?parse_digit@__crt_strtox@@YAID@Z 0000000140032220 f i libucrt:output.obj
 0001:0003125c       ?parse_digit@__crt_strtox@@YAI_W@Z 000000014003225c f i libucrt:output.obj
 0001:00031484       ?parse_int_from_format_string@?$output_processor@DV?$stream_output_adapter@D@__crt_stdio_output@@V?$format_validation_base@DV?$stream_output_adapter@D@__crt_stdio_output@@@2@@__crt_stdio_output@@AEAA_NQEAH@Z 0000000140032484 f i libucrt:output.obj
 0001:00031534       ?parse_int_from_format_string@?$output_processor@DV?$stream_output_adapter@D@__crt_stdio_output@@V?$positional_parameter_base@DV?$stream_output_adapter@D@__crt_stdio_output@@@2@@__crt_stdio_output@@AEAA_NQEAH@Z 0000000140032534 f i libucrt:output.obj
 0001:000315e4       ?parse_int_from_format_string@?$output_processor@DV?$stream_output_adapter@D@__crt_stdio_output@@V?$standard_base@DV?$stream_output_adapter@D@__crt_stdio_output@@@2@@__crt_stdio_output@@AEAA_NQEAH@Z 00000001400325e4 f i libucrt:output.obj
 0001:00031694       ?parse_int_from_format_string@?$output_processor@DV?$string_output_adapter@D@__crt_stdio_output@@V?$format_validation_base@DV?$string_output_adapter@D@__crt_stdio_output@@@2@@__crt_stdio_output@@AEAA_NQEAH@Z 0000000140032694 f i libucrt:output.obj
 0001:00031744       ?parse_int_from_format_string@?$output_processor@DV?$string_output_adapter@D@__crt_stdio_output@@V?$positional_parameter_base@DV?$string_output_adapter@D@__crt_stdio_output@@@2@@__crt_stdio_output@@AEAA_NQEAH@Z 0000000140032744 f i libucrt:output.obj
 0001:000317f4       ?parse_int_from_format_string@?$output_processor@DV?$string_output_adapter@D@__crt_stdio_output@@V?$standard_base@DV?$string_output_adapter@D@__crt_stdio_output@@@2@@__crt_stdio_output@@AEAA_NQEAH@Z 00000001400327f4 f i libucrt:output.obj
 0001:000318a4       ?parse_int_from_format_string@?$output_processor@_WV?$stream_output_adapter@_W@__crt_stdio_output@@V?$format_validation_base@_WV?$stream_output_adapter@_W@__crt_stdio_output@@@2@@__crt_stdio_output@@AEAA_NQEAH@Z 00000001400328a4 f i libucrt:output.obj
 0001:00031958       ?parse_int_from_format_string@?$output_processor@_WV?$stream_output_adapter@_W@__crt_stdio_output@@V?$positional_parameter_base@_WV?$stream_output_adapter@_W@__crt_stdio_output@@@2@@__crt_stdio_output@@AEAA_NQEAH@Z 0000000140032958 f i libucrt:output.obj
 0001:00031a0c       ?parse_int_from_format_string@?$output_processor@_WV?$stream_output_adapter@_W@__crt_stdio_output@@V?$standard_base@_WV?$stream_output_adapter@_W@__crt_stdio_output@@@2@@__crt_stdio_output@@AEAA_NQEAH@Z 0000000140032a0c f i libucrt:output.obj
 0001:00031ac0       ?parse_int_from_format_string@?$output_processor@_WV?$string_output_adapter@_W@__crt_stdio_output@@V?$format_validation_base@_WV?$string_output_adapter@_W@__crt_stdio_output@@@2@@__crt_stdio_output@@AEAA_NQEAH@Z 0000000140032ac0 f i libucrt:output.obj
 0001:00031b74       ?parse_int_from_format_string@?$output_processor@_WV?$string_output_adapter@_W@__crt_stdio_output@@V?$positional_parameter_base@_WV?$string_output_adapter@_W@__crt_stdio_output@@@2@@__crt_stdio_output@@AEAA_NQEAH@Z 0000000140032b74 f i libucrt:output.obj
 0001:00031c28       ?parse_int_from_format_string@?$output_processor@_WV?$string_output_adapter@_W@__crt_stdio_output@@V?$standard_base@_WV?$string_output_adapter@_W@__crt_stdio_output@@@2@@__crt_stdio_output@@AEAA_NQEAH@Z 0000000140032c28 f i libucrt:output.obj
 0001:00031cdc       ?process@?$output_processor@DV?$stream_output_adapter@D@__crt_stdio_output@@V?$format_validation_base@DV?$stream_output_adapter@D@__crt_stdio_output@@@2@@__crt_stdio_output@@QEAAHXZ 0000000140032cdc f i libucrt:output.obj
 0001:00032160       ?process@?$output_processor@DV?$stream_output_adapter@D@__crt_stdio_output@@V?$positional_parameter_base@DV?$stream_output_adapter@D@__crt_stdio_output@@@2@@__crt_stdio_output@@QEAAHXZ 0000000140033160 f i libucrt:output.obj
 0001:000326a0       ?process@?$output_processor@DV?$stream_output_adapter@D@__crt_stdio_output@@V?$standard_base@DV?$stream_output_adapter@D@__crt_stdio_output@@@2@@__crt_stdio_output@@QEAAHXZ 00000001400336a0 f i libucrt:output.obj
 0001:00032b1c       ?process@?$output_processor@DV?$string_output_adapter@D@__crt_stdio_output@@V?$format_validation_base@DV?$string_output_adapter@D@__crt_stdio_output@@@2@@__crt_stdio_output@@QEAAHXZ 0000000140033b1c f i libucrt:output.obj
 0001:00032f80       ?process@?$output_processor@DV?$string_output_adapter@D@__crt_stdio_output@@V?$positional_parameter_base@DV?$string_output_adapter@D@__crt_stdio_output@@@2@@__crt_stdio_output@@QEAAHXZ 0000000140033f80 f i libucrt:output.obj
 0001:0003349c       ?process@?$output_processor@DV?$string_output_adapter@D@__crt_stdio_output@@V?$standard_base@DV?$string_output_adapter@D@__crt_stdio_output@@@2@@__crt_stdio_output@@QEAAHXZ 000000014003449c f i libucrt:output.obj
 0001:000338fc       ?process@?$output_processor@_WV?$stream_output_adapter@_W@__crt_stdio_output@@V?$format_validation_base@_WV?$stream_output_adapter@_W@__crt_stdio_output@@@2@@__crt_stdio_output@@QEAAHXZ 00000001400348fc f i libucrt:output.obj
 0001:00033c90       ?process@?$output_processor@_WV?$stream_output_adapter@_W@__crt_stdio_output@@V?$positional_parameter_base@_WV?$stream_output_adapter@_W@__crt_stdio_output@@@2@@__crt_stdio_output@@QEAAHXZ 0000000140034c90 f i libucrt:output.obj
 0001:000340dc       ?process@?$output_processor@_WV?$stream_output_adapter@_W@__crt_stdio_output@@V?$standard_base@_WV?$stream_output_adapter@_W@__crt_stdio_output@@@2@@__crt_stdio_output@@QEAAHXZ 00000001400350dc f i libucrt:output.obj
 0001:00034460       ?process@?$output_processor@_WV?$string_output_adapter@_W@__crt_stdio_output@@V?$format_validation_base@_WV?$string_output_adapter@_W@__crt_stdio_output@@@2@@__crt_stdio_output@@QEAAHXZ 0000000140035460 f i libucrt:output.obj
 0001:000347ec       ?process@?$output_processor@_WV?$string_output_adapter@_W@__crt_stdio_output@@V?$positional_parameter_base@_WV?$string_output_adapter@_W@__crt_stdio_output@@@2@@__crt_stdio_output@@QEAAHXZ 00000001400357ec f i libucrt:output.obj
 0001:00034c30       ?process@?$output_processor@_WV?$string_output_adapter@_W@__crt_stdio_output@@V?$standard_base@_WV?$string_output_adapter@_W@__crt_stdio_output@@@2@@__crt_stdio_output@@QEAAHXZ 0000000140035c30 f i libucrt:output.obj
 0001:00034fbc       ?public_stream@__crt_stdio_stream@@QEBAPEAU_iobuf@@XZ 0000000140035fbc f i libucrt:output.obj
 0001:00034fc0       ?restore_state@?$c_string_character_source@D@__crt_strtox@@QEAA_NQEBD@Z 0000000140035fc0 f i libucrt:output.obj
 0001:00034fc8       ?restore_state@?$c_string_character_source@_W@__crt_strtox@@QEAA_NQEB_W@Z 0000000140035fc8 f i libucrt:output.obj
 0001:00034fd0       ?save_state@?$c_string_character_source@D@__crt_strtox@@QEBAPEBDXZ 0000000140035fd0 f i libucrt:output.obj
 0001:00034fd4       ?save_state@?$c_string_character_source@_W@__crt_strtox@@QEBAPEB_WXZ 0000000140035fd4 f i libucrt:output.obj
 0001:00034fd8       ?set@?$cached@H@__crt_cached_ptd_host@@QEAAHH@Z 0000000140035fd8 f i libucrt:output.obj
 0001:00034fe4       ?set_flag@?$output_processor@DV?$stream_output_adapter@D@__crt_stdio_output@@V?$format_validation_base@DV?$stream_output_adapter@D@__crt_stdio_output@@@2@@__crt_stdio_output@@AEAAXI@Z 0000000140035fe4 f i libucrt:output.obj
 0001:00034fe8       ?set_flag@?$output_processor@DV?$stream_output_adapter@D@__crt_stdio_output@@V?$positional_parameter_base@DV?$stream_output_adapter@D@__crt_stdio_output@@@2@@__crt_stdio_output@@AEAAXI@Z 0000000140035fe8 f i libucrt:output.obj
 0001:00034fec       ?set_flag@?$output_processor@DV?$stream_output_adapter@D@__crt_stdio_output@@V?$standard_base@DV?$stream_output_adapter@D@__crt_stdio_output@@@2@@__crt_stdio_output@@AEAAXI@Z 0000000140035fec f i libucrt:output.obj
 0001:00034ff0       ?set_flag@?$output_processor@DV?$string_output_adapter@D@__crt_stdio_output@@V?$format_validation_base@DV?$string_output_adapter@D@__crt_stdio_output@@@2@@__crt_stdio_output@@AEAAXI@Z 0000000140035ff0 f i libucrt:output.obj
 0001:00034ff4       ?set_flag@?$output_processor@DV?$string_output_adapter@D@__crt_stdio_output@@V?$positional_parameter_base@DV?$string_output_adapter@D@__crt_stdio_output@@@2@@__crt_stdio_output@@AEAAXI@Z 0000000140035ff4 f i libucrt:output.obj
 0001:00034ff8       ?set_flag@?$output_processor@DV?$string_output_adapter@D@__crt_stdio_output@@V?$standard_base@DV?$string_output_adapter@D@__crt_stdio_output@@@2@@__crt_stdio_output@@AEAAXI@Z 0000000140035ff8 f i libucrt:output.obj
 0001:00034ffc       ?set_flag@?$output_processor@_WV?$stream_output_adapter@_W@__crt_stdio_output@@V?$format_validation_base@_WV?$stream_output_adapter@_W@__crt_stdio_output@@@2@@__crt_stdio_output@@AEAAXI@Z 0000000140035ffc f i libucrt:output.obj
 0001:00035000       ?set_flag@?$output_processor@_WV?$stream_output_adapter@_W@__crt_stdio_output@@V?$positional_parameter_base@_WV?$stream_output_adapter@_W@__crt_stdio_output@@@2@@__crt_stdio_output@@AEAAXI@Z 0000000140036000 f i libucrt:output.obj
 0001:00035004       ?set_flag@?$output_processor@_WV?$stream_output_adapter@_W@__crt_stdio_output@@V?$standard_base@_WV?$stream_output_adapter@_W@__crt_stdio_output@@@2@@__crt_stdio_output@@AEAAXI@Z 0000000140036004 f i libucrt:output.obj
 0001:00035008       ?set_flag@?$output_processor@_WV?$string_output_adapter@_W@__crt_stdio_output@@V?$format_validation_base@_WV?$string_output_adapter@_W@__crt_stdio_output@@@2@@__crt_stdio_output@@AEAAXI@Z 0000000140036008 f i libucrt:output.obj
 0001:0003500c       ?set_flag@?$output_processor@_WV?$string_output_adapter@_W@__crt_stdio_output@@V?$positional_parameter_base@_WV?$string_output_adapter@_W@__crt_stdio_output@@@2@@__crt_stdio_output@@AEAAXI@Z 000000014003600c f i libucrt:output.obj
 0001:00035010       ?set_flag@?$output_processor@_WV?$string_output_adapter@_W@__crt_stdio_output@@V?$standard_base@_WV?$string_output_adapter@_W@__crt_stdio_output@@@2@@__crt_stdio_output@@AEAAXI@Z 0000000140036010 f i libucrt:output.obj
 0001:00035014       ?should_format@?$positional_parameter_base@DV?$stream_output_adapter@D@__crt_stdio_output@@@__crt_stdio_output@@IEAA_NXZ 0000000140036014 f i libucrt:output.obj
 0001:00035034       ?should_format@?$positional_parameter_base@DV?$string_output_adapter@D@__crt_stdio_output@@@__crt_stdio_output@@IEAA_NXZ 0000000140036034 f i libucrt:output.obj
 0001:00035054       ?should_format@?$positional_parameter_base@_WV?$stream_output_adapter@_W@__crt_stdio_output@@@__crt_stdio_output@@IEAA_NXZ 0000000140036054 f i libucrt:output.obj
 0001:00035074       ?should_format@?$positional_parameter_base@_WV?$string_output_adapter@_W@__crt_stdio_output@@@__crt_stdio_output@@IEAA_NXZ 0000000140036074 f i libucrt:output.obj
 0001:00035094       ?should_format@?$standard_base@DV?$stream_output_adapter@D@__crt_stdio_output@@@__crt_stdio_output@@IEAA_NXZ 0000000140036094 f i libucrt:output.obj
 0001:00035098       ?should_format@?$standard_base@DV?$string_output_adapter@D@__crt_stdio_output@@@__crt_stdio_output@@IEAA_NXZ 0000000140036098 f i libucrt:output.obj
 0001:0003509c       ?should_format@?$standard_base@_WV?$stream_output_adapter@_W@__crt_stdio_output@@@__crt_stdio_output@@IEAA_NXZ 000000014003609c f i libucrt:output.obj
 0001:000350a0       ?should_format@?$standard_base@_WV?$string_output_adapter@_W@__crt_stdio_output@@@__crt_stdio_output@@IEAA_NXZ 00000001400360a0 f i libucrt:output.obj
 0001:000350a4       ?should_skip_normal_state_processing@?$positional_parameter_base@DV?$stream_output_adapter@D@__crt_stdio_output@@@__crt_stdio_output@@IEAA_NXZ 00000001400360a4 f i libucrt:output.obj
 0001:000350d8       ?should_skip_normal_state_processing@?$positional_parameter_base@DV?$string_output_adapter@D@__crt_stdio_output@@@__crt_stdio_output@@IEAA_NXZ 00000001400360d8 f i libucrt:output.obj
 0001:0003510c       ?should_skip_normal_state_processing@?$positional_parameter_base@_WV?$stream_output_adapter@_W@__crt_stdio_output@@@__crt_stdio_output@@IEAA_NXZ 000000014003610c f i libucrt:output.obj
 0001:00035140       ?should_skip_normal_state_processing@?$positional_parameter_base@_WV?$string_output_adapter@_W@__crt_stdio_output@@@__crt_stdio_output@@IEAA_NXZ 0000000140036140 f i libucrt:output.obj
 0001:00035174       ?should_skip_normal_state_processing@?$standard_base@DV?$stream_output_adapter@D@__crt_stdio_output@@@__crt_stdio_output@@IEAA_NXZ 0000000140036174 f i libucrt:output.obj
 0001:00035178       ?should_skip_normal_state_processing@?$standard_base@DV?$string_output_adapter@D@__crt_stdio_output@@@__crt_stdio_output@@IEAA_NXZ 0000000140036178 f i libucrt:output.obj
 0001:0003517c       ?should_skip_normal_state_processing@?$standard_base@_WV?$stream_output_adapter@_W@__crt_stdio_output@@@__crt_stdio_output@@IEAA_NXZ 000000014003617c f i libucrt:output.obj
 0001:00035180       ?should_skip_normal_state_processing@?$standard_base@_WV?$string_output_adapter@_W@__crt_stdio_output@@@__crt_stdio_output@@IEAA_NXZ 0000000140036180 f i libucrt:output.obj
 0001:00035184       ?should_skip_type_state_output@?$positional_parameter_base@DV?$stream_output_adapter@D@__crt_stdio_output@@@__crt_stdio_output@@IEBA_NXZ 0000000140036184 f i libucrt:output.obj
 0001:000351a4       ?should_skip_type_state_output@?$positional_parameter_base@DV?$string_output_adapter@D@__crt_stdio_output@@@__crt_stdio_output@@IEBA_NXZ 00000001400361a4 f i libucrt:output.obj
 0001:000351c4       ?should_skip_type_state_output@?$positional_parameter_base@_WV?$stream_output_adapter@_W@__crt_stdio_output@@@__crt_stdio_output@@IEBA_NXZ 00000001400361c4 f i libucrt:output.obj
 0001:000351e4       ?should_skip_type_state_output@?$positional_parameter_base@_WV?$string_output_adapter@_W@__crt_stdio_output@@@__crt_stdio_output@@IEBA_NXZ 00000001400361e4 f i libucrt:output.obj
 0001:00035204       ?should_skip_type_state_output@?$standard_base@DV?$stream_output_adapter@D@__crt_stdio_output@@@__crt_stdio_output@@IEBA_NXZ 0000000140036204 f i libucrt:output.obj
 0001:00035208       ?should_skip_type_state_output@?$standard_base@DV?$string_output_adapter@D@__crt_stdio_output@@@__crt_stdio_output@@IEBA_NXZ 0000000140036208 f i libucrt:output.obj
 0001:0003520c       ?should_skip_type_state_output@?$standard_base@_WV?$stream_output_adapter@_W@__crt_stdio_output@@@__crt_stdio_output@@IEBA_NXZ 000000014003620c f i libucrt:output.obj
 0001:00035210       ?should_skip_type_state_output@?$standard_base@_WV?$string_output_adapter@_W@__crt_stdio_output@@@__crt_stdio_output@@IEBA_NXZ 0000000140036210 f i libucrt:output.obj
 0001:00035214       ?state_case_dot@?$output_processor@DV?$stream_output_adapter@D@__crt_stdio_output@@V?$format_validation_base@DV?$stream_output_adapter@D@__crt_stdio_output@@@2@@__crt_stdio_output@@AEAA_NXZ 0000000140036214 f i libucrt:output.obj
 0001:0003521c       ?state_case_dot@?$output_processor@DV?$stream_output_adapter@D@__crt_stdio_output@@V?$positional_parameter_base@DV?$stream_output_adapter@D@__crt_stdio_output@@@2@@__crt_stdio_output@@AEAA_NXZ 000000014003621c f i libucrt:output.obj
 0001:00035224       ?state_case_dot@?$output_processor@DV?$stream_output_adapter@D@__crt_stdio_output@@V?$standard_base@DV?$stream_output_adapter@D@__crt_stdio_output@@@2@@__crt_stdio_output@@AEAA_NXZ 0000000140036224 f i libucrt:output.obj
 0001:0003522c       ?state_case_dot@?$output_processor@DV?$string_output_adapter@D@__crt_stdio_output@@V?$format_validation_base@DV?$string_output_adapter@D@__crt_stdio_output@@@2@@__crt_stdio_output@@AEAA_NXZ 000000014003622c f i libucrt:output.obj
 0001:00035234       ?state_case_dot@?$output_processor@DV?$string_output_adapter@D@__crt_stdio_output@@V?$positional_parameter_base@DV?$string_output_adapter@D@__crt_stdio_output@@@2@@__crt_stdio_output@@AEAA_NXZ 0000000140036234 f i libucrt:output.obj
 0001:0003523c       ?state_case_dot@?$output_processor@DV?$string_output_adapter@D@__crt_stdio_output@@V?$standard_base@DV?$string_output_adapter@D@__crt_stdio_output@@@2@@__crt_stdio_output@@AEAA_NXZ 000000014003623c f i libucrt:output.obj
 0001:00035244       ?state_case_dot@?$output_processor@_WV?$stream_output_adapter@_W@__crt_stdio_output@@V?$format_validation_base@_WV?$stream_output_adapter@_W@__crt_stdio_output@@@2@@__crt_stdio_output@@AEAA_NXZ 0000000140036244 f i libucrt:output.obj
 0001:0003524c       ?state_case_dot@?$output_processor@_WV?$stream_output_adapter@_W@__crt_stdio_output@@V?$positional_parameter_base@_WV?$stream_output_adapter@_W@__crt_stdio_output@@@2@@__crt_stdio_output@@AEAA_NXZ 000000014003624c f i libucrt:output.obj
 0001:00035254       ?state_case_dot@?$output_processor@_WV?$stream_output_adapter@_W@__crt_stdio_output@@V?$standard_base@_WV?$stream_output_adapter@_W@__crt_stdio_output@@@2@@__crt_stdio_output@@AEAA_NXZ 0000000140036254 f i libucrt:output.obj
 0001:0003525c       ?state_case_dot@?$output_processor@_WV?$string_output_adapter@_W@__crt_stdio_output@@V?$format_validation_base@_WV?$string_output_adapter@_W@__crt_stdio_output@@@2@@__crt_stdio_output@@AEAA_NXZ 000000014003625c f i libucrt:output.obj
 0001:00035264       ?state_case_dot@?$output_processor@_WV?$string_output_adapter@_W@__crt_stdio_output@@V?$positional_parameter_base@_WV?$string_output_adapter@_W@__crt_stdio_output@@@2@@__crt_stdio_output@@AEAA_NXZ 0000000140036264 f i libucrt:output.obj
 0001:0003526c       ?state_case_dot@?$output_processor@_WV?$string_output_adapter@_W@__crt_stdio_output@@V?$standard_base@_WV?$string_output_adapter@_W@__crt_stdio_output@@@2@@__crt_stdio_output@@AEAA_NXZ 000000014003626c f i libucrt:output.obj
 0001:00035274       ?state_case_flag@?$output_processor@DV?$stream_output_adapter@D@__crt_stdio_output@@V?$format_validation_base@DV?$stream_output_adapter@D@__crt_stdio_output@@@2@@__crt_stdio_output@@AEAA_NXZ 0000000140036274 f i libucrt:output.obj
 0001:000352b8       ?state_case_flag@?$output_processor@DV?$stream_output_adapter@D@__crt_stdio_output@@V?$positional_parameter_base@DV?$stream_output_adapter@D@__crt_stdio_output@@@2@@__crt_stdio_output@@AEAA_NXZ 00000001400362b8 f i libucrt:output.obj
 0001:000352fc       ?state_case_flag@?$output_processor@DV?$stream_output_adapter@D@__crt_stdio_output@@V?$standard_base@DV?$stream_output_adapter@D@__crt_stdio_output@@@2@@__crt_stdio_output@@AEAA_NXZ 00000001400362fc f i libucrt:output.obj
 0001:00035340       ?state_case_flag@?$output_processor@DV?$string_output_adapter@D@__crt_stdio_output@@V?$format_validation_base@DV?$string_output_adapter@D@__crt_stdio_output@@@2@@__crt_stdio_output@@AEAA_NXZ 0000000140036340 f i libucrt:output.obj
 0001:00035384       ?state_case_flag@?$output_processor@DV?$string_output_adapter@D@__crt_stdio_output@@V?$positional_parameter_base@DV?$string_output_adapter@D@__crt_stdio_output@@@2@@__crt_stdio_output@@AEAA_NXZ 0000000140036384 f i libucrt:output.obj
 0001:000353c8       ?state_case_flag@?$output_processor@DV?$string_output_adapter@D@__crt_stdio_output@@V?$standard_base@DV?$string_output_adapter@D@__crt_stdio_output@@@2@@__crt_stdio_output@@AEAA_NXZ 00000001400363c8 f i libucrt:output.obj
 0001:0003540c       ?state_case_flag@?$output_processor@_WV?$stream_output_adapter@_W@__crt_stdio_output@@V?$format_validation_base@_WV?$stream_output_adapter@_W@__crt_stdio_output@@@2@@__crt_stdio_output@@AEAA_NXZ 000000014003640c f i libucrt:output.obj
 0001:00035464       ?state_case_flag@?$output_processor@_WV?$stream_output_adapter@_W@__crt_stdio_output@@V?$positional_parameter_base@_WV?$stream_output_adapter@_W@__crt_stdio_output@@@2@@__crt_stdio_output@@AEAA_NXZ 0000000140036464 f i libucrt:output.obj
 0001:000354bc       ?state_case_flag@?$output_processor@_WV?$stream_output_adapter@_W@__crt_stdio_output@@V?$standard_base@_WV?$stream_output_adapter@_W@__crt_stdio_output@@@2@@__crt_stdio_output@@AEAA_NXZ 00000001400364bc f i libucrt:output.obj
 0001:00035514       ?state_case_flag@?$output_processor@_WV?$string_output_adapter@_W@__crt_stdio_output@@V?$format_validation_base@_WV?$string_output_adapter@_W@__crt_stdio_output@@@2@@__crt_stdio_output@@AEAA_NXZ 0000000140036514 f i libucrt:output.obj
 0001:0003556c       ?state_case_flag@?$output_processor@_WV?$string_output_adapter@_W@__crt_stdio_output@@V?$positional_parameter_base@_WV?$string_output_adapter@_W@__crt_stdio_output@@@2@@__crt_stdio_output@@AEAA_NXZ 000000014003656c f i libucrt:output.obj
 0001:000355c4       ?state_case_flag@?$output_processor@_WV?$string_output_adapter@_W@__crt_stdio_output@@V?$standard_base@_WV?$string_output_adapter@_W@__crt_stdio_output@@@2@@__crt_stdio_output@@AEAA_NXZ 00000001400365c4 f i libucrt:output.obj
 0001:0003561c       ?state_case_normal@?$output_processor@DV?$stream_output_adapter@D@__crt_stdio_output@@V?$format_validation_base@DV?$stream_output_adapter@D@__crt_stdio_output@@@2@@__crt_stdio_output@@AEAA_NXZ 000000014003661c f i libucrt:output.obj
 0001:000357c4       ?state_case_normal@?$output_processor@DV?$stream_output_adapter@D@__crt_stdio_output@@V?$positional_parameter_base@DV?$stream_output_adapter@D@__crt_stdio_output@@@2@@__crt_stdio_output@@AEAA_NXZ 00000001400367c4 f i libucrt:output.obj
 0001:000359a4       ?state_case_normal@?$output_processor@DV?$stream_output_adapter@D@__crt_stdio_output@@V?$standard_base@DV?$stream_output_adapter@D@__crt_stdio_output@@@2@@__crt_stdio_output@@AEAA_NXZ 00000001400369a4 f i libucrt:output.obj
 0001:00035b4c       ?state_case_normal@?$output_processor@DV?$string_output_adapter@D@__crt_stdio_output@@V?$format_validation_base@DV?$string_output_adapter@D@__crt_stdio_output@@@2@@__crt_stdio_output@@AEAA_NXZ 0000000140036b4c f i libucrt:output.obj
 0001:00035cec       ?state_case_normal@?$output_processor@DV?$string_output_adapter@D@__crt_stdio_output@@V?$positional_parameter_base@DV?$string_output_adapter@D@__crt_stdio_output@@@2@@__crt_stdio_output@@AEAA_NXZ 0000000140036cec f i libucrt:output.obj
 0001:00035ec0       ?state_case_normal@?$output_processor@DV?$string_output_adapter@D@__crt_stdio_output@@V?$standard_base@DV?$string_output_adapter@D@__crt_stdio_output@@@2@@__crt_stdio_output@@AEAA_NXZ 0000000140036ec0 f i libucrt:output.obj
 0001:00036060       ?state_case_normal@?$output_processor@_WV?$stream_output_adapter@_W@__crt_stdio_output@@V?$format_validation_base@_WV?$stream_output_adapter@_W@__crt_stdio_output@@@2@@__crt_stdio_output@@AEAA_NXZ 0000000140037060 f i libucrt:output.obj
 0001:000360d4       ?state_case_normal@?$output_processor@_WV?$stream_output_adapter@_W@__crt_stdio_output@@V?$positional_parameter_base@_WV?$stream_output_adapter@_W@__crt_stdio_output@@@2@@__crt_stdio_output@@AEAA_NXZ 00000001400370d4 f i libucrt:output.obj
 0001:00036178       ?state_case_normal@?$output_processor@_WV?$stream_output_adapter@_W@__crt_stdio_output@@V?$standard_base@_WV?$stream_output_adapter@_W@__crt_stdio_output@@@2@@__crt_stdio_output@@AEAA_NXZ 0000000140037178 f i libucrt:output.obj
 0001:000361ec       ?state_case_normal@?$output_processor@_WV?$string_output_adapter@_W@__crt_stdio_output@@V?$format_validation_base@_WV?$string_output_adapter@_W@__crt_stdio_output@@@2@@__crt_stdio_output@@AEAA_NXZ 00000001400371ec f i libucrt:output.obj
 0001:00036258       ?state_case_normal@?$output_processor@_WV?$string_output_adapter@_W@__crt_stdio_output@@V?$positional_parameter_base@_WV?$string_output_adapter@_W@__crt_stdio_output@@@2@@__crt_stdio_output@@AEAA_NXZ 0000000140037258 f i libucrt:output.obj
 0001:000362f0       ?state_case_normal@?$output_processor@_WV?$string_output_adapter@_W@__crt_stdio_output@@V?$standard_base@_WV?$string_output_adapter@_W@__crt_stdio_output@@@2@@__crt_stdio_output@@AEAA_NXZ 00000001400372f0 f i libucrt:output.obj
 0001:0003635c       ?state_case_normal_common@?$output_processor@DV?$stream_output_adapter@D@__crt_stdio_output@@V?$format_validation_base@DV?$stream_output_adapter@D@__crt_stdio_output@@@2@@__crt_stdio_output@@AEAA_NXZ 000000014003735c f i libucrt:output.obj
 0001:000364d0       ?state_case_normal_common@?$output_processor@DV?$stream_output_adapter@D@__crt_stdio_output@@V?$positional_parameter_base@DV?$stream_output_adapter@D@__crt_stdio_output@@@2@@__crt_stdio_output@@AEAA_NXZ 00000001400374d0 f i libucrt:output.obj
 0001:00036644       ?state_case_normal_common@?$output_processor@DV?$stream_output_adapter@D@__crt_stdio_output@@V?$standard_base@DV?$stream_output_adapter@D@__crt_stdio_output@@@2@@__crt_stdio_output@@AEAA_NXZ 0000000140037644 f i libucrt:output.obj
 0001:000367b8       ?state_case_normal_common@?$output_processor@DV?$string_output_adapter@D@__crt_stdio_output@@V?$format_validation_base@DV?$string_output_adapter@D@__crt_stdio_output@@@2@@__crt_stdio_output@@AEAA_NXZ 00000001400377b8 f i libucrt:output.obj
 0001:00036924       ?state_case_normal_common@?$output_processor@DV?$string_output_adapter@D@__crt_stdio_output@@V?$positional_parameter_base@DV?$string_output_adapter@D@__crt_stdio_output@@@2@@__crt_stdio_output@@AEAA_NXZ 0000000140037924 f i libucrt:output.obj
 0001:00036a90       ?state_case_normal_common@?$output_processor@DV?$string_output_adapter@D@__crt_stdio_output@@V?$standard_base@DV?$string_output_adapter@D@__crt_stdio_output@@@2@@__crt_stdio_output@@AEAA_NXZ 0000000140037a90 f i libucrt:output.obj
 0001:00036bfc       ?state_case_normal_common@?$output_processor@_WV?$stream_output_adapter@_W@__crt_stdio_output@@V?$format_validation_base@_WV?$stream_output_adapter@_W@__crt_stdio_output@@@2@@__crt_stdio_output@@AEAA_NXZ 0000000140037bfc f i libucrt:output.obj
 0001:00036c70       ?state_case_normal_common@?$output_processor@_WV?$stream_output_adapter@_W@__crt_stdio_output@@V?$positional_parameter_base@_WV?$stream_output_adapter@_W@__crt_stdio_output@@@2@@__crt_stdio_output@@AEAA_NXZ 0000000140037c70 f i libucrt:output.obj
 0001:00036ce4       ?state_case_normal_common@?$output_processor@_WV?$stream_output_adapter@_W@__crt_stdio_output@@V?$standard_base@_WV?$stream_output_adapter@_W@__crt_stdio_output@@@2@@__crt_stdio_output@@AEAA_NXZ 0000000140037ce4 f i libucrt:output.obj
 0001:00036d58       ?state_case_normal_common@?$output_processor@_WV?$string_output_adapter@_W@__crt_stdio_output@@V?$format_validation_base@_WV?$string_output_adapter@_W@__crt_stdio_output@@@2@@__crt_stdio_output@@AEAA_NXZ 0000000140037d58 f i libucrt:output.obj
 0001:00036dc4       ?state_case_normal_common@?$output_processor@_WV?$string_output_adapter@_W@__crt_stdio_output@@V?$positional_parameter_base@_WV?$string_output_adapter@_W@__crt_stdio_output@@@2@@__crt_stdio_output@@AEAA_NXZ 0000000140037dc4 f i libucrt:output.obj
 0001:00036e30       ?state_case_normal_common@?$output_processor@_WV?$string_output_adapter@_W@__crt_stdio_output@@V?$standard_base@_WV?$string_output_adapter@_W@__crt_stdio_output@@@2@@__crt_stdio_output@@AEAA_NXZ 0000000140037e30 f i libucrt:output.obj
 0001:00036e9c       ?state_case_normal_tchar@?$output_processor@DV?$stream_output_adapter@D@__crt_stdio_output@@V?$format_validation_base@DV?$stream_output_adapter@D@__crt_stdio_output@@@2@@__crt_stdio_output@@AEAA_ND@Z 0000000140037e9c f i libucrt:output.obj
 0001:00036fb0       ?state_case_normal_tchar@?$output_processor@DV?$stream_output_adapter@D@__crt_stdio_output@@V?$positional_parameter_base@DV?$stream_output_adapter@D@__crt_stdio_output@@@2@@__crt_stdio_output@@AEAA_ND@Z 0000000140037fb0 f i libucrt:output.obj
 0001:000370c4       ?state_case_normal_tchar@?$output_processor@DV?$stream_output_adapter@D@__crt_stdio_output@@V?$standard_base@DV?$stream_output_adapter@D@__crt_stdio_output@@@2@@__crt_stdio_output@@AEAA_ND@Z 00000001400380c4 f i libucrt:output.obj
 0001:000371d8       ?state_case_normal_tchar@?$output_processor@DV?$string_output_adapter@D@__crt_stdio_output@@V?$format_validation_base@DV?$string_output_adapter@D@__crt_stdio_output@@@2@@__crt_stdio_output@@AEAA_ND@Z 00000001400381d8 f i libucrt:output.obj
 0001:000372ec       ?state_case_normal_tchar@?$output_processor@DV?$string_output_adapter@D@__crt_stdio_output@@V?$positional_parameter_base@DV?$string_output_adapter@D@__crt_stdio_output@@@2@@__crt_stdio_output@@AEAA_ND@Z 00000001400382ec f i libucrt:output.obj
 0001:00037400       ?state_case_normal_tchar@?$output_processor@DV?$string_output_adapter@D@__crt_stdio_output@@V?$standard_base@DV?$string_output_adapter@D@__crt_stdio_output@@@2@@__crt_stdio_output@@AEAA_ND@Z 0000000140038400 f i libucrt:output.obj
 0001:00037514       ?state_case_normal_tchar@?$output_processor@_WV?$stream_output_adapter@_W@__crt_stdio_output@@V?$format_validation_base@_WV?$stream_output_adapter@_W@__crt_stdio_output@@@2@@__crt_stdio_output@@AEAA_N_W@Z 0000000140038514 f i libucrt:output.obj
 0001:0003751c       ?state_case_normal_tchar@?$output_processor@_WV?$stream_output_adapter@_W@__crt_stdio_output@@V?$positional_parameter_base@_WV?$stream_output_adapter@_W@__crt_stdio_output@@@2@@__crt_stdio_output@@AEAA_N_W@Z 000000014003851c f i libucrt:output.obj
 0001:00037524       ?state_case_normal_tchar@?$output_processor@_WV?$stream_output_adapter@_W@__crt_stdio_output@@V?$standard_base@_WV?$stream_output_adapter@_W@__crt_stdio_output@@@2@@__crt_stdio_output@@AEAA_N_W@Z 0000000140038524 f i libucrt:output.obj
 0001:0003752c       ?state_case_normal_tchar@?$output_processor@_WV?$string_output_adapter@_W@__crt_stdio_output@@V?$format_validation_base@_WV?$string_output_adapter@_W@__crt_stdio_output@@@2@@__crt_stdio_output@@AEAA_N_W@Z 000000014003852c f i libucrt:output.obj
 0001:00037534       ?state_case_normal_tchar@?$output_processor@_WV?$string_output_adapter@_W@__crt_stdio_output@@V?$positional_parameter_base@_WV?$string_output_adapter@_W@__crt_stdio_output@@@2@@__crt_stdio_output@@AEAA_N_W@Z 0000000140038534 f i libucrt:output.obj
 0001:0003753c       ?state_case_normal_tchar@?$output_processor@_WV?$string_output_adapter@_W@__crt_stdio_output@@V?$standard_base@_WV?$string_output_adapter@_W@__crt_stdio_output@@@2@@__crt_stdio_output@@AEAA_N_W@Z 000000014003853c f i libucrt:output.obj
 0001:00037544       ?state_case_percent@?$output_processor@DV?$stream_output_adapter@D@__crt_stdio_output@@V?$format_validation_base@DV?$stream_output_adapter@D@__crt_stdio_output@@@2@@__crt_stdio_output@@AEAA_NXZ 0000000140038544 f i libucrt:output.obj
 0001:00037560       ?state_case_percent@?$output_processor@DV?$stream_output_adapter@D@__crt_stdio_output@@V?$positional_parameter_base@DV?$stream_output_adapter@D@__crt_stdio_output@@@2@@__crt_stdio_output@@AEAA_NXZ 0000000140038560 f i libucrt:output.obj
 0001:0003757c       ?state_case_percent@?$output_processor@DV?$stream_output_adapter@D@__crt_stdio_output@@V?$standard_base@DV?$stream_output_adapter@D@__crt_stdio_output@@@2@@__crt_stdio_output@@AEAA_NXZ 000000014003857c f i libucrt:output.obj
 0001:00037598       ?state_case_percent@?$output_processor@DV?$string_output_adapter@D@__crt_stdio_output@@V?$format_validation_base@DV?$string_output_adapter@D@__crt_stdio_output@@@2@@__crt_stdio_output@@AEAA_NXZ 0000000140038598 f i libucrt:output.obj
 0001:000375b4       ?state_case_percent@?$output_processor@DV?$string_output_adapter@D@__crt_stdio_output@@V?$positional_parameter_base@DV?$string_output_adapter@D@__crt_stdio_output@@@2@@__crt_stdio_output@@AEAA_NXZ 00000001400385b4 f i libucrt:output.obj
 0001:000375d0       ?state_case_percent@?$output_processor@DV?$string_output_adapter@D@__crt_stdio_output@@V?$standard_base@DV?$string_output_adapter@D@__crt_stdio_output@@@2@@__crt_stdio_output@@AEAA_NXZ 00000001400385d0 f i libucrt:output.obj
 0001:000375ec       ?state_case_percent@?$output_processor@_WV?$stream_output_adapter@_W@__crt_stdio_output@@V?$format_validation_base@_WV?$stream_output_adapter@_W@__crt_stdio_output@@@2@@__crt_stdio_output@@AEAA_NXZ 00000001400385ec f i libucrt:output.obj
 0001:00037608       ?state_case_percent@?$output_processor@_WV?$stream_output_adapter@_W@__crt_stdio_output@@V?$positional_parameter_base@_WV?$stream_output_adapter@_W@__crt_stdio_output@@@2@@__crt_stdio_output@@AEAA_NXZ 0000000140038608 f i libucrt:output.obj
 0001:00037624       ?state_case_percent@?$output_processor@_WV?$stream_output_adapter@_W@__crt_stdio_output@@V?$standard_base@_WV?$stream_output_adapter@_W@__crt_stdio_output@@@2@@__crt_stdio_output@@AEAA_NXZ 0000000140038624 f i libucrt:output.obj
 0001:00037640       ?state_case_percent@?$output_processor@_WV?$string_output_adapter@_W@__crt_stdio_output@@V?$format_validation_base@_WV?$string_output_adapter@_W@__crt_stdio_output@@@2@@__crt_stdio_output@@AEAA_NXZ 0000000140038640 f i libucrt:output.obj
 0001:0003765c       ?state_case_percent@?$output_processor@_WV?$string_output_adapter@_W@__crt_stdio_output@@V?$positional_parameter_base@_WV?$string_output_adapter@_W@__crt_stdio_output@@@2@@__crt_stdio_output@@AEAA_NXZ 000000014003865c f i libucrt:output.obj
 0001:00037678       ?state_case_percent@?$output_processor@_WV?$string_output_adapter@_W@__crt_stdio_output@@V?$standard_base@_WV?$string_output_adapter@_W@__crt_stdio_output@@@2@@__crt_stdio_output@@AEAA_NXZ 0000000140038678 f i libucrt:output.obj
 0001:00037694       ?state_case_precision@?$output_processor@DV?$stream_output_adapter@D@__crt_stdio_output@@V?$format_validation_base@DV?$stream_output_adapter@D@__crt_stdio_output@@@2@@__crt_stdio_output@@AEAA_NXZ 0000000140038694 f i libucrt:output.obj
 0001:000376d0       ?state_case_precision@?$output_processor@DV?$stream_output_adapter@D@__crt_stdio_output@@V?$positional_parameter_base@DV?$stream_output_adapter@D@__crt_stdio_output@@@2@@__crt_stdio_output@@AEAA_NXZ 00000001400386d0 f i libucrt:output.obj
 0001:0003772c       ?state_case_precision@?$output_processor@DV?$stream_output_adapter@D@__crt_stdio_output@@V?$standard_base@DV?$stream_output_adapter@D@__crt_stdio_output@@@2@@__crt_stdio_output@@AEAA_NXZ 000000014003872c f i libucrt:output.obj
 0001:00037768       ?state_case_precision@?$output_processor@DV?$string_output_adapter@D@__crt_stdio_output@@V?$format_validation_base@DV?$string_output_adapter@D@__crt_stdio_output@@@2@@__crt_stdio_output@@AEAA_NXZ 0000000140038768 f i libucrt:output.obj
 0001:000377a4       ?state_case_precision@?$output_processor@DV?$string_output_adapter@D@__crt_stdio_output@@V?$positional_parameter_base@DV?$string_output_adapter@D@__crt_stdio_output@@@2@@__crt_stdio_output@@AEAA_NXZ 00000001400387a4 f i libucrt:output.obj
 0001:00037800       ?state_case_precision@?$output_processor@DV?$string_output_adapter@D@__crt_stdio_output@@V?$standard_base@DV?$string_output_adapter@D@__crt_stdio_output@@@2@@__crt_stdio_output@@AEAA_NXZ 0000000140038800 f i libucrt:output.obj
 0001:0003783c       ?state_case_precision@?$output_processor@_WV?$stream_output_adapter@_W@__crt_stdio_output@@V?$format_validation_base@_WV?$stream_output_adapter@_W@__crt_stdio_output@@@2@@__crt_stdio_output@@AEAA_NXZ 000000014003883c f i libucrt:output.obj
 0001:0003787c       ?state_case_precision@?$output_processor@_WV?$stream_output_adapter@_W@__crt_stdio_output@@V?$positional_parameter_base@_WV?$stream_output_adapter@_W@__crt_stdio_output@@@2@@__crt_stdio_output@@AEAA_NXZ 000000014003887c f i libucrt:output.obj
 0001:000378dc       ?state_case_precision@?$output_processor@_WV?$stream_output_adapter@_W@__crt_stdio_output@@V?$standard_base@_WV?$stream_output_adapter@_W@__crt_stdio_output@@@2@@__crt_stdio_output@@AEAA_NXZ 00000001400388dc f i libucrt:output.obj
 0001:0003791c       ?state_case_precision@?$output_processor@_WV?$string_output_adapter@_W@__crt_stdio_output@@V?$format_validation_base@_WV?$string_output_adapter@_W@__crt_stdio_output@@@2@@__crt_stdio_output@@AEAA_NXZ 000000014003891c f i libucrt:output.obj
 0001:0003795c       ?state_case_precision@?$output_processor@_WV?$string_output_adapter@_W@__crt_stdio_output@@V?$positional_parameter_base@_WV?$string_output_adapter@_W@__crt_stdio_output@@@2@@__crt_stdio_output@@AEAA_NXZ 000000014003895c f i libucrt:output.obj
 0001:000379bc       ?state_case_precision@?$output_processor@_WV?$string_output_adapter@_W@__crt_stdio_output@@V?$standard_base@_WV?$string_output_adapter@_W@__crt_stdio_output@@@2@@__crt_stdio_output@@AEAA_NXZ 00000001400389bc f i libucrt:output.obj
 0001:000379fc       ?state_case_size@?$output_processor@DV?$stream_output_adapter@D@__crt_stdio_output@@V?$format_validation_base@DV?$stream_output_adapter@D@__crt_stdio_output@@@2@@__crt_stdio_output@@AEAA_NXZ 00000001400389fc f i libucrt:output.obj
 0001:00037be4       ?state_case_size@?$output_processor@DV?$stream_output_adapter@D@__crt_stdio_output@@V?$positional_parameter_base@DV?$stream_output_adapter@D@__crt_stdio_output@@@2@@__crt_stdio_output@@AEAA_NXZ 0000000140038be4 f i libucrt:output.obj
 0001:00037dcc       ?state_case_size@?$output_processor@DV?$stream_output_adapter@D@__crt_stdio_output@@V?$standard_base@DV?$stream_output_adapter@D@__crt_stdio_output@@@2@@__crt_stdio_output@@AEAA_NXZ 0000000140038dcc f i libucrt:output.obj
 0001:00037fb4       ?state_case_size@?$output_processor@DV?$string_output_adapter@D@__crt_stdio_output@@V?$format_validation_base@DV?$string_output_adapter@D@__crt_stdio_output@@@2@@__crt_stdio_output@@AEAA_NXZ 0000000140038fb4 f i libucrt:output.obj
 0001:0003819c       ?state_case_size@?$output_processor@DV?$string_output_adapter@D@__crt_stdio_output@@V?$positional_parameter_base@DV?$string_output_adapter@D@__crt_stdio_output@@@2@@__crt_stdio_output@@AEAA_NXZ 000000014003919c f i libucrt:output.obj
 0001:00038384       ?state_case_size@?$output_processor@DV?$string_output_adapter@D@__crt_stdio_output@@V?$standard_base@DV?$string_output_adapter@D@__crt_stdio_output@@@2@@__crt_stdio_output@@AEAA_NXZ 0000000140039384 f i libucrt:output.obj
 0001:0003856c       ?state_case_size@?$output_processor@_WV?$stream_output_adapter@_W@__crt_stdio_output@@V?$format_validation_base@_WV?$stream_output_adapter@_W@__crt_stdio_output@@@2@@__crt_stdio_output@@AEAA_NXZ 000000014003956c f i libucrt:output.obj
 0001:00038784       ?state_case_size@?$output_processor@_WV?$stream_output_adapter@_W@__crt_stdio_output@@V?$positional_parameter_base@_WV?$stream_output_adapter@_W@__crt_stdio_output@@@2@@__crt_stdio_output@@AEAA_NXZ 0000000140039784 f i libucrt:output.obj
 0001:0003899c       ?state_case_size@?$output_processor@_WV?$stream_output_adapter@_W@__crt_stdio_output@@V?$standard_base@_WV?$stream_output_adapter@_W@__crt_stdio_output@@@2@@__crt_stdio_output@@AEAA_NXZ 000000014003999c f i libucrt:output.obj
 0001:00038bb4       ?state_case_size@?$output_processor@_WV?$string_output_adapter@_W@__crt_stdio_output@@V?$format_validation_base@_WV?$string_output_adapter@_W@__crt_stdio_output@@@2@@__crt_stdio_output@@AEAA_NXZ 0000000140039bb4 f i libucrt:output.obj
 0001:00038dcc       ?state_case_size@?$output_processor@_WV?$string_output_adapter@_W@__crt_stdio_output@@V?$positional_parameter_base@_WV?$string_output_adapter@_W@__crt_stdio_output@@@2@@__crt_stdio_output@@AEAA_NXZ 0000000140039dcc f i libucrt:output.obj
 0001:00038fe4       ?state_case_size@?$output_processor@_WV?$string_output_adapter@_W@__crt_stdio_output@@V?$standard_base@_WV?$string_output_adapter@_W@__crt_stdio_output@@@2@@__crt_stdio_output@@AEAA_NXZ 0000000140039fe4 f i libucrt:output.obj
 0001:000391fc       ?state_case_type@?$output_processor@DV?$stream_output_adapter@D@__crt_stdio_output@@V?$format_validation_base@DV?$stream_output_adapter@D@__crt_stdio_output@@@2@@__crt_stdio_output@@AEAA_NXZ 000000014003a1fc f i libucrt:output.obj
 0001:00039740       ?state_case_type@?$output_processor@DV?$stream_output_adapter@D@__crt_stdio_output@@V?$positional_parameter_base@DV?$stream_output_adapter@D@__crt_stdio_output@@@2@@__crt_stdio_output@@AEAA_NXZ 000000014003a740 f i libucrt:output.obj
 0001:00039cc0       ?state_case_type@?$output_processor@DV?$stream_output_adapter@D@__crt_stdio_output@@V?$standard_base@DV?$stream_output_adapter@D@__crt_stdio_output@@@2@@__crt_stdio_output@@AEAA_NXZ 000000014003acc0 f i libucrt:output.obj
 0001:0003a204       ?state_case_type@?$output_processor@DV?$string_output_adapter@D@__crt_stdio_output@@V?$format_validation_base@DV?$string_output_adapter@D@__crt_stdio_output@@@2@@__crt_stdio_output@@AEAA_NXZ 000000014003b204 f i libucrt:output.obj
 0001:0003a708       ?state_case_type@?$output_processor@DV?$string_output_adapter@D@__crt_stdio_output@@V?$positional_parameter_base@DV?$string_output_adapter@D@__crt_stdio_output@@@2@@__crt_stdio_output@@AEAA_NXZ 000000014003b708 f i libucrt:output.obj
 0001:0003ac24       ?state_case_type@?$output_processor@DV?$string_output_adapter@D@__crt_stdio_output@@V?$standard_base@DV?$string_output_adapter@D@__crt_stdio_output@@@2@@__crt_stdio_output@@AEAA_NXZ 000000014003bc24 f i libucrt:output.obj
 0001:0003b128       ?state_case_type@?$output_processor@_WV?$stream_output_adapter@_W@__crt_stdio_output@@V?$format_validation_base@_WV?$stream_output_adapter@_W@__crt_stdio_output@@@2@@__crt_stdio_output@@AEAA_NXZ 000000014003c128 f i libucrt:output.obj
 0001:0003b71c       ?state_case_type@?$output_processor@_WV?$stream_output_adapter@_W@__crt_stdio_output@@V?$positional_parameter_base@_WV?$stream_output_adapter@_W@__crt_stdio_output@@@2@@__crt_stdio_output@@AEAA_NXZ 000000014003c71c f i libucrt:output.obj
 0001:0003bd2c       ?state_case_type@?$output_processor@_WV?$stream_output_adapter@_W@__crt_stdio_output@@V?$standard_base@_WV?$stream_output_adapter@_W@__crt_stdio_output@@@2@@__crt_stdio_output@@AEAA_NXZ 000000014003cd2c f i libucrt:output.obj
 0001:0003c320       ?state_case_type@?$output_processor@_WV?$string_output_adapter@_W@__crt_stdio_output@@V?$format_validation_base@_WV?$string_output_adapter@_W@__crt_stdio_output@@@2@@__crt_stdio_output@@AEAA_NXZ 000000014003d320 f i libucrt:output.obj
 0001:0003c8a0       ?state_case_type@?$output_processor@_WV?$string_output_adapter@_W@__crt_stdio_output@@V?$positional_parameter_base@_WV?$string_output_adapter@_W@__crt_stdio_output@@@2@@__crt_stdio_output@@AEAA_NXZ 000000014003d8a0 f i libucrt:output.obj
 0001:0003ce54       ?state_case_type@?$output_processor@_WV?$string_output_adapter@_W@__crt_stdio_output@@V?$standard_base@_WV?$string_output_adapter@_W@__crt_stdio_output@@@2@@__crt_stdio_output@@AEAA_NXZ 000000014003de54 f i libucrt:output.obj
 0001:0003d3d4       ?state_case_width@?$output_processor@DV?$stream_output_adapter@D@__crt_stdio_output@@V?$format_validation_base@DV?$stream_output_adapter@D@__crt_stdio_output@@@2@@__crt_stdio_output@@AEAA_NXZ 000000014003e3d4 f i libucrt:output.obj
 0001:0003d414       ?state_case_width@?$output_processor@DV?$stream_output_adapter@D@__crt_stdio_output@@V?$positional_parameter_base@DV?$stream_output_adapter@D@__crt_stdio_output@@@2@@__crt_stdio_output@@AEAA_NXZ 000000014003e414 f i libucrt:output.obj
 0001:0003d478       ?state_case_width@?$output_processor@DV?$stream_output_adapter@D@__crt_stdio_output@@V?$standard_base@DV?$stream_output_adapter@D@__crt_stdio_output@@@2@@__crt_stdio_output@@AEAA_NXZ 000000014003e478 f i libucrt:output.obj
 0001:0003d4b8       ?state_case_width@?$output_processor@DV?$string_output_adapter@D@__crt_stdio_output@@V?$format_validation_base@DV?$string_output_adapter@D@__crt_stdio_output@@@2@@__crt_stdio_output@@AEAA_NXZ 000000014003e4b8 f i libucrt:output.obj
 0001:0003d4f8       ?state_case_width@?$output_processor@DV?$string_output_adapter@D@__crt_stdio_output@@V?$positional_parameter_base@DV?$string_output_adapter@D@__crt_stdio_output@@@2@@__crt_stdio_output@@AEAA_NXZ 000000014003e4f8 f i libucrt:output.obj
 0001:0003d55c       ?state_case_width@?$output_processor@DV?$string_output_adapter@D@__crt_stdio_output@@V?$standard_base@DV?$string_output_adapter@D@__crt_stdio_output@@@2@@__crt_stdio_output@@AEAA_NXZ 000000014003e55c f i libucrt:output.obj
 0001:0003d59c       ?state_case_width@?$output_processor@_WV?$stream_output_adapter@_W@__crt_stdio_output@@V?$format_validation_base@_WV?$stream_output_adapter@_W@__crt_stdio_output@@@2@@__crt_stdio_output@@AEAA_NXZ 000000014003e59c f i libucrt:output.obj
 0001:0003d5dc       ?state_case_width@?$output_processor@_WV?$stream_output_adapter@_W@__crt_stdio_output@@V?$positional_parameter_base@_WV?$stream_output_adapter@_W@__crt_stdio_output@@@2@@__crt_stdio_output@@AEAA_NXZ 000000014003e5dc f i libucrt:output.obj
 0001:0003d644       ?state_case_width@?$output_processor@_WV?$stream_output_adapter@_W@__crt_stdio_output@@V?$standard_base@_WV?$stream_output_adapter@_W@__crt_stdio_output@@@2@@__crt_stdio_output@@AEAA_NXZ 000000014003e644 f i libucrt:output.obj
 0001:0003d684       ?state_case_width@?$output_processor@_WV?$string_output_adapter@_W@__crt_stdio_output@@V?$format_validation_base@_WV?$string_output_adapter@_W@__crt_stdio_output@@@2@@__crt_stdio_output@@AEAA_NXZ 000000014003e684 f i libucrt:output.obj
 0001:0003d6c4       ?state_case_width@?$output_processor@_WV?$string_output_adapter@_W@__crt_stdio_output@@V?$positional_parameter_base@_WV?$string_output_adapter@_W@__crt_stdio_output@@@2@@__crt_stdio_output@@AEAA_NXZ 000000014003e6c4 f i libucrt:output.obj
 0001:0003d72c       ?state_case_width@?$output_processor@_WV?$string_output_adapter@_W@__crt_stdio_output@@V?$standard_base@_WV?$string_output_adapter@_W@__crt_stdio_output@@@2@@__crt_stdio_output@@AEAA_NXZ 000000014003e72c f i libucrt:output.obj
 0001:0003d76c       ?state_count@?$format_validation_base@DV?$stream_output_adapter@D@__crt_stdio_output@@@__crt_stdio_output@@KAIXZ 000000014003e76c f i libucrt:output.obj
 0001:0003d774       ?state_count@?$format_validation_base@DV?$string_output_adapter@D@__crt_stdio_output@@@__crt_stdio_output@@KAIXZ 000000014003e774 f i libucrt:output.obj
 0001:0003d77c       ?state_count@?$format_validation_base@_WV?$stream_output_adapter@_W@__crt_stdio_output@@@__crt_stdio_output@@KAIXZ 000000014003e77c f i libucrt:output.obj
 0001:0003d784       ?state_count@?$format_validation_base@_WV?$string_output_adapter@_W@__crt_stdio_output@@@__crt_stdio_output@@KAIXZ 000000014003e784 f i libucrt:output.obj
 0001:0003d78c       ?state_count@?$standard_base@DV?$stream_output_adapter@D@__crt_stdio_output@@@__crt_stdio_output@@KAIXZ 000000014003e78c f i libucrt:output.obj
 0001:0003d794       ?state_count@?$standard_base@DV?$string_output_adapter@D@__crt_stdio_output@@@__crt_stdio_output@@KAIXZ 000000014003e794 f i libucrt:output.obj
 0001:0003d79c       ?state_count@?$standard_base@_WV?$stream_output_adapter@_W@__crt_stdio_output@@@__crt_stdio_output@@KAIXZ 000000014003e79c f i libucrt:output.obj
 0001:0003d7a4       ?state_count@?$standard_base@_WV?$string_output_adapter@_W@__crt_stdio_output@@@__crt_stdio_output@@KAIXZ 000000014003e7a4 f i libucrt:output.obj
 0001:0003d7ac       ?state_transition_table@?$format_validation_base@DV?$stream_output_adapter@D@__crt_stdio_output@@@__crt_stdio_output@@KAAEBV?$spectre_mitigated_lookup_table@Ustate_transition_pair@__crt_stdio_output@@$0IA@@2@XZ 000000014003e7ac f i libucrt:output.obj
 0001:0003d7b8       ?state_transition_table@?$format_validation_base@DV?$string_output_adapter@D@__crt_stdio_output@@@__crt_stdio_output@@KAAEBV?$spectre_mitigated_lookup_table@Ustate_transition_pair@__crt_stdio_output@@$0IA@@2@XZ 000000014003e7b8 f i libucrt:output.obj
 0001:0003d7c4       ?state_transition_table@?$format_validation_base@_WV?$stream_output_adapter@_W@__crt_stdio_output@@@__crt_stdio_output@@KAAEBV?$spectre_mitigated_lookup_table@Ustate_transition_pair@__crt_stdio_output@@$0IA@@2@XZ 000000014003e7c4 f i libucrt:output.obj
 0001:0003d7d0       ?state_transition_table@?$format_validation_base@_WV?$string_output_adapter@_W@__crt_stdio_output@@@__crt_stdio_output@@KAAEBV?$spectre_mitigated_lookup_table@Ustate_transition_pair@__crt_stdio_output@@$0IA@@2@XZ 000000014003e7d0 f i libucrt:output.obj
 0001:0003d7dc       ?state_transition_table@?$standard_base@DV?$stream_output_adapter@D@__crt_stdio_output@@@__crt_stdio_output@@KAAEBV?$spectre_mitigated_lookup_table@Ustate_transition_pair@__crt_stdio_output@@$0IA@@2@XZ 000000014003e7dc f i libucrt:output.obj
 0001:0003d7e8       ?state_transition_table@?$standard_base@DV?$string_output_adapter@D@__crt_stdio_output@@@__crt_stdio_output@@KAAEBV?$spectre_mitigated_lookup_table@Ustate_transition_pair@__crt_stdio_output@@$0IA@@2@XZ 000000014003e7e8 f i libucrt:output.obj
 0001:0003d7f4       ?state_transition_table@?$standard_base@_WV?$stream_output_adapter@_W@__crt_stdio_output@@@__crt_stdio_output@@KAAEBV?$spectre_mitigated_lookup_table@Ustate_transition_pair@__crt_stdio_output@@$0IA@@2@XZ 000000014003e7f4 f i libucrt:output.obj
 0001:0003d800       ?state_transition_table@?$standard_base@_WV?$string_output_adapter@_W@__crt_stdio_output@@@__crt_stdio_output@@KAAEBV?$spectre_mitigated_lookup_table@Ustate_transition_pair@__crt_stdio_output@@$0IA@@2@XZ 000000014003e800 f i libucrt:output.obj
 0001:0003d80c       ?tchar_string@?$common_data@D@__crt_stdio_output@@IEAAAEAPEADD@Z 000000014003e80c f i libucrt:output.obj
 0001:0003d814       ?tchar_string@?$common_data@D@__crt_stdio_output@@IEAAAEAPEADXZ 000000014003e814 f i libucrt:output.obj
 0001:0003d81c       ?tchar_string@?$common_data@_W@__crt_stdio_output@@IEAAAEAPEA_WXZ 000000014003e81c f i libucrt:output.obj
 0001:0003d824       ?tchar_string@?$common_data@_W@__crt_stdio_output@@IEAAAEAPEA_W_W@Z 000000014003e824 f i libucrt:output.obj
 0001:0003d82c       ?to_integer_size@__crt_stdio_output@@YA_KW4length_modifier@1@@Z 000000014003e82c f i libucrt:output.obj
 0001:0003d884       ?type_case_X@?$output_processor@DV?$stream_output_adapter@D@__crt_stdio_output@@V?$format_validation_base@DV?$stream_output_adapter@D@__crt_stdio_output@@@2@@__crt_stdio_output@@AEAA_NXZ 000000014003e884 f i libucrt:output.obj
 0001:0003d88c       ?type_case_X@?$output_processor@DV?$stream_output_adapter@D@__crt_stdio_output@@V?$positional_parameter_base@DV?$stream_output_adapter@D@__crt_stdio_output@@@2@@__crt_stdio_output@@AEAA_NXZ 000000014003e88c f i libucrt:output.obj
 0001:0003d894       ?type_case_X@?$output_processor@DV?$stream_output_adapter@D@__crt_stdio_output@@V?$standard_base@DV?$stream_output_adapter@D@__crt_stdio_output@@@2@@__crt_stdio_output@@AEAA_NXZ 000000014003e894 f i libucrt:output.obj
 0001:0003d89c       ?type_case_X@?$output_processor@DV?$string_output_adapter@D@__crt_stdio_output@@V?$format_validation_base@DV?$string_output_adapter@D@__crt_stdio_output@@@2@@__crt_stdio_output@@AEAA_NXZ 000000014003e89c f i libucrt:output.obj
 0001:0003d8a4       ?type_case_X@?$output_processor@DV?$string_output_adapter@D@__crt_stdio_output@@V?$positional_parameter_base@DV?$string_output_adapter@D@__crt_stdio_output@@@2@@__crt_stdio_output@@AEAA_NXZ 000000014003e8a4 f i libucrt:output.obj
 0001:0003d8ac       ?type_case_X@?$output_processor@DV?$string_output_adapter@D@__crt_stdio_output@@V?$standard_base@DV?$string_output_adapter@D@__crt_stdio_output@@@2@@__crt_stdio_output@@AEAA_NXZ 000000014003e8ac f i libucrt:output.obj
 0001:0003d8b4       ?type_case_X@?$output_processor@_WV?$stream_output_adapter@_W@__crt_stdio_output@@V?$format_validation_base@_WV?$stream_output_adapter@_W@__crt_stdio_output@@@2@@__crt_stdio_output@@AEAA_NXZ 000000014003e8b4 f i libucrt:output.obj
 0001:0003d8bc       ?type_case_X@?$output_processor@_WV?$stream_output_adapter@_W@__crt_stdio_output@@V?$positional_parameter_base@_WV?$stream_output_adapter@_W@__crt_stdio_output@@@2@@__crt_stdio_output@@AEAA_NXZ 000000014003e8bc f i libucrt:output.obj
 0001:0003d8c4       ?type_case_X@?$output_processor@_WV?$stream_output_adapter@_W@__crt_stdio_output@@V?$standard_base@_WV?$stream_output_adapter@_W@__crt_stdio_output@@@2@@__crt_stdio_output@@AEAA_NXZ 000000014003e8c4 f i libucrt:output.obj
 0001:0003d8cc       ?type_case_X@?$output_processor@_WV?$string_output_adapter@_W@__crt_stdio_output@@V?$format_validation_base@_WV?$string_output_adapter@_W@__crt_stdio_output@@@2@@__crt_stdio_output@@AEAA_NXZ 000000014003e8cc f i libucrt:output.obj
 0001:0003d8d4       ?type_case_X@?$output_processor@_WV?$string_output_adapter@_W@__crt_stdio_output@@V?$positional_parameter_base@_WV?$string_output_adapter@_W@__crt_stdio_output@@@2@@__crt_stdio_output@@AEAA_NXZ 000000014003e8d4 f i libucrt:output.obj
 0001:0003d8dc       ?type_case_X@?$output_processor@_WV?$string_output_adapter@_W@__crt_stdio_output@@V?$standard_base@_WV?$string_output_adapter@_W@__crt_stdio_output@@@2@@__crt_stdio_output@@AEAA_NXZ 000000014003e8dc f i libucrt:output.obj
 0001:0003d8e4       ?type_case_Z@?$output_processor@DV?$stream_output_adapter@D@__crt_stdio_output@@V?$format_validation_base@DV?$stream_output_adapter@D@__crt_stdio_output@@@2@@__crt_stdio_output@@AEAA_NXZ 000000014003e8e4 f i libucrt:output.obj
 0001:0003d980       ?type_case_Z@?$output_processor@DV?$stream_output_adapter@D@__crt_stdio_output@@V?$positional_parameter_base@DV?$stream_output_adapter@D@__crt_stdio_output@@@2@@__crt_stdio_output@@AEAA_NXZ 000000014003e980 f i libucrt:output.obj
 0001:0003da50       ?type_case_Z@?$output_processor@DV?$stream_output_adapter@D@__crt_stdio_output@@V?$standard_base@DV?$stream_output_adapter@D@__crt_stdio_output@@@2@@__crt_stdio_output@@AEAA_NXZ 000000014003ea50 f i libucrt:output.obj
 0001:0003daec       ?type_case_Z@?$output_processor@DV?$string_output_adapter@D@__crt_stdio_output@@V?$format_validation_base@DV?$string_output_adapter@D@__crt_stdio_output@@@2@@__crt_stdio_output@@AEAA_NXZ 000000014003eaec f i libucrt:output.obj
 0001:0003db88       ?type_case_Z@?$output_processor@DV?$string_output_adapter@D@__crt_stdio_output@@V?$positional_parameter_base@DV?$string_output_adapter@D@__crt_stdio_output@@@2@@__crt_stdio_output@@AEAA_NXZ 000000014003eb88 f i libucrt:output.obj
 0001:0003dc58       ?type_case_Z@?$output_processor@DV?$string_output_adapter@D@__crt_stdio_output@@V?$standard_base@DV?$string_output_adapter@D@__crt_stdio_output@@@2@@__crt_stdio_output@@AEAA_NXZ 000000014003ec58 f i libucrt:output.obj
 0001:0003dcf4       ?type_case_Z@?$output_processor@_WV?$stream_output_adapter@_W@__crt_stdio_output@@V?$format_validation_base@_WV?$stream_output_adapter@_W@__crt_stdio_output@@@2@@__crt_stdio_output@@AEAA_NXZ 000000014003ecf4 f i libucrt:output.obj
 0001:0003dd90       ?type_case_Z@?$output_processor@_WV?$stream_output_adapter@_W@__crt_stdio_output@@V?$positional_parameter_base@_WV?$stream_output_adapter@_W@__crt_stdio_output@@@2@@__crt_stdio_output@@AEAA_NXZ 000000014003ed90 f i libucrt:output.obj
 0001:0003de4c       ?type_case_Z@?$output_processor@_WV?$stream_output_adapter@_W@__crt_stdio_output@@V?$standard_base@_WV?$stream_output_adapter@_W@__crt_stdio_output@@@2@@__crt_stdio_output@@AEAA_NXZ 000000014003ee4c f i libucrt:output.obj
 0001:0003dee8       ?type_case_Z@?$output_processor@_WV?$string_output_adapter@_W@__crt_stdio_output@@V?$format_validation_base@_WV?$string_output_adapter@_W@__crt_stdio_output@@@2@@__crt_stdio_output@@AEAA_NXZ 000000014003eee8 f i libucrt:output.obj
 0001:0003df84       ?type_case_Z@?$output_processor@_WV?$string_output_adapter@_W@__crt_stdio_output@@V?$positional_parameter_base@_WV?$string_output_adapter@_W@__crt_stdio_output@@@2@@__crt_stdio_output@@AEAA_NXZ 000000014003ef84 f i libucrt:output.obj
 0001:0003e040       ?type_case_Z@?$output_processor@_WV?$string_output_adapter@_W@__crt_stdio_output@@V?$standard_base@_WV?$string_output_adapter@_W@__crt_stdio_output@@@2@@__crt_stdio_output@@AEAA_NXZ 000000014003f040 f i libucrt:output.obj
 0001:0003e0dc       ?type_case_a@?$output_processor@DV?$stream_output_adapter@D@__crt_stdio_output@@V?$format_validation_base@DV?$stream_output_adapter@D@__crt_stdio_output@@@2@@__crt_stdio_output@@AEAA_NXZ 000000014003f0dc f i libucrt:output.obj
 0001:0003e3c4       ?type_case_a@?$output_processor@DV?$stream_output_adapter@D@__crt_stdio_output@@V?$positional_parameter_base@DV?$stream_output_adapter@D@__crt_stdio_output@@@2@@__crt_stdio_output@@AEAA_NXZ 000000014003f3c4 f i libucrt:output.obj
 0001:0003e6e0       ?type_case_a@?$output_processor@DV?$stream_output_adapter@D@__crt_stdio_output@@V?$standard_base@DV?$stream_output_adapter@D@__crt_stdio_output@@@2@@__crt_stdio_output@@AEAA_NXZ 000000014003f6e0 f i libucrt:output.obj
 0001:0003e9c8       ?type_case_a@?$output_processor@DV?$string_output_adapter@D@__crt_stdio_output@@V?$format_validation_base@DV?$string_output_adapter@D@__crt_stdio_output@@@2@@__crt_stdio_output@@AEAA_NXZ 000000014003f9c8 f i libucrt:output.obj
 0001:0003ecb0       ?type_case_a@?$output_processor@DV?$string_output_adapter@D@__crt_stdio_output@@V?$positional_parameter_base@DV?$string_output_adapter@D@__crt_stdio_output@@@2@@__crt_stdio_output@@AEAA_NXZ 000000014003fcb0 f i libucrt:output.obj
 0001:0003efcc       ?type_case_a@?$output_processor@DV?$string_output_adapter@D@__crt_stdio_output@@V?$standard_base@DV?$string_output_adapter@D@__crt_stdio_output@@@2@@__crt_stdio_output@@AEAA_NXZ 000000014003ffcc f i libucrt:output.obj
 0001:0003f2b4       ?type_case_a@?$output_processor@_WV?$stream_output_adapter@_W@__crt_stdio_output@@V?$format_validation_base@_WV?$stream_output_adapter@_W@__crt_stdio_output@@@2@@__crt_stdio_output@@AEAA_NXZ 00000001400402b4 f i libucrt:output.obj
 0001:0003f5b4       ?type_case_a@?$output_processor@_WV?$stream_output_adapter@_W@__crt_stdio_output@@V?$positional_parameter_base@_WV?$stream_output_adapter@_W@__crt_stdio_output@@@2@@__crt_stdio_output@@AEAA_NXZ 00000001400405b4 f i libucrt:output.obj
 0001:0003f8ec       ?type_case_a@?$output_processor@_WV?$stream_output_adapter@_W@__crt_stdio_output@@V?$standard_base@_WV?$stream_output_adapter@_W@__crt_stdio_output@@@2@@__crt_stdio_output@@AEAA_NXZ 00000001400408ec f i libucrt:output.obj
 0001:0003fbec       ?type_case_a@?$output_processor@_WV?$string_output_adapter@_W@__crt_stdio_output@@V?$format_validation_base@_WV?$string_output_adapter@_W@__crt_stdio_output@@@2@@__crt_stdio_output@@AEAA_NXZ 0000000140040bec f i libucrt:output.obj
 0001:0003feec       ?type_case_a@?$output_processor@_WV?$string_output_adapter@_W@__crt_stdio_output@@V?$positional_parameter_base@_WV?$string_output_adapter@_W@__crt_stdio_output@@@2@@__crt_stdio_output@@AEAA_NXZ 0000000140040eec f i libucrt:output.obj
 0001:00040224       ?type_case_a@?$output_processor@_WV?$string_output_adapter@_W@__crt_stdio_output@@V?$standard_base@_WV?$string_output_adapter@_W@__crt_stdio_output@@@2@@__crt_stdio_output@@AEAA_NXZ 0000000140041224 f i libucrt:output.obj
 0001:00040524       ?type_case_c@?$output_processor@DV?$stream_output_adapter@D@__crt_stdio_output@@V?$format_validation_base@DV?$stream_output_adapter@D@__crt_stdio_output@@@2@@__crt_stdio_output@@AEAA_NXZ 0000000140041524 f i libucrt:output.obj
 0001:0004052c       ?type_case_c@?$output_processor@DV?$stream_output_adapter@D@__crt_stdio_output@@V?$positional_parameter_base@DV?$stream_output_adapter@D@__crt_stdio_output@@@2@@__crt_stdio_output@@AEAA_NXZ 000000014004152c f i libucrt:output.obj
 0001:00040534       ?type_case_c@?$output_processor@DV?$stream_output_adapter@D@__crt_stdio_output@@V?$standard_base@DV?$stream_output_adapter@D@__crt_stdio_output@@@2@@__crt_stdio_output@@AEAA_NXZ 0000000140041534 f i libucrt:output.obj
 0001:0004053c       ?type_case_c@?$output_processor@DV?$string_output_adapter@D@__crt_stdio_output@@V?$format_validation_base@DV?$string_output_adapter@D@__crt_stdio_output@@@2@@__crt_stdio_output@@AEAA_NXZ 000000014004153c f i libucrt:output.obj
 0001:00040544       ?type_case_c@?$output_processor@DV?$string_output_adapter@D@__crt_stdio_output@@V?$positional_parameter_base@DV?$string_output_adapter@D@__crt_stdio_output@@@2@@__crt_stdio_output@@AEAA_NXZ 0000000140041544 f i libucrt:output.obj
 0001:0004054c       ?type_case_c@?$output_processor@DV?$string_output_adapter@D@__crt_stdio_output@@V?$standard_base@DV?$string_output_adapter@D@__crt_stdio_output@@@2@@__crt_stdio_output@@AEAA_NXZ 000000014004154c f i libucrt:output.obj
 0001:00040554       ?type_case_c@?$output_processor@_WV?$stream_output_adapter@_W@__crt_stdio_output@@V?$format_validation_base@_WV?$stream_output_adapter@_W@__crt_stdio_output@@@2@@__crt_stdio_output@@AEAA_NXZ 0000000140041554 f i libucrt:output.obj
 0001:0004055c       ?type_case_c@?$output_processor@_WV?$stream_output_adapter@_W@__crt_stdio_output@@V?$positional_parameter_base@_WV?$stream_output_adapter@_W@__crt_stdio_output@@@2@@__crt_stdio_output@@AEAA_NXZ 000000014004155c f i libucrt:output.obj
 0001:00040564       ?type_case_c@?$output_processor@_WV?$stream_output_adapter@_W@__crt_stdio_output@@V?$standard_base@_WV?$stream_output_adapter@_W@__crt_stdio_output@@@2@@__crt_stdio_output@@AEAA_NXZ 0000000140041564 f i libucrt:output.obj
 0001:0004056c       ?type_case_c@?$output_processor@_WV?$string_output_adapter@_W@__crt_stdio_output@@V?$format_validation_base@_WV?$string_output_adapter@_W@__crt_stdio_output@@@2@@__crt_stdio_output@@AEAA_NXZ 000000014004156c f i libucrt:output.obj
 0001:00040574       ?type_case_c@?$output_processor@_WV?$string_output_adapter@_W@__crt_stdio_output@@V?$positional_parameter_base@_WV?$string_output_adapter@_W@__crt_stdio_output@@@2@@__crt_stdio_output@@AEAA_NXZ 0000000140041574 f i libucrt:output.obj
 0001:0004057c       ?type_case_c@?$output_processor@_WV?$string_output_adapter@_W@__crt_stdio_output@@V?$standard_base@_WV?$string_output_adapter@_W@__crt_stdio_output@@@2@@__crt_stdio_output@@AEAA_NXZ 000000014004157c f i libucrt:output.obj
 0001:00040584       ?type_case_c_tchar@?$output_processor@DV?$stream_output_adapter@D@__crt_stdio_output@@V?$format_validation_base@DV?$stream_output_adapter@D@__crt_stdio_output@@@2@@__crt_stdio_output@@AEAA_ND@Z 0000000140041584 f i libucrt:output.obj
 0001:0004068c       ?type_case_c_tchar@?$output_processor@DV?$stream_output_adapter@D@__crt_stdio_output@@V?$positional_parameter_base@DV?$stream_output_adapter@D@__crt_stdio_output@@@2@@__crt_stdio_output@@AEAA_ND@Z 000000014004168c f i libucrt:output.obj
 0001:000407ec       ?type_case_c_tchar@?$output_processor@DV?$stream_output_adapter@D@__crt_stdio_output@@V?$standard_base@DV?$stream_output_adapter@D@__crt_stdio_output@@@2@@__crt_stdio_output@@AEAA_ND@Z 00000001400417ec f i libucrt:output.obj
 0001:000408f4       ?type_case_c_tchar@?$output_processor@DV?$string_output_adapter@D@__crt_stdio_output@@V?$format_validation_base@DV?$string_output_adapter@D@__crt_stdio_output@@@2@@__crt_stdio_output@@AEAA_ND@Z 00000001400418f4 f i libucrt:output.obj
 0001:000409fc       ?type_case_c_tchar@?$output_processor@DV?$string_output_adapter@D@__crt_stdio_output@@V?$positional_parameter_base@DV?$string_output_adapter@D@__crt_stdio_output@@@2@@__crt_stdio_output@@AEAA_ND@Z 00000001400419fc f i libucrt:output.obj
 0001:00040b5c       ?type_case_c_tchar@?$output_processor@DV?$string_output_adapter@D@__crt_stdio_output@@V?$standard_base@DV?$string_output_adapter@D@__crt_stdio_output@@@2@@__crt_stdio_output@@AEAA_ND@Z 0000000140041b5c f i libucrt:output.obj
 0001:00040c64       ?type_case_c_tchar@?$output_processor@_WV?$stream_output_adapter@_W@__crt_stdio_output@@V?$format_validation_base@_WV?$stream_output_adapter@_W@__crt_stdio_output@@@2@@__crt_stdio_output@@AEAA_N_W@Z 0000000140041c64 f i libucrt:output.obj
 0001:00040d5c       ?type_case_c_tchar@?$output_processor@_WV?$stream_output_adapter@_W@__crt_stdio_output@@V?$positional_parameter_base@_WV?$stream_output_adapter@_W@__crt_stdio_output@@@2@@__crt_stdio_output@@AEAA_N_W@Z 0000000140041d5c f i libucrt:output.obj
 0001:00040e90       ?type_case_c_tchar@?$output_processor@_WV?$stream_output_adapter@_W@__crt_stdio_output@@V?$standard_base@_WV?$stream_output_adapter@_W@__crt_stdio_output@@@2@@__crt_stdio_output@@AEAA_N_W@Z 0000000140041e90 f i libucrt:output.obj
 0001:00040f88       ?type_case_c_tchar@?$output_processor@_WV?$string_output_adapter@_W@__crt_stdio_output@@V?$format_validation_base@_WV?$string_output_adapter@_W@__crt_stdio_output@@@2@@__crt_stdio_output@@AEAA_N_W@Z 0000000140041f88 f i libucrt:output.obj
 0001:00041080       ?type_case_c_tchar@?$output_processor@_WV?$string_output_adapter@_W@__crt_stdio_output@@V?$positional_parameter_base@_WV?$string_output_adapter@_W@__crt_stdio_output@@@2@@__crt_stdio_output@@AEAA_N_W@Z 0000000140042080 f i libucrt:output.obj
 0001:000411b4       ?type_case_c_tchar@?$output_processor@_WV?$string_output_adapter@_W@__crt_stdio_output@@V?$standard_base@_WV?$string_output_adapter@_W@__crt_stdio_output@@@2@@__crt_stdio_output@@AEAA_N_W@Z 00000001400421b4 f i libucrt:output.obj
 0001:000412ac       ?type_case_d@?$output_processor@DV?$stream_output_adapter@D@__crt_stdio_output@@V?$format_validation_base@DV?$stream_output_adapter@D@__crt_stdio_output@@@2@@__crt_stdio_output@@AEAA_NXZ 00000001400422ac f i libucrt:output.obj
 0001:000412bc       ?type_case_d@?$output_processor@DV?$stream_output_adapter@D@__crt_stdio_output@@V?$positional_parameter_base@DV?$stream_output_adapter@D@__crt_stdio_output@@@2@@__crt_stdio_output@@AEAA_NXZ 00000001400422bc f i libucrt:output.obj
 0001:000412cc       ?type_case_d@?$output_processor@DV?$stream_output_adapter@D@__crt_stdio_output@@V?$standard_base@DV?$stream_output_adapter@D@__crt_stdio_output@@@2@@__crt_stdio_output@@AEAA_NXZ 00000001400422cc f i libucrt:output.obj
 0001:000412dc       ?type_case_d@?$output_processor@DV?$string_output_adapter@D@__crt_stdio_output@@V?$format_validation_base@DV?$string_output_adapter@D@__crt_stdio_output@@@2@@__crt_stdio_output@@AEAA_NXZ 00000001400422dc f i libucrt:output.obj
 0001:000412ec       ?type_case_d@?$output_processor@DV?$string_output_adapter@D@__crt_stdio_output@@V?$positional_parameter_base@DV?$string_output_adapter@D@__crt_stdio_output@@@2@@__crt_stdio_output@@AEAA_NXZ 00000001400422ec f i libucrt:output.obj
 0001:000412fc       ?type_case_d@?$output_processor@DV?$string_output_adapter@D@__crt_stdio_output@@V?$standard_base@DV?$string_output_adapter@D@__crt_stdio_output@@@2@@__crt_stdio_output@@AEAA_NXZ 00000001400422fc f i libucrt:output.obj
 0001:0004130c       ?type_case_d@?$output_processor@_WV?$stream_output_adapter@_W@__crt_stdio_output@@V?$format_validation_base@_WV?$stream_output_adapter@_W@__crt_stdio_output@@@2@@__crt_stdio_output@@AEAA_NXZ 000000014004230c f i libucrt:output.obj
 0001:0004131c       ?type_case_d@?$output_processor@_WV?$stream_output_adapter@_W@__crt_stdio_output@@V?$positional_parameter_base@_WV?$stream_output_adapter@_W@__crt_stdio_output@@@2@@__crt_stdio_output@@AEAA_NXZ 000000014004231c f i libucrt:output.obj
 0001:0004132c       ?type_case_d@?$output_processor@_WV?$stream_output_adapter@_W@__crt_stdio_output@@V?$standard_base@_WV?$stream_output_adapter@_W@__crt_stdio_output@@@2@@__crt_stdio_output@@AEAA_NXZ 000000014004232c f i libucrt:output.obj
 0001:0004133c       ?type_case_d@?$output_processor@_WV?$string_output_adapter@_W@__crt_stdio_output@@V?$format_validation_base@_WV?$string_output_adapter@_W@__crt_stdio_output@@@2@@__crt_stdio_output@@AEAA_NXZ 000000014004233c f i libucrt:output.obj
 0001:0004134c       ?type_case_d@?$output_processor@_WV?$string_output_adapter@_W@__crt_stdio_output@@V?$positional_parameter_base@_WV?$string_output_adapter@_W@__crt_stdio_output@@@2@@__crt_stdio_output@@AEAA_NXZ 000000014004234c f i libucrt:output.obj
 0001:0004135c       ?type_case_d@?$output_processor@_WV?$string_output_adapter@_W@__crt_stdio_output@@V?$standard_base@_WV?$string_output_adapter@_W@__crt_stdio_output@@@2@@__crt_stdio_output@@AEAA_NXZ 000000014004235c f i libucrt:output.obj
 0001:0004136c       ?type_case_n@?$output_processor@DV?$stream_output_adapter@D@__crt_stdio_output@@V?$format_validation_base@DV?$stream_output_adapter@D@__crt_stdio_output@@@2@@__crt_stdio_output@@AEAA_NXZ 000000014004236c f i libucrt:output.obj
 0001:00041450       ?type_case_n@?$output_processor@DV?$stream_output_adapter@D@__crt_stdio_output@@V?$positional_parameter_base@DV?$stream_output_adapter@D@__crt_stdio_output@@@2@@__crt_stdio_output@@AEAA_NXZ 0000000140042450 f i libucrt:output.obj
 0001:0004156c       ?type_case_n@?$output_processor@DV?$stream_output_adapter@D@__crt_stdio_output@@V?$standard_base@DV?$stream_output_adapter@D@__crt_stdio_output@@@2@@__crt_stdio_output@@AEAA_NXZ 000000014004256c f i libucrt:output.obj
 0001:00041650       ?type_case_n@?$output_processor@DV?$string_output_adapter@D@__crt_stdio_output@@V?$format_validation_base@DV?$string_output_adapter@D@__crt_stdio_output@@@2@@__crt_stdio_output@@AEAA_NXZ 0000000140042650 f i libucrt:output.obj
 0001:00041734       ?type_case_n@?$output_processor@DV?$string_output_adapter@D@__crt_stdio_output@@V?$positional_parameter_base@DV?$string_output_adapter@D@__crt_stdio_output@@@2@@__crt_stdio_output@@AEAA_NXZ 0000000140042734 f i libucrt:output.obj
 0001:00041850       ?type_case_n@?$output_processor@DV?$string_output_adapter@D@__crt_stdio_output@@V?$standard_base@DV?$string_output_adapter@D@__crt_stdio_output@@@2@@__crt_stdio_output@@AEAA_NXZ 0000000140042850 f i libucrt:output.obj
 0001:00041934       ?type_case_n@?$output_processor@_WV?$stream_output_adapter@_W@__crt_stdio_output@@V?$format_validation_base@_WV?$stream_output_adapter@_W@__crt_stdio_output@@@2@@__crt_stdio_output@@AEAA_NXZ 0000000140042934 f i libucrt:output.obj
 0001:00041a18       ?type_case_n@?$output_processor@_WV?$stream_output_adapter@_W@__crt_stdio_output@@V?$positional_parameter_base@_WV?$stream_output_adapter@_W@__crt_stdio_output@@@2@@__crt_stdio_output@@AEAA_NXZ 0000000140042a18 f i libucrt:output.obj
 0001:00041b34       ?type_case_n@?$output_processor@_WV?$stream_output_adapter@_W@__crt_stdio_output@@V?$standard_base@_WV?$stream_output_adapter@_W@__crt_stdio_output@@@2@@__crt_stdio_output@@AEAA_NXZ 0000000140042b34 f i libucrt:output.obj
 0001:00041c18       ?type_case_n@?$output_processor@_WV?$string_output_adapter@_W@__crt_stdio_output@@V?$format_validation_base@_WV?$string_output_adapter@_W@__crt_stdio_output@@@2@@__crt_stdio_output@@AEAA_NXZ 0000000140042c18 f i libucrt:output.obj
 0001:00041cfc       ?type_case_n@?$output_processor@_WV?$string_output_adapter@_W@__crt_stdio_output@@V?$positional_parameter_base@_WV?$string_output_adapter@_W@__crt_stdio_output@@@2@@__crt_stdio_output@@AEAA_NXZ 0000000140042cfc f i libucrt:output.obj
 0001:00041e18       ?type_case_n@?$output_processor@_WV?$string_output_adapter@_W@__crt_stdio_output@@V?$standard_base@_WV?$string_output_adapter@_W@__crt_stdio_output@@@2@@__crt_stdio_output@@AEAA_NXZ 0000000140042e18 f i libucrt:output.obj
 0001:00041efc       ?type_case_o@?$output_processor@DV?$stream_output_adapter@D@__crt_stdio_output@@V?$format_validation_base@DV?$stream_output_adapter@D@__crt_stdio_output@@@2@@__crt_stdio_output@@AEAA_NXZ 0000000140042efc f i libucrt:output.obj
 0001:00041f1c       ?type_case_o@?$output_processor@DV?$stream_output_adapter@D@__crt_stdio_output@@V?$positional_parameter_base@DV?$stream_output_adapter@D@__crt_stdio_output@@@2@@__crt_stdio_output@@AEAA_NXZ 0000000140042f1c f i libucrt:output.obj
 0001:00041f3c       ?type_case_o@?$output_processor@DV?$stream_output_adapter@D@__crt_stdio_output@@V?$standard_base@DV?$stream_output_adapter@D@__crt_stdio_output@@@2@@__crt_stdio_output@@AEAA_NXZ 0000000140042f3c f i libucrt:output.obj
 0001:00041f5c       ?type_case_o@?$output_processor@DV?$string_output_adapter@D@__crt_stdio_output@@V?$format_validation_base@DV?$string_output_adapter@D@__crt_stdio_output@@@2@@__crt_stdio_output@@AEAA_NXZ 0000000140042f5c f i libucrt:output.obj
 0001:00041f7c       ?type_case_o@?$output_processor@DV?$string_output_adapter@D@__crt_stdio_output@@V?$positional_parameter_base@DV?$string_output_adapter@D@__crt_stdio_output@@@2@@__crt_stdio_output@@AEAA_NXZ 0000000140042f7c f i libucrt:output.obj
 0001:00041f9c       ?type_case_o@?$output_processor@DV?$string_output_adapter@D@__crt_stdio_output@@V?$standard_base@DV?$string_output_adapter@D@__crt_stdio_output@@@2@@__crt_stdio_output@@AEAA_NXZ 0000000140042f9c f i libucrt:output.obj
 0001:00041fbc       ?type_case_o@?$output_processor@_WV?$stream_output_adapter@_W@__crt_stdio_output@@V?$format_validation_base@_WV?$stream_output_adapter@_W@__crt_stdio_output@@@2@@__crt_stdio_output@@AEAA_NXZ 0000000140042fbc f i libucrt:output.obj
 0001:00041fdc       ?type_case_o@?$output_processor@_WV?$stream_output_adapter@_W@__crt_stdio_output@@V?$positional_parameter_base@_WV?$stream_output_adapter@_W@__crt_stdio_output@@@2@@__crt_stdio_output@@AEAA_NXZ 0000000140042fdc f i libucrt:output.obj
 0001:00041ffc       ?type_case_o@?$output_processor@_WV?$stream_output_adapter@_W@__crt_stdio_output@@V?$standard_base@_WV?$stream_output_adapter@_W@__crt_stdio_output@@@2@@__crt_stdio_output@@AEAA_NXZ 0000000140042ffc f i libucrt:output.obj
 0001:0004201c       ?type_case_o@?$output_processor@_WV?$string_output_adapter@_W@__crt_stdio_output@@V?$format_validation_base@_WV?$string_output_adapter@_W@__crt_stdio_output@@@2@@__crt_stdio_output@@AEAA_NXZ 000000014004301c f i libucrt:output.obj
 0001:0004203c       ?type_case_o@?$output_processor@_WV?$string_output_adapter@_W@__crt_stdio_output@@V?$positional_parameter_base@_WV?$string_output_adapter@_W@__crt_stdio_output@@@2@@__crt_stdio_output@@AEAA_NXZ 000000014004303c f i libucrt:output.obj
 0001:0004205c       ?type_case_o@?$output_processor@_WV?$string_output_adapter@_W@__crt_stdio_output@@V?$standard_base@_WV?$string_output_adapter@_W@__crt_stdio_output@@@2@@__crt_stdio_output@@AEAA_NXZ 000000014004305c f i libucrt:output.obj
 0001:0004207c       ?type_case_p@?$output_processor@DV?$stream_output_adapter@D@__crt_stdio_output@@V?$format_validation_base@DV?$stream_output_adapter@D@__crt_stdio_output@@@2@@__crt_stdio_output@@AEAA_NXZ 000000014004307c f i libucrt:output.obj
 0001:00042098       ?type_case_p@?$output_processor@DV?$stream_output_adapter@D@__crt_stdio_output@@V?$positional_parameter_base@DV?$stream_output_adapter@D@__crt_stdio_output@@@2@@__crt_stdio_output@@AEAA_NXZ 0000000140043098 f i libucrt:output.obj
 0001:000420b4       ?type_case_p@?$output_processor@DV?$stream_output_adapter@D@__crt_stdio_output@@V?$standard_base@DV?$stream_output_adapter@D@__crt_stdio_output@@@2@@__crt_stdio_output@@AEAA_NXZ 00000001400430b4 f i libucrt:output.obj
 0001:000420d0       ?type_case_p@?$output_processor@DV?$string_output_adapter@D@__crt_stdio_output@@V?$format_validation_base@DV?$string_output_adapter@D@__crt_stdio_output@@@2@@__crt_stdio_output@@AEAA_NXZ 00000001400430d0 f i libucrt:output.obj
 0001:000420ec       ?type_case_p@?$output_processor@DV?$string_output_adapter@D@__crt_stdio_output@@V?$positional_parameter_base@DV?$string_output_adapter@D@__crt_stdio_output@@@2@@__crt_stdio_output@@AEAA_NXZ 00000001400430ec f i libucrt:output.obj
 0001:00042108       ?type_case_p@?$output_processor@DV?$string_output_adapter@D@__crt_stdio_output@@V?$standard_base@DV?$string_output_adapter@D@__crt_stdio_output@@@2@@__crt_stdio_output@@AEAA_NXZ 0000000140043108 f i libucrt:output.obj
 0001:00042124       ?type_case_p@?$output_processor@_WV?$stream_output_adapter@_W@__crt_stdio_output@@V?$format_validation_base@_WV?$stream_output_adapter@_W@__crt_stdio_output@@@2@@__crt_stdio_output@@AEAA_NXZ 0000000140043124 f i libucrt:output.obj
 0001:00042140       ?type_case_p@?$output_processor@_WV?$stream_output_adapter@_W@__crt_stdio_output@@V?$positional_parameter_base@_WV?$stream_output_adapter@_W@__crt_stdio_output@@@2@@__crt_stdio_output@@AEAA_NXZ 0000000140043140 f i libucrt:output.obj
 0001:0004215c       ?type_case_p@?$output_processor@_WV?$stream_output_adapter@_W@__crt_stdio_output@@V?$standard_base@_WV?$stream_output_adapter@_W@__crt_stdio_output@@@2@@__crt_stdio_output@@AEAA_NXZ 000000014004315c f i libucrt:output.obj
 0001:00042178       ?type_case_p@?$output_processor@_WV?$string_output_adapter@_W@__crt_stdio_output@@V?$format_validation_base@_WV?$string_output_adapter@_W@__crt_stdio_output@@@2@@__crt_stdio_output@@AEAA_NXZ 0000000140043178 f i libucrt:output.obj
 0001:00042194       ?type_case_p@?$output_processor@_WV?$string_output_adapter@_W@__crt_stdio_output@@V?$positional_parameter_base@_WV?$string_output_adapter@_W@__crt_stdio_output@@@2@@__crt_stdio_output@@AEAA_NXZ 0000000140043194 f i libucrt:output.obj
 0001:000421b0       ?type_case_p@?$output_processor@_WV?$string_output_adapter@_W@__crt_stdio_output@@V?$standard_base@_WV?$string_output_adapter@_W@__crt_stdio_output@@@2@@__crt_stdio_output@@AEAA_NXZ 00000001400431b0 f i libucrt:output.obj
 0001:000421cc       ?type_case_s@?$output_processor@DV?$stream_output_adapter@D@__crt_stdio_output@@V?$format_validation_base@DV?$stream_output_adapter@D@__crt_stdio_output@@@2@@__crt_stdio_output@@AEAA_NXZ 00000001400431cc f i libucrt:output.obj
 0001:0004228c       ?type_case_s@?$output_processor@DV?$stream_output_adapter@D@__crt_stdio_output@@V?$positional_parameter_base@DV?$stream_output_adapter@D@__crt_stdio_output@@@2@@__crt_stdio_output@@AEAA_NXZ 000000014004328c f i libucrt:output.obj
 0001:00042378       ?type_case_s@?$output_processor@DV?$stream_output_adapter@D@__crt_stdio_output@@V?$standard_base@DV?$stream_output_adapter@D@__crt_stdio_output@@@2@@__crt_stdio_output@@AEAA_NXZ 0000000140043378 f i libucrt:output.obj
 0001:00042438       ?type_case_s@?$output_processor@DV?$string_output_adapter@D@__crt_stdio_output@@V?$format_validation_base@DV?$string_output_adapter@D@__crt_stdio_output@@@2@@__crt_stdio_output@@AEAA_NXZ 0000000140043438 f i libucrt:output.obj
 0001:000424f8       ?type_case_s@?$output_processor@DV?$string_output_adapter@D@__crt_stdio_output@@V?$positional_parameter_base@DV?$string_output_adapter@D@__crt_stdio_output@@@2@@__crt_stdio_output@@AEAA_NXZ 00000001400434f8 f i libucrt:output.obj
 0001:000425e4       ?type_case_s@?$output_processor@DV?$string_output_adapter@D@__crt_stdio_output@@V?$standard_base@DV?$string_output_adapter@D@__crt_stdio_output@@@2@@__crt_stdio_output@@AEAA_NXZ 00000001400435e4 f i libucrt:output.obj
 0001:000426a4       ?type_case_s@?$output_processor@_WV?$stream_output_adapter@_W@__crt_stdio_output@@V?$format_validation_base@_WV?$stream_output_adapter@_W@__crt_stdio_output@@@2@@__crt_stdio_output@@AEAA_NXZ 00000001400436a4 f i libucrt:output.obj
 0001:00042768       ?type_case_s@?$output_processor@_WV?$stream_output_adapter@_W@__crt_stdio_output@@V?$positional_parameter_base@_WV?$stream_output_adapter@_W@__crt_stdio_output@@@2@@__crt_stdio_output@@AEAA_NXZ 0000000140043768 f i libucrt:output.obj
 0001:0004284c       ?type_case_s@?$output_processor@_WV?$stream_output_adapter@_W@__crt_stdio_output@@V?$standard_base@_WV?$stream_output_adapter@_W@__crt_stdio_output@@@2@@__crt_stdio_output@@AEAA_NXZ 000000014004384c f i libucrt:output.obj
 0001:00042910       ?type_case_s@?$output_processor@_WV?$string_output_adapter@_W@__crt_stdio_output@@V?$format_validation_base@_WV?$string_output_adapter@_W@__crt_stdio_output@@@2@@__crt_stdio_output@@AEAA_NXZ 0000000140043910 f i libucrt:output.obj
 0001:000429d4       ?type_case_s@?$output_processor@_WV?$string_output_adapter@_W@__crt_stdio_output@@V?$positional_parameter_base@_WV?$string_output_adapter@_W@__crt_stdio_output@@@2@@__crt_stdio_output@@AEAA_NXZ 00000001400439d4 f i libucrt:output.obj
 0001:00042ab8       ?type_case_s@?$output_processor@_WV?$string_output_adapter@_W@__crt_stdio_output@@V?$standard_base@_WV?$string_output_adapter@_W@__crt_stdio_output@@@2@@__crt_stdio_output@@AEAA_NXZ 0000000140043ab8 f i libucrt:output.obj
 0001:00042b7c       ?type_case_s_compute_narrow_string_length@?$output_processor@DV?$stream_output_adapter@D@__crt_stdio_output@@V?$format_validation_base@DV?$stream_output_adapter@D@__crt_stdio_output@@@2@@__crt_stdio_output@@AEAAHHD@Z 0000000140043b7c f i libucrt:output.obj
 0001:00042b8c       ?type_case_s_compute_narrow_string_length@?$output_processor@DV?$stream_output_adapter@D@__crt_stdio_output@@V?$positional_parameter_base@DV?$stream_output_adapter@D@__crt_stdio_output@@@2@@__crt_stdio_output@@AEAAHHD@Z 0000000140043b8c f i libucrt:output.obj
 0001:00042b9c       ?type_case_s_compute_narrow_string_length@?$output_processor@DV?$stream_output_adapter@D@__crt_stdio_output@@V?$standard_base@DV?$stream_output_adapter@D@__crt_stdio_output@@@2@@__crt_stdio_output@@AEAAHHD@Z 0000000140043b9c f i libucrt:output.obj
 0001:00042bac       ?type_case_s_compute_narrow_string_length@?$output_processor@DV?$string_output_adapter@D@__crt_stdio_output@@V?$format_validation_base@DV?$string_output_adapter@D@__crt_stdio_output@@@2@@__crt_stdio_output@@AEAAHHD@Z 0000000140043bac f i libucrt:output.obj
 0001:00042bbc       ?type_case_s_compute_narrow_string_length@?$output_processor@DV?$string_output_adapter@D@__crt_stdio_output@@V?$positional_parameter_base@DV?$string_output_adapter@D@__crt_stdio_output@@@2@@__crt_stdio_output@@AEAAHHD@Z 0000000140043bbc f i libucrt:output.obj
 0001:00042bcc       ?type_case_s_compute_narrow_string_length@?$output_processor@DV?$string_output_adapter@D@__crt_stdio_output@@V?$standard_base@DV?$string_output_adapter@D@__crt_stdio_output@@@2@@__crt_stdio_output@@AEAAHHD@Z 0000000140043bcc f i libucrt:output.obj
 0001:00042bdc       ?type_case_s_compute_narrow_string_length@?$output_processor@_WV?$stream_output_adapter@_W@__crt_stdio_output@@V?$format_validation_base@_WV?$stream_output_adapter@_W@__crt_stdio_output@@@2@@__crt_stdio_output@@AEAAHH_W@Z 0000000140043bdc f i libucrt:output.obj
 0001:00042c6c       ?type_case_s_compute_narrow_string_length@?$output_processor@_WV?$stream_output_adapter@_W@__crt_stdio_output@@V?$positional_parameter_base@_WV?$stream_output_adapter@_W@__crt_stdio_output@@@2@@__crt_stdio_output@@AEAAHH_W@Z 0000000140043c6c f i libucrt:output.obj
 0001:00042cfc       ?type_case_s_compute_narrow_string_length@?$output_processor@_WV?$stream_output_adapter@_W@__crt_stdio_output@@V?$standard_base@_WV?$stream_output_adapter@_W@__crt_stdio_output@@@2@@__crt_stdio_output@@AEAAHH_W@Z 0000000140043cfc f i libucrt:output.obj
 0001:00042d8c       ?type_case_s_compute_narrow_string_length@?$output_processor@_WV?$string_output_adapter@_W@__crt_stdio_output@@V?$format_validation_base@_WV?$string_output_adapter@_W@__crt_stdio_output@@@2@@__crt_stdio_output@@AEAAHH_W@Z 0000000140043d8c f i libucrt:output.obj
 0001:00042e1c       ?type_case_s_compute_narrow_string_length@?$output_processor@_WV?$string_output_adapter@_W@__crt_stdio_output@@V?$positional_parameter_base@_WV?$string_output_adapter@_W@__crt_stdio_output@@@2@@__crt_stdio_output@@AEAAHH_W@Z 0000000140043e1c f i libucrt:output.obj
 0001:00042eac       ?type_case_s_compute_narrow_string_length@?$output_processor@_WV?$string_output_adapter@_W@__crt_stdio_output@@V?$standard_base@_WV?$string_output_adapter@_W@__crt_stdio_output@@@2@@__crt_stdio_output@@AEAAHH_W@Z 0000000140043eac f i libucrt:output.obj
 0001:00042f3c       ?type_case_u@?$output_processor@DV?$stream_output_adapter@D@__crt_stdio_output@@V?$format_validation_base@DV?$stream_output_adapter@D@__crt_stdio_output@@@2@@__crt_stdio_output@@AEAA_NXZ 0000000140043f3c f i libucrt:output.obj
 0001:00042f44       ?type_case_u@?$output_processor@DV?$stream_output_adapter@D@__crt_stdio_output@@V?$positional_parameter_base@DV?$stream_output_adapter@D@__crt_stdio_output@@@2@@__crt_stdio_output@@AEAA_NXZ 0000000140043f44 f i libucrt:output.obj
 0001:00042f4c       ?type_case_u@?$output_processor@DV?$stream_output_adapter@D@__crt_stdio_output@@V?$standard_base@DV?$stream_output_adapter@D@__crt_stdio_output@@@2@@__crt_stdio_output@@AEAA_NXZ 0000000140043f4c f i libucrt:output.obj
 0001:00042f54       ?type_case_u@?$output_processor@DV?$string_output_adapter@D@__crt_stdio_output@@V?$format_validation_base@DV?$string_output_adapter@D@__crt_stdio_output@@@2@@__crt_stdio_output@@AEAA_NXZ 0000000140043f54 f i libucrt:output.obj
 0001:00042f5c       ?type_case_u@?$output_processor@DV?$string_output_adapter@D@__crt_stdio_output@@V?$positional_parameter_base@DV?$string_output_adapter@D@__crt_stdio_output@@@2@@__crt_stdio_output@@AEAA_NXZ 0000000140043f5c f i libucrt:output.obj
 0001:00042f64       ?type_case_u@?$output_processor@DV?$string_output_adapter@D@__crt_stdio_output@@V?$standard_base@DV?$string_output_adapter@D@__crt_stdio_output@@@2@@__crt_stdio_output@@AEAA_NXZ 0000000140043f64 f i libucrt:output.obj
 0001:00042f6c       ?type_case_u@?$output_processor@_WV?$stream_output_adapter@_W@__crt_stdio_output@@V?$format_validation_base@_WV?$stream_output_adapter@_W@__crt_stdio_output@@@2@@__crt_stdio_output@@AEAA_NXZ 0000000140043f6c f i libucrt:output.obj
 0001:00042f74       ?type_case_u@?$output_processor@_WV?$stream_output_adapter@_W@__crt_stdio_output@@V?$positional_parameter_base@_WV?$stream_output_adapter@_W@__crt_stdio_output@@@2@@__crt_stdio_output@@AEAA_NXZ 0000000140043f74 f i libucrt:output.obj
 0001:00042f7c       ?type_case_u@?$output_processor@_WV?$stream_output_adapter@_W@__crt_stdio_output@@V?$standard_base@_WV?$stream_output_adapter@_W@__crt_stdio_output@@@2@@__crt_stdio_output@@AEAA_NXZ 0000000140043f7c f i libucrt:output.obj
 0001:00042f84       ?type_case_u@?$output_processor@_WV?$string_output_adapter@_W@__crt_stdio_output@@V?$format_validation_base@_WV?$string_output_adapter@_W@__crt_stdio_output@@@2@@__crt_stdio_output@@AEAA_NXZ 0000000140043f84 f i libucrt:output.obj
 0001:00042f8c       ?type_case_u@?$output_processor@_WV?$string_output_adapter@_W@__crt_stdio_output@@V?$positional_parameter_base@_WV?$string_output_adapter@_W@__crt_stdio_output@@@2@@__crt_stdio_output@@AEAA_NXZ 0000000140043f8c f i libucrt:output.obj
 0001:00042f94       ?type_case_u@?$output_processor@_WV?$string_output_adapter@_W@__crt_stdio_output@@V?$standard_base@_WV?$string_output_adapter@_W@__crt_stdio_output@@@2@@__crt_stdio_output@@AEAA_NXZ 0000000140043f94 f i libucrt:output.obj
 0001:00042f9c       ?type_case_x@?$output_processor@DV?$stream_output_adapter@D@__crt_stdio_output@@V?$format_validation_base@DV?$stream_output_adapter@D@__crt_stdio_output@@@2@@__crt_stdio_output@@AEAA_NXZ 0000000140043f9c f i libucrt:output.obj
 0001:00042fa4       ?type_case_x@?$output_processor@DV?$stream_output_adapter@D@__crt_stdio_output@@V?$positional_parameter_base@DV?$stream_output_adapter@D@__crt_stdio_output@@@2@@__crt_stdio_output@@AEAA_NXZ 0000000140043fa4 f i libucrt:output.obj
 0001:00042fac       ?type_case_x@?$output_processor@DV?$stream_output_adapter@D@__crt_stdio_output@@V?$standard_base@DV?$stream_output_adapter@D@__crt_stdio_output@@@2@@__crt_stdio_output@@AEAA_NXZ 0000000140043fac f i libucrt:output.obj
 0001:00042fb4       ?type_case_x@?$output_processor@DV?$string_output_adapter@D@__crt_stdio_output@@V?$format_validation_base@DV?$string_output_adapter@D@__crt_stdio_output@@@2@@__crt_stdio_output@@AEAA_NXZ 0000000140043fb4 f i libucrt:output.obj
 0001:00042fbc       ?type_case_x@?$output_processor@DV?$string_output_adapter@D@__crt_stdio_output@@V?$positional_parameter_base@DV?$string_output_adapter@D@__crt_stdio_output@@@2@@__crt_stdio_output@@AEAA_NXZ 0000000140043fbc f i libucrt:output.obj
 0001:00042fc4       ?type_case_x@?$output_processor@DV?$string_output_adapter@D@__crt_stdio_output@@V?$standard_base@DV?$string_output_adapter@D@__crt_stdio_output@@@2@@__crt_stdio_output@@AEAA_NXZ 0000000140043fc4 f i libucrt:output.obj
 0001:00042fcc       ?type_case_x@?$output_processor@_WV?$stream_output_adapter@_W@__crt_stdio_output@@V?$format_validation_base@_WV?$stream_output_adapter@_W@__crt_stdio_output@@@2@@__crt_stdio_output@@AEAA_NXZ 0000000140043fcc f i libucrt:output.obj
 0001:00042fd4       ?type_case_x@?$output_processor@_WV?$stream_output_adapter@_W@__crt_stdio_output@@V?$positional_parameter_base@_WV?$stream_output_adapter@_W@__crt_stdio_output@@@2@@__crt_stdio_output@@AEAA_NXZ 0000000140043fd4 f i libucrt:output.obj
 0001:00042fdc       ?type_case_x@?$output_processor@_WV?$stream_output_adapter@_W@__crt_stdio_output@@V?$standard_base@_WV?$stream_output_adapter@_W@__crt_stdio_output@@@2@@__crt_stdio_output@@AEAA_NXZ 0000000140043fdc f i libucrt:output.obj
 0001:00042fe4       ?type_case_x@?$output_processor@_WV?$string_output_adapter@_W@__crt_stdio_output@@V?$format_validation_base@_WV?$string_output_adapter@_W@__crt_stdio_output@@@2@@__crt_stdio_output@@AEAA_NXZ 0000000140043fe4 f i libucrt:output.obj
 0001:00042fec       ?type_case_x@?$output_processor@_WV?$string_output_adapter@_W@__crt_stdio_output@@V?$positional_parameter_base@_WV?$string_output_adapter@_W@__crt_stdio_output@@@2@@__crt_stdio_output@@AEAA_NXZ 0000000140043fec f i libucrt:output.obj
 0001:00042ff4       ?type_case_x@?$output_processor@_WV?$string_output_adapter@_W@__crt_stdio_output@@V?$standard_base@_WV?$string_output_adapter@_W@__crt_stdio_output@@@2@@__crt_stdio_output@@AEAA_NXZ 0000000140043ff4 f i libucrt:output.obj
 0001:00042ffc       ?unget@?$c_string_character_source@D@__crt_strtox@@QEAAXD@Z 0000000140043ffc f i libucrt:output.obj
 0001:00043030       ?unget@?$c_string_character_source@_W@__crt_strtox@@QEAAX_W@Z 0000000140044030 f i libucrt:output.obj
 0001:00043068       ?unsafe_value@?$cached@H@__crt_cached_ptd_host@@QEAAHXZ 0000000140044068 f i libucrt:output.obj
 0001:0004306c       ?unsafe_value@?$cached@K@__crt_cached_ptd_host@@QEAAKXZ 000000014004406c f i libucrt:output.obj
 0001:00043070       ?unset_flag@?$output_processor@DV?$stream_output_adapter@D@__crt_stdio_output@@V?$format_validation_base@DV?$stream_output_adapter@D@__crt_stdio_output@@@2@@__crt_stdio_output@@AEAAXI@Z 0000000140044070 f i libucrt:output.obj
 0001:00043078       ?unset_flag@?$output_processor@DV?$stream_output_adapter@D@__crt_stdio_output@@V?$positional_parameter_base@DV?$stream_output_adapter@D@__crt_stdio_output@@@2@@__crt_stdio_output@@AEAAXI@Z 0000000140044078 f i libucrt:output.obj
 0001:00043080       ?unset_flag@?$output_processor@DV?$stream_output_adapter@D@__crt_stdio_output@@V?$standard_base@DV?$stream_output_adapter@D@__crt_stdio_output@@@2@@__crt_stdio_output@@AEAAXI@Z 0000000140044080 f i libucrt:output.obj
 0001:00043088       ?unset_flag@?$output_processor@DV?$string_output_adapter@D@__crt_stdio_output@@V?$format_validation_base@DV?$string_output_adapter@D@__crt_stdio_output@@@2@@__crt_stdio_output@@AEAAXI@Z 0000000140044088 f i libucrt:output.obj
 0001:00043090       ?unset_flag@?$output_processor@DV?$string_output_adapter@D@__crt_stdio_output@@V?$positional_parameter_base@DV?$string_output_adapter@D@__crt_stdio_output@@@2@@__crt_stdio_output@@AEAAXI@Z 0000000140044090 f i libucrt:output.obj
 0001:00043098       ?unset_flag@?$output_processor@DV?$string_output_adapter@D@__crt_stdio_output@@V?$standard_base@DV?$string_output_adapter@D@__crt_stdio_output@@@2@@__crt_stdio_output@@AEAAXI@Z 0000000140044098 f i libucrt:output.obj
 0001:000430a0       ?unset_flag@?$output_processor@_WV?$stream_output_adapter@_W@__crt_stdio_output@@V?$format_validation_base@_WV?$stream_output_adapter@_W@__crt_stdio_output@@@2@@__crt_stdio_output@@AEAAXI@Z 00000001400440a0 f i libucrt:output.obj
 0001:000430a8       ?unset_flag@?$output_processor@_WV?$stream_output_adapter@_W@__crt_stdio_output@@V?$positional_parameter_base@_WV?$stream_output_adapter@_W@__crt_stdio_output@@@2@@__crt_stdio_output@@AEAAXI@Z 00000001400440a8 f i libucrt:output.obj
 0001:000430b0       ?unset_flag@?$output_processor@_WV?$stream_output_adapter@_W@__crt_stdio_output@@V?$standard_base@_WV?$stream_output_adapter@_W@__crt_stdio_output@@@2@@__crt_stdio_output@@AEAAXI@Z 00000001400440b0 f i libucrt:output.obj
 0001:000430b8       ?unset_flag@?$output_processor@_WV?$string_output_adapter@_W@__crt_stdio_output@@V?$format_validation_base@_WV?$string_output_adapter@_W@__crt_stdio_output@@@2@@__crt_stdio_output@@AEAAXI@Z 00000001400440b8 f i libucrt:output.obj
 0001:000430c0       ?unset_flag@?$output_processor@_WV?$string_output_adapter@_W@__crt_stdio_output@@V?$positional_parameter_base@_WV?$string_output_adapter@_W@__crt_stdio_output@@@2@@__crt_stdio_output@@AEAAXI@Z 00000001400440c0 f i libucrt:output.obj
 0001:000430c8       ?unset_flag@?$output_processor@_WV?$string_output_adapter@_W@__crt_stdio_output@@V?$standard_base@_WV?$string_output_adapter@_W@__crt_stdio_output@@@2@@__crt_stdio_output@@AEAAXI@Z 00000001400440c8 f i libucrt:output.obj
 0001:000430d0       ?update_field_width@?$positional_parameter_base@DV?$stream_output_adapter@D@__crt_stdio_output@@@__crt_stdio_output@@IEAA_NXZ 00000001400440d0 f i libucrt:output.obj
 0001:0004329c       ?update_field_width@?$positional_parameter_base@DV?$string_output_adapter@D@__crt_stdio_output@@@__crt_stdio_output@@IEAA_NXZ 000000014004429c f i libucrt:output.obj
 0001:00043468       ?update_field_width@?$positional_parameter_base@_WV?$stream_output_adapter@_W@__crt_stdio_output@@@__crt_stdio_output@@IEAA_NXZ 0000000140044468 f i libucrt:output.obj
 0001:00043638       ?update_field_width@?$positional_parameter_base@_WV?$string_output_adapter@_W@__crt_stdio_output@@@__crt_stdio_output@@IEAA_NXZ 0000000140044638 f i libucrt:output.obj
 0001:00043808       ?update_field_width@?$standard_base@DV?$stream_output_adapter@D@__crt_stdio_output@@@__crt_stdio_output@@IEAA_NXZ 0000000140044808 f i libucrt:output.obj
 0001:00043824       ?update_field_width@?$standard_base@DV?$string_output_adapter@D@__crt_stdio_output@@@__crt_stdio_output@@IEAA_NXZ 0000000140044824 f i libucrt:output.obj
 0001:00043840       ?update_field_width@?$standard_base@_WV?$stream_output_adapter@_W@__crt_stdio_output@@@__crt_stdio_output@@IEAA_NXZ 0000000140044840 f i libucrt:output.obj
 0001:0004385c       ?update_field_width@?$standard_base@_WV?$string_output_adapter@_W@__crt_stdio_output@@@__crt_stdio_output@@IEAA_NXZ 000000014004485c f i libucrt:output.obj
 0001:00043880       ?update_locale@__crt_cached_ptd_host@@AEAAXXZ 0000000140044880 f i libucrt:output.obj
 0001:00043890       ?update_locale_slow@__crt_cached_ptd_host@@AEAAXXZ 0000000140044890 f i libucrt:output.obj
 0001:00043924       ?update_precision@?$positional_parameter_base@DV?$stream_output_adapter@D@__crt_stdio_output@@@__crt_stdio_output@@IEAA_NXZ 0000000140044924 f i libucrt:output.obj
 0001:00043af0       ?update_precision@?$positional_parameter_base@DV?$string_output_adapter@D@__crt_stdio_output@@@__crt_stdio_output@@IEAA_NXZ 0000000140044af0 f i libucrt:output.obj
 0001:00043cbc       ?update_precision@?$positional_parameter_base@_WV?$stream_output_adapter@_W@__crt_stdio_output@@@__crt_stdio_output@@IEAA_NXZ 0000000140044cbc f i libucrt:output.obj
 0001:00043e8c       ?update_precision@?$positional_parameter_base@_WV?$string_output_adapter@_W@__crt_stdio_output@@@__crt_stdio_output@@IEAA_NXZ 0000000140044e8c f i libucrt:output.obj
 0001:0004405c       ?update_precision@?$standard_base@DV?$stream_output_adapter@D@__crt_stdio_output@@@__crt_stdio_output@@IEAA_NXZ 000000014004505c f i libucrt:output.obj
 0001:00044078       ?update_precision@?$standard_base@DV?$string_output_adapter@D@__crt_stdio_output@@@__crt_stdio_output@@IEAA_NXZ 0000000140045078 f i libucrt:output.obj
 0001:00044094       ?update_precision@?$standard_base@_WV?$stream_output_adapter@_W@__crt_stdio_output@@@__crt_stdio_output@@IEAA_NXZ 0000000140045094 f i libucrt:output.obj
 0001:000440b0       ?update_precision@?$standard_base@_WV?$string_output_adapter@_W@__crt_stdio_output@@@__crt_stdio_output@@IEAA_NXZ 00000001400450b0 f i libucrt:output.obj
 0001:000440cc       ?valid@?$cached@H@__crt_cached_ptd_host@@QEBA_NXZ 00000001400450cc f i libucrt:output.obj
 0001:000440d0       ?valid@?$cached@K@__crt_cached_ptd_host@@QEBA_NXZ 00000001400450d0 f i libucrt:output.obj
 0001:000440d4       ?valid@__crt_stdio_stream@@QEBA_NXZ 00000001400450d4 f i libucrt:output.obj
 0001:000440e0       ?validate@?$c_string_character_source@D@__crt_strtox@@QEBA_NXZ 00000001400450e0 f i libucrt:output.obj
 0001:00044110       ?validate@?$c_string_character_source@_W@__crt_strtox@@QEBA_NXZ 0000000140045110 f i libucrt:output.obj
 0001:00044140       ?validate@?$stream_output_adapter@D@__crt_stdio_output@@QEBA_NAEAV__crt_cached_ptd_host@@@Z 0000000140045140 f i libucrt:output.obj
 0001:00044190       ?validate@?$stream_output_adapter@_W@__crt_stdio_output@@QEBA_NAEAV__crt_cached_ptd_host@@@Z 0000000140045190 f i libucrt:output.obj
 0001:000441d8       ?validate@?$string_output_adapter@D@__crt_stdio_output@@QEBA_NAEAV__crt_cached_ptd_host@@@Z 00000001400451d8 f i libucrt:output.obj
 0001:00044220       ?validate@?$string_output_adapter@_W@__crt_stdio_output@@QEBA_NAEAV__crt_cached_ptd_host@@@Z 0000000140045220 f i libucrt:output.obj
 0001:00044268       ?validate_and_store_parameter_data@?$positional_parameter_base@DV?$stream_output_adapter@D@__crt_stdio_output@@@__crt_stdio_output@@AEAA_NAEAUparameter_data@12@W4parameter_type@12@DW4length_modifier@2@@Z 0000000140045268 f i libucrt:output.obj
 0001:000442e4       ?validate_and_store_parameter_data@?$positional_parameter_base@DV?$string_output_adapter@D@__crt_stdio_output@@@__crt_stdio_output@@AEAA_NAEAUparameter_data@12@W4parameter_type@12@DW4length_modifier@2@@Z 00000001400452e4 f i libucrt:output.obj
 0001:00044360       ?validate_and_store_parameter_data@?$positional_parameter_base@_WV?$stream_output_adapter@_W@__crt_stdio_output@@@__crt_stdio_output@@AEAA_NAEAUparameter_data@12@W4parameter_type@12@_WW4length_modifier@2@@Z 0000000140045360 f i libucrt:output.obj
 0001:000443dc       ?validate_and_store_parameter_data@?$positional_parameter_base@_WV?$string_output_adapter@_W@__crt_stdio_output@@@__crt_stdio_output@@AEAA_NAEAUparameter_data@12@W4parameter_type@12@_WW4length_modifier@2@@Z 00000001400453dc f i libucrt:output.obj
 0001:00044458       ?validate_and_update_state_at_beginning_of_format_character@?$positional_parameter_base@DV?$stream_output_adapter@D@__crt_stdio_output@@@__crt_stdio_output@@IEAA_NXZ 0000000140045458 f i libucrt:output.obj
 0001:000445ec       ?validate_and_update_state_at_beginning_of_format_character@?$positional_parameter_base@DV?$string_output_adapter@D@__crt_stdio_output@@@__crt_stdio_output@@IEAA_NXZ 00000001400455ec f i libucrt:output.obj
 0001:00044780       ?validate_and_update_state_at_beginning_of_format_character@?$positional_parameter_base@_WV?$stream_output_adapter@_W@__crt_stdio_output@@@__crt_stdio_output@@IEAA_NXZ 0000000140045780 f i libucrt:output.obj
 0001:00044924       ?validate_and_update_state_at_beginning_of_format_character@?$positional_parameter_base@_WV?$string_output_adapter@_W@__crt_stdio_output@@@__crt_stdio_output@@IEAA_NXZ 0000000140045924 f i libucrt:output.obj
 0001:00044ac8       ?validate_and_update_state_at_beginning_of_format_character@?$standard_base@DV?$stream_output_adapter@D@__crt_stdio_output@@@__crt_stdio_output@@IEAA_NXZ 0000000140045ac8 f i libucrt:output.obj
 0001:00044acc       ?validate_and_update_state_at_beginning_of_format_character@?$standard_base@DV?$string_output_adapter@D@__crt_stdio_output@@@__crt_stdio_output@@IEAA_NXZ 0000000140045acc f i libucrt:output.obj
 0001:00044ad0       ?validate_and_update_state_at_beginning_of_format_character@?$standard_base@_WV?$stream_output_adapter@_W@__crt_stdio_output@@@__crt_stdio_output@@IEAA_NXZ 0000000140045ad0 f i libucrt:output.obj
 0001:00044ad4       ?validate_and_update_state_at_beginning_of_format_character@?$standard_base@_WV?$string_output_adapter@_W@__crt_stdio_output@@@__crt_stdio_output@@IEAA_NXZ 0000000140045ad4 f i libucrt:output.obj
 0001:00044ad8       ?validate_and_update_state_at_end_of_format_string@?$format_validation_base@DV?$stream_output_adapter@D@__crt_stdio_output@@@__crt_stdio_output@@IEAA_NXZ 0000000140045ad8 f i libucrt:output.obj
 0001:00044b30       ?validate_and_update_state_at_end_of_format_string@?$format_validation_base@DV?$string_output_adapter@D@__crt_stdio_output@@@__crt_stdio_output@@IEAA_NXZ 0000000140045b30 f i libucrt:output.obj
 0001:00044b88       ?validate_and_update_state_at_end_of_format_string@?$format_validation_base@_WV?$stream_output_adapter@_W@__crt_stdio_output@@@__crt_stdio_output@@IEAA_NXZ 0000000140045b88 f i libucrt:output.obj
 0001:00044be0       ?validate_and_update_state_at_end_of_format_string@?$format_validation_base@_WV?$string_output_adapter@_W@__crt_stdio_output@@@__crt_stdio_output@@IEAA_NXZ 0000000140045be0 f i libucrt:output.obj
 0001:00044c38       ?validate_and_update_state_at_end_of_format_string@?$positional_parameter_base@DV?$stream_output_adapter@D@__crt_stdio_output@@@__crt_stdio_output@@IEAA_NXZ 0000000140045c38 f i libucrt:output.obj
 0001:00044d1c       ?validate_and_update_state_at_end_of_format_string@?$positional_parameter_base@DV?$string_output_adapter@D@__crt_stdio_output@@@__crt_stdio_output@@IEAA_NXZ 0000000140045d1c f i libucrt:output.obj
 0001:00044e00       ?validate_and_update_state_at_end_of_format_string@?$positional_parameter_base@_WV?$stream_output_adapter@_W@__crt_stdio_output@@@__crt_stdio_output@@IEAA_NXZ 0000000140045e00 f i libucrt:output.obj
 0001:00044ee4       ?validate_and_update_state_at_end_of_format_string@?$positional_parameter_base@_WV?$string_output_adapter@_W@__crt_stdio_output@@@__crt_stdio_output@@IEAA_NXZ 0000000140045ee4 f i libucrt:output.obj
 0001:00044fc8       ?validate_and_update_state_at_end_of_format_string@?$standard_base@DV?$stream_output_adapter@D@__crt_stdio_output@@@__crt_stdio_output@@IEBA_NXZ 0000000140045fc8 f i libucrt:output.obj
 0001:00044fcc       ?validate_and_update_state_at_end_of_format_string@?$standard_base@DV?$string_output_adapter@D@__crt_stdio_output@@@__crt_stdio_output@@IEBA_NXZ 0000000140045fcc f i libucrt:output.obj
 0001:00044fd0       ?validate_and_update_state_at_end_of_format_string@?$standard_base@_WV?$stream_output_adapter@_W@__crt_stdio_output@@@__crt_stdio_output@@IEBA_NXZ 0000000140045fd0 f i libucrt:output.obj
 0001:00044fd4       ?validate_and_update_state_at_end_of_format_string@?$standard_base@_WV?$string_output_adapter@_W@__crt_stdio_output@@@__crt_stdio_output@@IEBA_NXZ 0000000140045fd4 f i libucrt:output.obj
 0001:00044fd8       ?validate_state_for_type_case_a@?$positional_parameter_base@DV?$stream_output_adapter@D@__crt_stdio_output@@@__crt_stdio_output@@IEAA_NXZ 0000000140045fd8 f i libucrt:output.obj
 0001:000450f4       ?validate_state_for_type_case_a@?$positional_parameter_base@DV?$string_output_adapter@D@__crt_stdio_output@@@__crt_stdio_output@@IEAA_NXZ 00000001400460f4 f i libucrt:output.obj
 0001:00045210       ?validate_state_for_type_case_a@?$positional_parameter_base@_WV?$stream_output_adapter@_W@__crt_stdio_output@@@__crt_stdio_output@@IEAA_NXZ 0000000140046210 f i libucrt:output.obj
 0001:00045330       ?validate_state_for_type_case_a@?$positional_parameter_base@_WV?$string_output_adapter@_W@__crt_stdio_output@@@__crt_stdio_output@@IEAA_NXZ 0000000140046330 f i libucrt:output.obj
 0001:00045450       ?validate_state_for_type_case_a@?$standard_base@DV?$stream_output_adapter@D@__crt_stdio_output@@@__crt_stdio_output@@IEBA_NXZ 0000000140046450 f i libucrt:output.obj
 0001:00045454       ?validate_state_for_type_case_a@?$standard_base@DV?$string_output_adapter@D@__crt_stdio_output@@@__crt_stdio_output@@IEBA_NXZ 0000000140046454 f i libucrt:output.obj
 0001:00045458       ?validate_state_for_type_case_a@?$standard_base@_WV?$stream_output_adapter@_W@__crt_stdio_output@@@__crt_stdio_output@@IEBA_NXZ 0000000140046458 f i libucrt:output.obj
 0001:0004545c       ?validate_state_for_type_case_a@?$standard_base@_WV?$string_output_adapter@_W@__crt_stdio_output@@@__crt_stdio_output@@IEBA_NXZ 000000014004645c f i libucrt:output.obj
 0001:00045460       ?validate_stream_is_ansi_if_required@?$__acrt_stdio_char_traits@D@@SA_NQEAU_iobuf@@@Z 0000000140046460 f i libucrt:output.obj
 0001:00045524       ?validate_stream_is_ansi_if_required@?$__acrt_stdio_char_traits@_W@@SA_NQEAU_iobuf@@@Z 0000000140046524 f i libucrt:output.obj
 0001:00045528       ?wide_character_to_digit@__crt_strtox@@YAH_W@Z 0000000140046528 f i libucrt:output.obj
 0001:00045730       ?wide_null_string@?$output_processor@DV?$stream_output_adapter@D@__crt_stdio_output@@V?$format_validation_base@DV?$stream_output_adapter@D@__crt_stdio_output@@@2@@__crt_stdio_output@@CAPEA_WXZ 0000000140046730 f i libucrt:output.obj
 0001:0004573c       ?wide_null_string@?$output_processor@DV?$stream_output_adapter@D@__crt_stdio_output@@V?$positional_parameter_base@DV?$stream_output_adapter@D@__crt_stdio_output@@@2@@__crt_stdio_output@@CAPEA_WXZ 000000014004673c f i libucrt:output.obj
 0001:00045748       ?wide_null_string@?$output_processor@DV?$stream_output_adapter@D@__crt_stdio_output@@V?$standard_base@DV?$stream_output_adapter@D@__crt_stdio_output@@@2@@__crt_stdio_output@@CAPEA_WXZ 0000000140046748 f i libucrt:output.obj
 0001:00045754       ?wide_null_string@?$output_processor@DV?$string_output_adapter@D@__crt_stdio_output@@V?$format_validation_base@DV?$string_output_adapter@D@__crt_stdio_output@@@2@@__crt_stdio_output@@CAPEA_WXZ 0000000140046754 f i libucrt:output.obj
 0001:00045760       ?wide_null_string@?$output_processor@DV?$string_output_adapter@D@__crt_stdio_output@@V?$positional_parameter_base@DV?$string_output_adapter@D@__crt_stdio_output@@@2@@__crt_stdio_output@@CAPEA_WXZ 0000000140046760 f i libucrt:output.obj
 0001:0004576c       ?wide_null_string@?$output_processor@DV?$string_output_adapter@D@__crt_stdio_output@@V?$standard_base@DV?$string_output_adapter@D@__crt_stdio_output@@@2@@__crt_stdio_output@@CAPEA_WXZ 000000014004676c f i libucrt:output.obj
 0001:00045778       ?wide_null_string@?$output_processor@_WV?$stream_output_adapter@_W@__crt_stdio_output@@V?$format_validation_base@_WV?$stream_output_adapter@_W@__crt_stdio_output@@@2@@__crt_stdio_output@@CAPEA_WXZ 0000000140046778 f i libucrt:output.obj
 0001:00045784       ?wide_null_string@?$output_processor@_WV?$stream_output_adapter@_W@__crt_stdio_output@@V?$positional_parameter_base@_WV?$stream_output_adapter@_W@__crt_stdio_output@@@2@@__crt_stdio_output@@CAPEA_WXZ 0000000140046784 f i libucrt:output.obj
 0001:00045790       ?wide_null_string@?$output_processor@_WV?$stream_output_adapter@_W@__crt_stdio_output@@V?$standard_base@_WV?$stream_output_adapter@_W@__crt_stdio_output@@@2@@__crt_stdio_output@@CAPEA_WXZ 0000000140046790 f i libucrt:output.obj
 0001:0004579c       ?wide_null_string@?$output_processor@_WV?$string_output_adapter@_W@__crt_stdio_output@@V?$format_validation_base@_WV?$string_output_adapter@_W@__crt_stdio_output@@@2@@__crt_stdio_output@@CAPEA_WXZ 000000014004679c f i libucrt:output.obj
 0001:000457a8       ?wide_null_string@?$output_processor@_WV?$string_output_adapter@_W@__crt_stdio_output@@V?$positional_parameter_base@_WV?$string_output_adapter@_W@__crt_stdio_output@@@2@@__crt_stdio_output@@CAPEA_WXZ 00000001400467a8 f i libucrt:output.obj
 0001:000457b4       ?wide_null_string@?$output_processor@_WV?$string_output_adapter@_W@__crt_stdio_output@@V?$standard_base@_WV?$string_output_adapter@_W@__crt_stdio_output@@@2@@__crt_stdio_output@@CAPEA_WXZ 00000001400467b4 f i libucrt:output.obj
 0001:000457c0       ?write_character@?$output_adapter_common@DV?$stream_output_adapter@D@__crt_stdio_output@@@__crt_stdio_output@@QEBAXDQEAHAEAV__crt_cached_ptd_host@@@Z 00000001400467c0 f i libucrt:output.obj
 0001:00045820       ?write_character@?$output_adapter_common@_WV?$stream_output_adapter@_W@__crt_stdio_output@@@__crt_stdio_output@@QEBAX_WQEAHAEAV__crt_cached_ptd_host@@@Z 0000000140046820 f i libucrt:output.obj
 0001:00045884       ?write_character@?$string_output_adapter@D@__crt_stdio_output@@QEBA_NDQEAHAEAV__crt_cached_ptd_host@@@Z 0000000140046884 f i libucrt:output.obj
 0001:000458dc       ?write_character@?$string_output_adapter@_W@__crt_stdio_output@@QEBA_N_WQEAHAEAV__crt_cached_ptd_host@@@Z 00000001400468dc f i libucrt:output.obj
 0001:00045938       ?write_character_without_count_update@?$stream_output_adapter@D@__crt_stdio_output@@QEBA_NDAEAV__crt_cached_ptd_host@@@Z 0000000140046938 f i libucrt:output.obj
 0001:00045988       ?write_character_without_count_update@?$stream_output_adapter@_W@__crt_stdio_output@@QEBA_N_WAEAV__crt_cached_ptd_host@@@Z 0000000140046988 f i libucrt:output.obj
 0001:000459dc       ?write_stored_string_tchar@?$output_processor@DV?$stream_output_adapter@D@__crt_stdio_output@@V?$format_validation_base@DV?$stream_output_adapter@D@__crt_stdio_output@@@2@@__crt_stdio_output@@AEAA_ND@Z 00000001400469dc f i libucrt:output.obj
 0001:00045b5c       ?write_stored_string_tchar@?$output_processor@DV?$stream_output_adapter@D@__crt_stdio_output@@V?$positional_parameter_base@DV?$stream_output_adapter@D@__crt_stdio_output@@@2@@__crt_stdio_output@@AEAA_ND@Z 0000000140046b5c f i libucrt:output.obj
 0001:00045cdc       ?write_stored_string_tchar@?$output_processor@DV?$stream_output_adapter@D@__crt_stdio_output@@V?$standard_base@DV?$stream_output_adapter@D@__crt_stdio_output@@@2@@__crt_stdio_output@@AEAA_ND@Z 0000000140046cdc f i libucrt:output.obj
 0001:00045e5c       ?write_stored_string_tchar@?$output_processor@DV?$string_output_adapter@D@__crt_stdio_output@@V?$format_validation_base@DV?$string_output_adapter@D@__crt_stdio_output@@@2@@__crt_stdio_output@@AEAA_ND@Z 0000000140046e5c f i libucrt:output.obj
 0001:00045f7c       ?write_stored_string_tchar@?$output_processor@DV?$string_output_adapter@D@__crt_stdio_output@@V?$positional_parameter_base@DV?$string_output_adapter@D@__crt_stdio_output@@@2@@__crt_stdio_output@@AEAA_ND@Z 0000000140046f7c f i libucrt:output.obj
 0001:0004609c       ?write_stored_string_tchar@?$output_processor@DV?$string_output_adapter@D@__crt_stdio_output@@V?$standard_base@DV?$string_output_adapter@D@__crt_stdio_output@@@2@@__crt_stdio_output@@AEAA_ND@Z 000000014004709c f i libucrt:output.obj
 0001:000461bc       ?write_stored_string_tchar@?$output_processor@_WV?$stream_output_adapter@_W@__crt_stdio_output@@V?$format_validation_base@_WV?$stream_output_adapter@_W@__crt_stdio_output@@@2@@__crt_stdio_output@@AEAA_N_W@Z 00000001400471bc f i libucrt:output.obj
 0001:00046340       ?write_stored_string_tchar@?$output_processor@_WV?$stream_output_adapter@_W@__crt_stdio_output@@V?$positional_parameter_base@_WV?$stream_output_adapter@_W@__crt_stdio_output@@@2@@__crt_stdio_output@@AEAA_N_W@Z 0000000140047340 f i libucrt:output.obj
 0001:000464c4       ?write_stored_string_tchar@?$output_processor@_WV?$stream_output_adapter@_W@__crt_stdio_output@@V?$standard_base@_WV?$stream_output_adapter@_W@__crt_stdio_output@@@2@@__crt_stdio_output@@AEAA_N_W@Z 00000001400474c4 f i libucrt:output.obj
 0001:00046648       ?write_stored_string_tchar@?$output_processor@_WV?$string_output_adapter@_W@__crt_stdio_output@@V?$format_validation_base@_WV?$string_output_adapter@_W@__crt_stdio_output@@@2@@__crt_stdio_output@@AEAA_N_W@Z 0000000140047648 f i libucrt:output.obj
 0001:000467a0       ?write_stored_string_tchar@?$output_processor@_WV?$string_output_adapter@_W@__crt_stdio_output@@V?$positional_parameter_base@_WV?$string_output_adapter@_W@__crt_stdio_output@@@2@@__crt_stdio_output@@AEAA_N_W@Z 00000001400477a0 f i libucrt:output.obj
 0001:000468f8       ?write_stored_string_tchar@?$output_processor@_WV?$string_output_adapter@_W@__crt_stdio_output@@V?$standard_base@_WV?$string_output_adapter@_W@__crt_stdio_output@@@2@@__crt_stdio_output@@AEAA_N_W@Z 00000001400478f8 f i libucrt:output.obj
 0001:00046a50       ?write_string@?$stream_output_adapter@D@__crt_stdio_output@@QEBAXQEBDHQEAHAEAV__crt_cached_ptd_host@@@Z 0000000140047a50 f i libucrt:output.obj
 0001:00046a80       ?write_string@?$stream_output_adapter@_W@__crt_stdio_output@@QEBAXQEB_WHQEAHAEAV__crt_cached_ptd_host@@@Z 0000000140047a80 f i libucrt:output.obj
 0001:00046ab0       ?write_string@?$string_output_adapter@D@__crt_stdio_output@@QEBAXQEBDHQEAHAEAV__crt_cached_ptd_host@@@Z 0000000140047ab0 f i libucrt:output.obj
 0001:00046b7c       ?write_string@?$string_output_adapter@_W@__crt_stdio_output@@QEBAXQEB_WHQEAHAEAV__crt_cached_ptd_host@@@Z 0000000140047b7c f i libucrt:output.obj
 0001:00046c4c       ?write_string_impl@?$output_adapter_common@DV?$stream_output_adapter@D@__crt_stdio_output@@@__crt_stdio_output@@IEBAXQEBDHQEAHAEAV__crt_cached_ptd_host@@@Z 0000000140047c4c f i libucrt:output.obj
 0001:00046d4c       ?write_string_impl@?$output_adapter_common@_WV?$stream_output_adapter@_W@__crt_stdio_output@@@__crt_stdio_output@@IEBAXQEB_WHQEAHAEAV__crt_cached_ptd_host@@@Z 0000000140047d4c f i libucrt:output.obj
 0001:00046e60       __acrt_disable_global_locale_sync 0000000140047e60 f i libucrt:output.obj
 0001:00046e68       __acrt_enable_global_locale_sync 0000000140047e68 f i libucrt:output.obj
 0001:00046e74       __acrt_isleadbyte_l_noupdate 0000000140047e74 f i libucrt:output.obj
 0001:00046ea0       __acrt_locale_changed      0000000140047ea0 f i libucrt:output.obj
 0001:00046eb0       __acrt_locale_get_ctype_array_value 0000000140047eb0 f i libucrt:output.obj
 0001:00046ed0       __ascii_iswalpha           0000000140047ed0 f i libucrt:output.obj
 0001:00046ef0       __ascii_toupper            0000000140047ef0 f i libucrt:output.obj
 0001:00046f04       __ascii_towupper           0000000140047f04 f i libucrt:output.obj
 0001:00046f14       __stdio_common_vfprintf    0000000140047f14 f   libucrt:output.obj
 0001:00047084       __stdio_common_vfprintf_p  0000000140048084 f   libucrt:output.obj
 0001:000471f4       __stdio_common_vfprintf_s  00000001400481f4 f   libucrt:output.obj
 0001:00047364       __stdio_common_vfwprintf   0000000140048364 f   libucrt:output.obj
 0001:000474d4       __stdio_common_vfwprintf_p 00000001400484d4 f   libucrt:output.obj
 0001:00047644       __stdio_common_vfwprintf_s 0000000140048644 f   libucrt:output.obj
 0001:000477b4       __stdio_common_vsnprintf_s 00000001400487b4 f   libucrt:output.obj
 0001:00047a00       __stdio_common_vsnwprintf_s 0000000140048a00 f   libucrt:output.obj
 0001:00047c50       __stdio_common_vsprintf    0000000140048c50 f   libucrt:output.obj
 0001:00047f38       __stdio_common_vsprintf_p  0000000140048f38 f   libucrt:output.obj
 0001:0004801c       __stdio_common_vsprintf_s  000000014004901c f   libucrt:output.obj
 0001:00048174       __stdio_common_vswprintf   0000000140049174 f   libucrt:output.obj
 0001:00048464       __stdio_common_vswprintf_p 0000000140049464 f   libucrt:output.obj
 0001:00048548       __stdio_common_vswprintf_s 0000000140049548 f   libucrt:output.obj
 0001:000486a0       _ctype_fast_check_internal 00000001400496a0 f i libucrt:output.obj
 0001:000486b8       _isdigit_fast_internal     00000001400496b8 f i libucrt:output.obj
 0001:000486d4       _tolower_fast_internal     00000001400496d4 f i libucrt:output.obj
 0001:00048710       _seh_filter_dll            0000000140049710 f   libucrt:exception_filter.obj
 0001:00048728       _seh_filter_exe            0000000140049728 f   libucrt:exception_filter.obj
 0001:00048a1c       __acrt_report_runtime_error 0000000140049a1c f   libucrt:report_runtime_error.obj
 0001:00048bd0       _invoke_watson_if_error    0000000140049bd0 f i libucrt:report_runtime_error.obj
 0001:00048c10       _query_app_type            0000000140049c10 f   libucrt:report_runtime_error.obj
 0001:00048c18       _set_app_type              0000000140049c18 f   libucrt:report_runtime_error.obj
 0001:00048c20       ??$__crt_fast_decode_pointer@P6AHPEAU_exception@@@Z@@YAP6AHPEAU_exception@@@ZQ6AH0@Z@Z 0000000140049c20 f i libucrt:matherr.obj
 0001:00048c3c       ??$__crt_fast_encode_pointer@P6AHPEAU_exception@@@Z@@YAP6AHPEAU_exception@@@ZQ6AH0@Z@Z 0000000140049c3c f i libucrt:matherr.obj
 0001:00048c64       ?__crt_rotate_pointer_value@@YA_K_KH@Z 0000000140049c64 f i libucrt:matherr.obj
 0001:00048c70       ?get_current_state_index@__crt_state_management@@YA_KXZ 0000000140049c70 f i libucrt:matherr.obj
 0001:00048c74       ?initialize@?$dual_state_global@P6AHPEAU_exception@@@Z@__crt_state_management@@QEAAXQ6AHPEAU_exception@@@Z@Z 0000000140049c74 f i libucrt:matherr.obj
 0001:00048c84       ?value@?$dual_state_global@P6AHPEAU_exception@@@Z@__crt_state_management@@QEAAAEAP6AHPEAU_exception@@@ZXZ 0000000140049c84 f i libucrt:matherr.obj
 0001:00048c88       __acrt_has_user_matherr    0000000140049c88 f   libucrt:matherr.obj
 0001:00048cb0       __acrt_initialize_user_matherr 0000000140049cb0 f   libucrt:matherr.obj
 0001:00048cbc       __acrt_invoke_user_matherr 0000000140049cbc f   libucrt:matherr.obj
 0001:00048d08       __setusermatherr           0000000140049d08 f   libucrt:matherr.obj
 0001:00048d38       ??$?RE@__crt_internal_free_policy@@QEBAXQEBE@Z 0000000140049d38 f i libucrt:argv_parsing.obj
 0001:00048d44       ??$?RPEAD@__crt_internal_free_policy@@QEBAXQEBQEAD@Z 0000000140049d44 f i libucrt:argv_parsing.obj
 0001:00048d50       ??$?RPEA_W@__crt_internal_free_policy@@QEBAXQEBQEA_W@Z 0000000140049d50 f i libucrt:argv_parsing.obj
 0001:00049108       ??$get_module_file_name@$$TAEAY0BAF@DH@?$__crt_char_traits@D@@SAK$$QEA$$TAEAY0BAF@D$$QEAH@Z 000000014004a108 f i libucrt:argv_parsing.obj
 0001:00049118       ??$get_module_file_name@$$TAEAY0BAF@_WH@?$__crt_char_traits@_W@@SAK$$QEA$$TAEAY0BAF@_W$$QEAH@Z 000000014004a118 f i libucrt:argv_parsing.obj
 0001:0004956c       ??$set_program_name@PEAD@?$__crt_char_traits@D@@SAX$$QEAPEAD@Z 000000014004a56c f i libucrt:argv_parsing.obj
 0001:0004957c       ??$set_program_name@PEA_W@?$__crt_char_traits@_W@@SAX$$QEAPEA_W@Z 000000014004a57c f i libucrt:argv_parsing.obj
 0001:0004959c       ??0?$__crt_unique_heap_ptr@EU__crt_internal_free_policy@@@@QEAA@QEAE@Z 000000014004a59c f i libucrt:argv_parsing.obj
 0001:000495a4       ??0?$__crt_unique_heap_ptr@PEADU__crt_internal_free_policy@@@@QEAA@QEAPEAD@Z 000000014004a5a4 f i libucrt:argv_parsing.obj
 0001:000495ac       ??0?$__crt_unique_heap_ptr@PEA_WU__crt_internal_free_policy@@@@QEAA@QEAPEA_W@Z 000000014004a5ac f i libucrt:argv_parsing.obj
 0001:000495b4       ??1?$__crt_unique_heap_ptr@EU__crt_internal_free_policy@@@@QEAA@XZ 000000014004a5b4 f i libucrt:argv_parsing.obj
 0001:000495d8       ??1?$__crt_unique_heap_ptr@PEADU__crt_internal_free_policy@@@@QEAA@XZ 000000014004a5d8 f i libucrt:argv_parsing.obj
 0001:000495fc       ??1?$__crt_unique_heap_ptr@PEA_WU__crt_internal_free_policy@@@@QEAA@XZ 000000014004a5fc f i libucrt:argv_parsing.obj
 0001:00049620       ??B?$__crt_unique_heap_ptr@EU__crt_internal_free_policy@@@@QEBA_NXZ 000000014004a620 f i libucrt:argv_parsing.obj
 0001:00049674       ?detach@?$__crt_unique_heap_ptr@EU__crt_internal_free_policy@@@@QEAAPEAEXZ 000000014004a674 f i libucrt:argv_parsing.obj
 0001:00049680       ?detach@?$__crt_unique_heap_ptr@PEADU__crt_internal_free_policy@@@@QEAAPEAPEADXZ 000000014004a680 f i libucrt:argv_parsing.obj
 0001:0004968c       ?detach@?$__crt_unique_heap_ptr@PEA_WU__crt_internal_free_policy@@@@QEAAPEAPEA_WXZ 000000014004a68c f i libucrt:argv_parsing.obj
 0001:000496b4       ?get@?$__crt_unique_heap_ptr@EU__crt_internal_free_policy@@@@QEBAPEAEXZ 000000014004a6b4 f i libucrt:argv_parsing.obj
 0001:000496b8       ?get@?$__crt_unique_heap_ptr@PEADU__crt_internal_free_policy@@@@QEBAPEAPEADXZ 000000014004a6b8 f i libucrt:argv_parsing.obj
 0001:000496bc       ?get@?$__crt_unique_heap_ptr@PEA_WU__crt_internal_free_policy@@@@QEBAPEAPEA_WXZ 000000014004a6bc f i libucrt:argv_parsing.obj
 0001:000496c0       ?get_address_of@?$__crt_unique_heap_ptr@PEADU__crt_internal_free_policy@@@@QEAAPEAPEAPEADXZ 000000014004a6c0 f i libucrt:argv_parsing.obj
 0001:000496c4       ?get_address_of@?$__crt_unique_heap_ptr@PEA_WU__crt_internal_free_policy@@@@QEAAPEAPEAPEA_WXZ 000000014004a6c4 f i libucrt:argv_parsing.obj
 0001:000496f8       ?is_valid@?$__crt_unique_heap_ptr@EU__crt_internal_free_policy@@@@QEBA_NXZ 000000014004a6f8 f i libucrt:argv_parsing.obj
 0001:00049704       ?release@?$__crt_unique_heap_ptr@EU__crt_internal_free_policy@@@@QEAAXXZ 000000014004a704 f i libucrt:argv_parsing.obj
 0001:00049728       ?release@?$__crt_unique_heap_ptr@PEADU__crt_internal_free_policy@@@@QEAAXXZ 000000014004a728 f i libucrt:argv_parsing.obj
 0001:0004974c       ?release@?$__crt_unique_heap_ptr@PEA_WU__crt_internal_free_policy@@@@QEAAXXZ 000000014004a74c f i libucrt:argv_parsing.obj
 0001:00049790       __acrt_allocate_buffer_for_argv 000000014004a790 f   libucrt:argv_parsing.obj
 0001:00049804       _configure_narrow_argv     000000014004a804 f   libucrt:argv_parsing.obj
 0001:000499ec       _configure_wide_argv       000000014004a9ec f   libucrt:argv_parsing.obj
 0001:00049bd0       _set_pgmptr                000000014004abd0 f i libucrt:argv_parsing.obj
 0001:00049bdc       _set_wpgmptr               000000014004abdc f i libucrt:argv_parsing.obj
 0001:00049be8       ??$?R_W@__crt_internal_free_policy@@QEBAXQEB_W@Z 000000014004abe8 f i libucrt:environment_initialization.obj
 0001:0004a25c       ??$get_environment_from_os@$$V@?$__crt_char_traits@D@@SAPEADXZ 000000014004b25c f i libucrt:environment_initialization.obj
 0001:0004a264       ??$get_environment_from_os@$$V@?$__crt_char_traits@_W@@SAPEA_WXZ 000000014004b264 f i libucrt:environment_initialization.obj
 0001:0004a46c       ??$set_variable_in_environment_nolock@PEADH@?$__crt_char_traits@D@@SAH$$QEAPEAD$$QEAH@Z 000000014004b46c f i libucrt:environment_initialization.obj
 0001:0004a478       ??$set_variable_in_environment_nolock@PEA_WH@?$__crt_char_traits@_W@@SAH$$QEAPEA_W$$QEAH@Z 000000014004b478 f i libucrt:environment_initialization.obj
 0001:0004a484       ??$tcscpy_s@PEADAEB_KAEAPEAD@?$__crt_char_traits@D@@SAH$$QEAPEADAEB_KAEAPEAD@Z 000000014004b484 f i libucrt:environment_initialization.obj
 0001:0004a498       ??$tcscpy_s@PEA_WAEB_KAEAPEA_W@?$__crt_char_traits@_W@@SAH$$QEAPEA_WAEB_KAEAPEA_W@Z 000000014004b498 f i libucrt:environment_initialization.obj
 0001:0004a4ac       ??$tcslen@AEAPEAD@?$__crt_char_traits@D@@SA_KAEAPEAD@Z 000000014004b4ac f i libucrt:environment_initialization.obj
 0001:0004a4c4       ??$tcslen@AEAPEA_W@?$__crt_char_traits@_W@@SA_KAEAPEA_W@Z 000000014004b4c4 f i libucrt:environment_initialization.obj
 0001:0004a4dc       ??$uninitialize@A6AXAEAPEAPEAD@_E@?$dual_state_global@PEAPEAD@__crt_state_management@@QEAAXA6AXAEAPEAPEAD@_E@Z 000000014004b4dc f i libucrt:environment_initialization.obj
 0001:0004a548       ??$uninitialize@A6AXAEAPEAPEA_W@_E@?$dual_state_global@PEAPEA_W@__crt_state_management@@QEAAXA6AXAEAPEAPEA_W@_E@Z 000000014004b548 f i libucrt:environment_initialization.obj
 0001:0004a5f4       ??0?$__crt_unique_heap_ptr@_WU__crt_internal_free_policy@@@@QEAA@QEA_W@Z 000000014004b5f4 f i libucrt:environment_initialization.obj
 0001:0004a5fc       ??1?$__crt_unique_heap_ptr@_WU__crt_internal_free_policy@@@@QEAA@XZ 000000014004b5fc f i libucrt:environment_initialization.obj
 0001:0004a620       ??B?$__crt_unique_heap_ptr@PEADU__crt_internal_free_policy@@@@QEBA_NXZ 000000014004b620 f i libucrt:environment_initialization.obj
 0001:0004a62c       ??B?$__crt_unique_heap_ptr@PEA_WU__crt_internal_free_policy@@@@QEBA_NXZ 000000014004b62c f i libucrt:environment_initialization.obj
 0001:0004a638       ??B?$__crt_unique_heap_ptr@_WU__crt_internal_free_policy@@@@QEBA_NXZ 000000014004b638 f i libucrt:environment_initialization.obj
 0001:0004a644       ?__crt_compute_required_transform_buffer_count@@YA_KIQEBD@Z 000000014004b644 f i libucrt:environment_initialization.obj
 0001:0004a674       ?__crt_compute_required_transform_buffer_count@@YA_KIQEB_W@Z 000000014004b674 f i libucrt:environment_initialization.obj
 0001:0004a6b0       ?__crt_transform_string@@YA_KIQEBDQEA_W_K@Z 000000014004b6b0 f i libucrt:environment_initialization.obj
 0001:0004a6dc       ?__crt_transform_string@@YA_KIQEB_WQEAD_K@Z 000000014004b6dc f i libucrt:environment_initialization.obj
 0001:0004a718       ?detach@?$__crt_unique_heap_ptr@DU__crt_internal_free_policy@@@@QEAAPEADXZ 000000014004b718 f i libucrt:environment_initialization.obj
 0001:0004a724       ?detach@?$__crt_unique_heap_ptr@_WU__crt_internal_free_policy@@@@QEAAPEA_WXZ 000000014004b724 f i libucrt:environment_initialization.obj
 0001:0004a730       ?get@?$__crt_unique_heap_ptr@_WU__crt_internal_free_policy@@@@QEBAPEA_WXZ 000000014004b730 f i libucrt:environment_initialization.obj
 0001:0004a77c       ?initialize@?$dual_state_global@PEAPEAD@__crt_state_management@@QEAAXQEAPEAD@Z 000000014004b77c f i libucrt:environment_initialization.obj
 0001:0004a78c       ?initialize@?$dual_state_global@PEAPEA_W@__crt_state_management@@QEAAXQEAPEA_W@Z 000000014004b78c f i libucrt:environment_initialization.obj
 0001:0004a79c       ?is_valid@?$__crt_unique_heap_ptr@PEADU__crt_internal_free_policy@@@@QEBA_NXZ 000000014004b79c f i libucrt:environment_initialization.obj
 0001:0004a7a8       ?is_valid@?$__crt_unique_heap_ptr@PEA_WU__crt_internal_free_policy@@@@QEBA_NXZ 000000014004b7a8 f i libucrt:environment_initialization.obj
 0001:0004a7b4       ?is_valid@?$__crt_unique_heap_ptr@_WU__crt_internal_free_policy@@@@QEBA_NXZ 000000014004b7b4 f i libucrt:environment_initialization.obj
 0001:0004a7cc       ?release@?$__crt_unique_heap_ptr@_WU__crt_internal_free_policy@@@@QEAAXXZ 000000014004b7cc f i libucrt:environment_initialization.obj
 0001:0004a7f0       ?value@?$dual_state_global@PEAPEAD@__crt_state_management@@QEAAAEAPEAPEADXZ 000000014004b7f0 f i libucrt:environment_initialization.obj
 0001:0004a7f4       ?value@?$dual_state_global@PEAPEA_W@__crt_state_management@@QEAAAEAPEAPEA_WXZ 000000014004b7f4 f i libucrt:environment_initialization.obj
 0001:0004a7f8       __dcrt_get_or_create_narrow_environment_nolock 000000014004b7f8 f   libucrt:environment_initialization.obj
 0001:0004a844       __dcrt_get_or_create_wide_environment_nolock 000000014004b844 f   libucrt:environment_initialization.obj
 0001:0004a890       __dcrt_uninitialize_environments_nolock 000000014004b890 f   libucrt:environment_initialization.obj
 0001:0004a8e4       __p__environ               000000014004b8e4 f   libucrt:environment_initialization.obj
 0001:0004a8f0       __p__wenviron              000000014004b8f0 f   libucrt:environment_initialization.obj
 0001:0004a8fc       _get_initial_narrow_environment 000000014004b8fc f   libucrt:environment_initialization.obj
 0001:0004a960       _get_initial_wide_environment 000000014004b960 f   libucrt:environment_initialization.obj
 0001:0004a9c4       _initialize_narrow_environment 000000014004b9c4 f   libucrt:environment_initialization.obj
 0001:0004a9cc       _initialize_wide_environment 000000014004b9cc f   libucrt:environment_initialization.obj
 0001:0004ab10       _get_narrow_winmain_command_line 000000014004bb10 f   libucrt:argv_winmain.obj
 0001:0004ab9c       _get_wide_winmain_command_line 000000014004bb9c f   libucrt:argv_winmain.obj
 0001:0004ac08       _initterm                  000000014004bc08 f   libucrt:initterm.obj
 0001:0004ac5c       _initterm_e                000000014004bc5c f   libucrt:initterm.obj
 0001:0004acb4       ??$?B$$A6AXPEAXK0@Z@__crt_fast_encoded_nullptr_t@@QEBAP6AXPEAXK0@ZXZ 000000014004bcb4 f i libucrt:exit.obj
 0001:0004ad44       ??$__crt_fast_decode_pointer@P6AXPEAXK0@Z@@YAP6AXPEAXK0@ZQ6AX0K0@Z@Z 000000014004bd44 f i libucrt:exit.obj
 0001:0004ad60       ??$__crt_fast_encode_pointer@P6AXPEAXK0@Z@@YAP6AXPEAXK0@ZQ6AX0K0@Z@Z 000000014004bd60 f i libucrt:exit.obj
 0001:0004ad88       ??$__crt_get_proc_address@P6AXI@Z@@YAP6AXI@ZQEAUHINSTANCE__@@QEBD@Z 000000014004bd88 f i libucrt:exit.obj
 0001:0004adbc       ??0?$__crt_unique_handle_t@U__crt_hmodule_traits@@@@QEAA@QEAUHINSTANCE__@@@Z 000000014004bdbc f i libucrt:exit.obj
 0001:0004adc4       ??1?$__crt_unique_handle_t@U__crt_hmodule_traits@@@@QEAA@XZ 000000014004bdc4 f i libucrt:exit.obj
 0001:0004af00       ?__acrt_select_exit_lock@@YA?AW4__acrt_lock_id@@XZ 000000014004bf00 f i libucrt:exit.obj
 0001:0004af08       ?__crt_fast_encode_pointer@@YA?AU__crt_fast_encoded_nullptr_t@@$$T@Z 000000014004bf08 f i libucrt:exit.obj
 0001:0004af20       ?close@?$__crt_unique_handle_t@U__crt_hmodule_traits@@@@QEAAXXZ 000000014004bf20 f i libucrt:exit.obj
 0001:0004af4c       ?close@__crt_hmodule_traits@@SA_NPEAUHINSTANCE__@@@Z 000000014004bf4c f i libucrt:exit.obj
 0001:0004b0a0       ?get@?$__crt_unique_handle_t@U__crt_hmodule_traits@@@@QEBAPEAUHINSTANCE__@@XZ 000000014004c0a0 f i libucrt:exit.obj
 0001:0004b0a4       ?get_address_of@?$__crt_unique_handle_t@U__crt_hmodule_traits@@@@QEAAPEAPEAUHINSTANCE__@@XZ 000000014004c0a4 f i libucrt:exit.obj
 0001:0004b0a8       ?get_invalid_value@__crt_hmodule_traits@@SAPEAUHINSTANCE__@@XZ 000000014004c0a8 f i libucrt:exit.obj
 0001:0004b1cc       _Exit                      000000014004c1cc f   libucrt:exit.obj
 0001:0004b1dc       __acrt_initialize_thread_local_exit_callback 000000014004c1dc f   libucrt:exit.obj
 0001:0004b1e8       _c_exit                    000000014004c1e8 f   libucrt:exit.obj
 0001:0004b1fc       _cexit                     000000014004c1fc f   libucrt:exit.obj
 0001:0004b20c       _exit                      000000014004c20c f   libucrt:exit.obj
 0001:0004b21c       _is_c_termination_complete 000000014004c21c f   libucrt:exit.obj
 0001:0004b228       _register_thread_local_exe_atexit_callback 000000014004c228 f   libucrt:exit.obj
 0001:0004b278       exit                       000000014004c278 f   libucrt:exit.obj
 0001:0004b284       quick_exit                 000000014004c284 f   libucrt:exit.obj
 0001:0004b294       ??$__crt_interlocked_read@H@@YAHPEDH@Z 000000014004c294 f i libucrt:setmode.obj
 0001:0004b298       ?value@?$dual_state_global@H@__crt_state_management@@QEAAAEAHXZ 000000014004c298 f i libucrt:setmode.obj
 0001:0004b29c       _get_fmode                 000000014004c29c f   libucrt:setmode.obj
 0001:0004b2d8       _set_fmode                 000000014004c2d8 f   libucrt:setmode.obj
 0001:0004b324       _setmode                   000000014004c324 f   libucrt:setmode.obj
 0001:0004b488       _setmode_nolock            000000014004c488 f   libucrt:setmode.obj
 0001:0004b5ac       ??$?RU__crt_locale_data@@@__crt_internal_free_policy@@QEBAXQEBU__crt_locale_data@@@Z 000000014004c5ac f i libucrt:wsetlocale.obj
 0001:0004b5b8       ??$?RU__crt_locale_pointers@@@__crt_internal_free_policy@@QEBAXQEBU__crt_locale_pointers@@@Z 000000014004c5b8 f i libucrt:wsetlocale.obj
 0001:0004b5c4       ??$?RU__crt_multibyte_data@@@__crt_internal_free_policy@@QEBAXQEBU__crt_multibyte_data@@@Z 000000014004c5c4 f i libucrt:wsetlocale.obj
 0001:0004bac4       ??0?$__crt_unique_heap_ptr@U__crt_locale_data@@U__crt_internal_free_policy@@@@QEAA@QEAU__crt_locale_data@@@Z 000000014004cac4 f i libucrt:wsetlocale.obj
 0001:0004bacc       ??0?$__crt_unique_heap_ptr@U__crt_locale_pointers@@U__crt_internal_free_policy@@@@QEAA@QEAU__crt_locale_pointers@@@Z 000000014004cacc f i libucrt:wsetlocale.obj
 0001:0004bad4       ??0?$__crt_unique_heap_ptr@U__crt_multibyte_data@@U__crt_internal_free_policy@@@@QEAA@QEAU__crt_multibyte_data@@@Z 000000014004cad4 f i libucrt:wsetlocale.obj
 0001:0004badc       ??0_expandlocale_locale_name_cache@@QEAA@QEA_W_KQEAU__crt_qualified_locale_data@@@Z 000000014004cadc f i libucrt:wsetlocale.obj
 0001:0004bb4c       ??1?$__crt_unique_heap_ptr@U__crt_locale_data@@U__crt_internal_free_policy@@@@QEAA@XZ 000000014004cb4c f i libucrt:wsetlocale.obj
 0001:0004bb70       ??1?$__crt_unique_heap_ptr@U__crt_locale_pointers@@U__crt_internal_free_policy@@@@QEAA@XZ 000000014004cb70 f i libucrt:wsetlocale.obj
 0001:0004bb94       ??1?$__crt_unique_heap_ptr@U__crt_multibyte_data@@U__crt_internal_free_policy@@@@QEAA@XZ 000000014004cb94 f i libucrt:wsetlocale.obj
 0001:0004bbb8       ??1_expandlocale_locale_name_cache@@QEAA@XZ 000000014004cbb8 f i libucrt:wsetlocale.obj
 0001:0004bc14       ??B?$__crt_unique_heap_ptr@U__crt_locale_data@@U__crt_internal_free_policy@@@@QEBA_NXZ 000000014004cc14 f i libucrt:wsetlocale.obj
 0001:0004bc20       ??B?$__crt_unique_heap_ptr@U__crt_locale_pointers@@U__crt_internal_free_policy@@@@QEBA_NXZ 000000014004cc20 f i libucrt:wsetlocale.obj
 0001:0004bc2c       ??B?$__crt_unique_heap_ptr@U__crt_multibyte_data@@U__crt_internal_free_policy@@@@QEBA_NXZ 000000014004cc2c f i libucrt:wsetlocale.obj
 0001:0004bf38       ?commit_locale_name@_expandlocale_locale_name_cache@@QEAAXQEB_W_K@Z 000000014004cf38 f i libucrt:wsetlocale.obj
 0001:0004bfcc       ?commit_locale_name_cache_already_updated@_expandlocale_locale_name_cache@@QEAAXQEB_W_K@Z 000000014004cfcc f i libucrt:wsetlocale.obj
 0001:0004c01c       ?detach@?$__crt_unique_heap_ptr@U__crt_locale_data@@U__crt_internal_free_policy@@@@QEAAPEAU__crt_locale_data@@XZ 000000014004d01c f i libucrt:wsetlocale.obj
 0001:0004c028       ?detach@?$__crt_unique_heap_ptr@U__crt_locale_pointers@@U__crt_internal_free_policy@@@@QEAAPEAU__crt_locale_pointers@@XZ 000000014004d028 f i libucrt:wsetlocale.obj
 0001:0004c034       ?detach@?$__crt_unique_heap_ptr@U__crt_multibyte_data@@U__crt_internal_free_policy@@@@QEAAPEAU__crt_multibyte_data@@XZ 000000014004d034 f i libucrt:wsetlocale.obj
 0001:0004c040       ?get@?$__crt_unique_heap_ptr@U__crt_locale_data@@U__crt_internal_free_policy@@@@QEBAPEAU__crt_locale_data@@XZ 000000014004d040 f i libucrt:wsetlocale.obj
 0001:0004c044       ?get@?$__crt_unique_heap_ptr@U__crt_locale_pointers@@U__crt_internal_free_policy@@@@QEBAPEAU__crt_locale_pointers@@XZ 000000014004d044 f i libucrt:wsetlocale.obj
 0001:0004c048       ?get@?$__crt_unique_heap_ptr@U__crt_multibyte_data@@U__crt_internal_free_policy@@@@QEBAPEAU__crt_multibyte_data@@XZ 000000014004d048 f i libucrt:wsetlocale.obj
 0001:0004c04c       ?is_valid@?$__crt_unique_heap_ptr@U__crt_locale_data@@U__crt_internal_free_policy@@@@QEBA_NXZ 000000014004d04c f i libucrt:wsetlocale.obj
 0001:0004c058       ?is_valid@?$__crt_unique_heap_ptr@U__crt_locale_pointers@@U__crt_internal_free_policy@@@@QEBA_NXZ 000000014004d058 f i libucrt:wsetlocale.obj
 0001:0004c064       ?is_valid@?$__crt_unique_heap_ptr@U__crt_multibyte_data@@U__crt_internal_free_policy@@@@QEBA_NXZ 000000014004d064 f i libucrt:wsetlocale.obj
 0001:0004c070       ?release@?$__crt_unique_heap_ptr@U__crt_locale_data@@U__crt_internal_free_policy@@@@QEAAXXZ 000000014004d070 f i libucrt:wsetlocale.obj
 0001:0004c094       ?release@?$__crt_unique_heap_ptr@U__crt_locale_pointers@@U__crt_internal_free_policy@@@@QEAAXXZ 000000014004d094 f i libucrt:wsetlocale.obj
 0001:0004c0b8       ?release@?$__crt_unique_heap_ptr@U__crt_multibyte_data@@U__crt_internal_free_policy@@@@QEAAXXZ 000000014004d0b8 f i libucrt:wsetlocale.obj
 0001:0004c0dc       ?value@?$dual_state_global@PEAU__crt_locale_data@@@__crt_state_management@@QEAAAEAPEAU__crt_locale_data@@XZ 000000014004d0dc f i libucrt:wsetlocale.obj
 0001:0004c0e0       __acrt_copy_locale_name    000000014004d0e0 f   libucrt:wsetlocale.obj
 0001:0004c184       __acrt_set_locale_changed  000000014004d184 f   libucrt:wsetlocale.obj
 0001:0004c194       __acrt_uninitialize_locale 000000014004d194 f   libucrt:wsetlocale.obj
 0001:0004c1d0       __ascii_tolower            000000014004d1d0 f i libucrt:wsetlocale.obj
 0001:0004c1e4       __ascii_towlower           000000014004d1e4 f i libucrt:wsetlocale.obj
 0001:0004c1f4       __lc_lctowcs               000000014004d1f4 f   libucrt:wsetlocale.obj
 0001:0004c2c0       __lc_wcstolc               000000014004d2c0 f   libucrt:wsetlocale.obj
 0001:0004c480       _configthreadlocale        000000014004d480 f   libucrt:wsetlocale.obj
 0001:0004c5f4       _create_locale             000000014004d5f4 f   libucrt:wsetlocale.obj
 0001:0004cc24       _free_locale               000000014004dc24 f   libucrt:wsetlocale.obj
 0001:0004ccf0       _get_current_locale        000000014004dcf0 f   libucrt:wsetlocale.obj
 0001:0004cddc       _wcreate_locale            000000014004dddc f   libucrt:wsetlocale.obj
 0001:0004cf78       _wcscats                   000000014004df78 f   libucrt:wsetlocale.obj
 0001:0004cff8       _wsetlocale                000000014004dff8 f   libucrt:wsetlocale.obj
 0001:0004e190       ?value@?$dual_state_global@J@__crt_state_management@@QEAAAEAJXZ 000000014004f190 f i libucrt:new_mode.obj
 0001:0004e194       _query_new_mode            000000014004f194 f   libucrt:new_mode.obj
 0001:0004e1a0       _set_new_mode              000000014004f1a0 f   libucrt:new_mode.obj
 0001:0004e1d8       __p__commode               000000014004f1d8 f   libucrt:ncommode.obj
 0001:0004e1e4       ??$?B$$A6AXXZ@__crt_fast_encoded_nullptr_t@@QEBAP6AXXZXZ 000000014004f1e4 f i libucrt:onexit.obj
 0001:0004e1f0       ??$?BP6AXXZ@__crt_fast_encoded_nullptr_t@@QEBAPEAP6AXXZXZ 000000014004f1f0 f i libucrt:onexit.obj
 0001:0004e1fc       ??$?RP6AXXZ@__crt_internal_free_policy@@QEBAXQEBQ6AXXZ@Z 000000014004f1fc f i libucrt:onexit.obj
 0001:0004e30c       ??$__crt_fast_decode_pointer@P6AXXZ@@YAP6AXXZQ6AXXZ@Z 000000014004f30c f i libucrt:onexit.obj
 0001:0004e328       ??$__crt_fast_decode_pointer@PEAP6AXXZ@@YAPEAP6AXXZQEAP6AXXZ@Z 000000014004f328 f i libucrt:onexit.obj
 0001:0004e344       ??$__crt_fast_encode_pointer@P6AHXZ@@YAP6AHXZQ6AHXZ@Z 000000014004f344 f i libucrt:onexit.obj
 0001:0004e36c       ??$__crt_fast_encode_pointer@P6AXXZ@@YAP6AXXZQ6AXXZ@Z 000000014004f36c f i libucrt:onexit.obj
 0001:0004e394       ??$__crt_fast_encode_pointer@PEAP6AXXZ@@YAPEAP6AXXZQEAP6AXXZ@Z 000000014004f394 f i libucrt:onexit.obj
 0001:0004e404       ??0?$__crt_unique_heap_ptr@P6AXXZU__crt_internal_free_policy@@@@QEAA@QEAP6AXXZ@Z 000000014004f404 f i libucrt:onexit.obj
 0001:0004e40c       ??1?$__crt_unique_heap_ptr@P6AXXZU__crt_internal_free_policy@@@@QEAA@XZ 000000014004f40c f i libucrt:onexit.obj
 0001:0004e430       ??1scoped_global_state_reset@__crt_state_management@@QEAA@XZ 000000014004f430 f i libucrt:onexit.obj
 0001:0004e7d8       ?detach@?$__crt_unique_heap_ptr@P6AXXZU__crt_internal_free_policy@@@@QEAAPEAP6AXXZXZ 000000014004f7d8 f i libucrt:onexit.obj
 0001:0004e7e4       ?release@?$__crt_unique_heap_ptr@P6AXXZU__crt_internal_free_policy@@@@QEAAXXZ 000000014004f7e4 f i libucrt:onexit.obj
 0001:0004e808       _crt_at_quick_exit         000000014004f808 f   libucrt:onexit.obj
 0001:0004e81c       _crt_atexit                000000014004f81c f   libucrt:onexit.obj
 0001:0004e830       _execute_onexit_table      000000014004f830 f   libucrt:onexit.obj
 0001:0004e884       _initialize_onexit_table   000000014004f884 f   libucrt:onexit.obj
 0001:0004e8b4       _register_onexit_function  000000014004f8b4 f   libucrt:onexit.obj
 0001:0004ea94       ??$?BX@__crt_fast_encoded_nullptr_t@@QEBAPEAXXZ 000000014004fa94 f i libucrt:initialization.obj
 0001:0004eaa0       ??$__crt_fast_encode_pointer@PEAX@@YAPEAXQEAX@Z 000000014004faa0 f i libucrt:initialization.obj
 0001:0004eb88       ?__acrt_stdio_is_initialized@@YA_NXZ 000000014004fb88 f i libucrt:initialization.obj
 0001:0004eb98       ?initialize@?$dual_state_global@PEAU__crt_locale_data@@@__crt_state_management@@QEAAXQEAU__crt_locale_data@@@Z 000000014004fb98 f i libucrt:initialization.obj
 0001:0004eba8       __acrt_initialize          000000014004fba8 f   libucrt:initialization.obj
 0001:0004ebc0       __acrt_thread_attach       000000014004fbc0 f   libucrt:initialization.obj
 0001:0004ebdc       __acrt_thread_detach       000000014004fbdc f   libucrt:initialization.obj
 0001:0004ebf0       __acrt_uninitialize        000000014004fbf0 f   libucrt:initialization.obj
 0001:0004ec34       __acrt_uninitialize_critical 000000014004fc34 f   libucrt:initialization.obj
 0001:0004ec60       _get_terminate             000000014004fc60 f   libucrt:terminate.obj
 0001:0004ec8c       set_terminate              000000014004fc8c f   libucrt:terminate.obj
 0001:0004ecc4       terminate                  000000014004fcc4 f   libucrt:terminate.obj
 0001:0004ecf8       free                       000000014004fcf8 f   libucrt:free.obj
 0001:0004ed10       malloc                     000000014004fd10 f   libucrt:malloc.obj
 0001:0004ed94       strcpy_s                   000000014004fd94 f   libucrt:strcpy_s.obj
 0001:0004ee0c       _set_abort_behavior        000000014004fe0c f   libucrt:abort.obj
 0001:0004ee30       abort                      000000014004fe30 f   libucrt:abort.obj
 0001:0004ee9c       calloc                     000000014004fe9c f   libucrt:calloc.obj
 0001:0004eea4       ??$is_overflow_condition@_K@__crt_strtox@@YA_NI_K@Z 000000014004fea4 f i libucrt:atox.obj
 0001:0004eee8       ??$make_c_string_character_source@D$$T@__crt_strtox@@YA?AV?$c_string_character_source@D@0@QEBD$$T@Z 000000014004fee8 f i libucrt:atox.obj
 0001:0004ef00       ??$make_c_string_character_source@_W$$T@__crt_strtox@@YA?AV?$c_string_character_source@_W@0@QEB_W$$T@Z 000000014004ff00 f i libucrt:atox.obj
 0001:0004ef18       ??$parse_integer@KV?$c_string_character_source@D@__crt_strtox@@$00@__crt_strtox@@YAKAEAV__crt_cached_ptd_host@@V?$c_string_character_source@D@0@H_N@Z 000000014004ff18 f i libucrt:atox.obj
 0001:0004f2c0       ??$parse_integer@KV?$c_string_character_source@_W@__crt_strtox@@$00@__crt_strtox@@YAKAEAV__crt_cached_ptd_host@@V?$c_string_character_source@_W@0@H_N@Z 00000001400502c0 f i libucrt:atox.obj
 0001:0004fc40       ??$parse_integer@_KV?$c_string_character_source@D@__crt_strtox@@$00@__crt_strtox@@YA_KAEAV__crt_cached_ptd_host@@V?$c_string_character_source@D@0@H_N@Z 0000000140050c40 f i libucrt:atox.obj
 0001:0004ffd4       ??$parse_integer@_KV?$c_string_character_source@_W@__crt_strtox@@$00@__crt_strtox@@YA_KAEAV__crt_cached_ptd_host@@V?$c_string_character_source@_W@0@H_N@Z 0000000140050fd4 f i libucrt:atox.obj
 0001:00050938       ??$parse_integer_from_string@JD$$T@__crt_strtox@@YAJQEBD$$THQEAU__crt_locale_pointers@@@Z 0000000140051938 f i libucrt:atox.obj
 0001:00050a24       ??$parse_integer_from_string@J_W$$T@__crt_strtox@@YAJQEB_W$$THQEAU__crt_locale_pointers@@@Z 0000000140051a24 f i libucrt:atox.obj
 0001:00050b10       ??$parse_integer_from_string@_JD$$T@__crt_strtox@@YA_JQEBD$$THQEAU__crt_locale_pointers@@@Z 0000000140051b10 f i libucrt:atox.obj
 0001:00050c00       ??$parse_integer_from_string@_J_W$$T@__crt_strtox@@YA_JQEB_W$$THQEAU__crt_locale_pointers@@@Z 0000000140051c00 f i libucrt:atox.obj
 0001:00050cf0       ?is_space@__crt_strtox@@YA_NDQEAU__crt_locale_pointers@@@Z 0000000140051cf0 f i libucrt:atox.obj
 0001:00050d18       ?is_space@__crt_strtox@@YA_N_WPEAU__crt_locale_pointers@@@Z 0000000140051d18 f i libucrt:atox.obj
 0001:00050d38       ?maximum_signed_value@__crt_strtox@@YA_J_K@Z 0000000140051d38 f i libucrt:atox.obj
 0001:00050d48       ?minimum_signed_value@__crt_strtox@@YA_J_K@Z 0000000140051d48 f i libucrt:atox.obj
 0001:00050d58       __acrt_get_locale_data_prefix 0000000140051d58 f i libucrt:atox.obj
 0001:00050d5c       _atoi64                    0000000140051d5c f   libucrt:atox.obj
 0001:00050e3c       _atoi64_l                  0000000140051e3c f   libucrt:atox.obj
 0001:00050f28       _atoi_l                    0000000140051f28 f   libucrt:atox.obj
 0001:00051010       _atol_l                    0000000140052010 f   libucrt:atox.obj
 0001:000510f8       _atoll_l                   00000001400520f8 f   libucrt:atox.obj
 0001:000511e4       _chvalidchk_l              00000001400521e4 f i libucrt:atox.obj
 0001:00051260       _ischartype_l              0000000140052260 f i libucrt:atox.obj
 0001:000512f4       _wtoi                      00000001400522f4 f   libucrt:atox.obj
 0001:000513d0       _wtoi64                    00000001400523d0 f   libucrt:atox.obj
 0001:000514b0       _wtoi64_l                  00000001400524b0 f   libucrt:atox.obj
 0001:0005159c       _wtoi_l                    000000014005259c f   libucrt:atox.obj
 0001:00051684       _wtol                      0000000140052684 f   libucrt:atox.obj
 0001:00051760       _wtol_l                    0000000140052760 f   libucrt:atox.obj
 0001:00051848       _wtoll                     0000000140052848 f   libucrt:atox.obj
 0001:00051928       _wtoll_l                   0000000140052928 f   libucrt:atox.obj
 0001:00051a14       atoi                       0000000140052a14 f   libucrt:atox.obj
 0001:00051af0       atol                       0000000140052af0 f   libucrt:atox.obj
 0001:00051bcc       atoll                      0000000140052bcc f   libucrt:atox.obj
 0001:00051cc0       strncmp                    0000000140052cc0 f   libucrt:strncmp.obj
 0001:00051d60       wcsncmp                    0000000140052d60 f   libucrt:wcsncmp.obj
 0001:00051d98       ??$__crt_fast_decode_pointer@P6AXPEB_W00I_K@Z@@YAP6AXPEB_W00I_K@ZQ6AX000I1@Z@Z 0000000140052d98 f i libucrt:invalid_parameter.obj
 0001:00051db4       ??$__crt_fast_encode_pointer@P6AXPEB_W00I_K@Z@@YAP6AXPEB_W00I_K@ZQ6AX000I1@Z@Z 0000000140052db4 f i libucrt:invalid_parameter.obj
 0001:00051ddc       ??$initialize_from_array@$$BY00Q6AXPEB_W00I_K@Z@?$dual_state_global@P6AXPEB_W00I_K@Z@__crt_state_management@@QEAAXAEAY00Q6AXPEB_W00I_K@Z@Z 0000000140052ddc f i libucrt:invalid_parameter.obj
 0001:00051e6c       ?check_synchronize_global_state_index@__crt_cached_ptd_host@@AEAA_KXZ 0000000140052e6c f i libucrt:invalid_parameter.obj
 0001:00051eb0       ?dangerous_get_state_array@?$dual_state_global@P6AXPEB_W00I_K@Z@__crt_state_management@@QEAAPEAP6AXPEB_W00I_K@ZXZ 0000000140052eb0 f i libucrt:invalid_parameter.obj
 0001:00051eb4       ?get_current_global_state_index@__crt_cached_ptd_host@@QEAA_KXZ 0000000140052eb4 f i libucrt:invalid_parameter.obj
 0001:00051f04       ?get_raw_ptd_noexit@__crt_cached_ptd_host@@QEAAPEAU__acrt_ptd@@XZ 0000000140052f04 f i libucrt:invalid_parameter.obj
 0001:00051f88       ?try_synchronize_per_thread_data@__crt_cached_ptd_host@@AEAAPEAU__acrt_ptd@@XZ 0000000140052f88 f i libucrt:invalid_parameter.obj
 0001:00052004       ?value@?$dual_state_global@P6AXPEB_W00I_K@Z@__crt_state_management@@QEAAAEAP6AXPEB_W00I_K@ZAEAV__crt_cached_ptd_host@@@Z 0000000140053004 f i libucrt:invalid_parameter.obj
 0001:00052064       ?value@?$dual_state_global@P6AXPEB_W00I_K@Z@__crt_state_management@@QEAAAEAP6AXPEB_W00I_K@ZXZ 0000000140053064 f i libucrt:invalid_parameter.obj
 0001:00052068       __acrt_call_reportfault    0000000140053068 f   libucrt:invalid_parameter.obj
 0001:0005221c       __acrt_initialize_invalid_parameter_handler 000000014005321c f   libucrt:invalid_parameter.obj
 0001:00052228       _get_invalid_parameter_handler 0000000140053228 f   libucrt:invalid_parameter.obj
 0001:00052248       _get_thread_local_invalid_parameter_handler 0000000140053248 f   libucrt:invalid_parameter.obj
 0001:00052268       _invalid_parameter         0000000140053268 f   libucrt:invalid_parameter.obj
 0001:0005232c       _invalid_parameter_internal 000000014005332c f   libucrt:invalid_parameter.obj
 0001:0005242c       _invalid_parameter_noinfo  000000014005342c f   libucrt:invalid_parameter.obj
 0001:00052454       _invalid_parameter_noinfo_noreturn 0000000140053454 f   libucrt:invalid_parameter.obj
 0001:00052490       _invoke_watson             0000000140053490 f   libucrt:invalid_parameter.obj
 0001:000524e8       _set_invalid_parameter_handler 00000001400534e8 f   libucrt:invalid_parameter.obj
 0001:0005252c       _set_thread_local_invalid_parameter_handler 000000014005352c f   libucrt:invalid_parameter.obj
 0001:0005255c       ?get_doserrno@__crt_cached_ptd_host@@QEAA@XZ 000000014005355c f i libucrt:errno.obj
 0001:00052564       ?set@?$cached@K@__crt_cached_ptd_host@@QEAAKK@Z 0000000140053564 f i libucrt:errno.obj
 0001:00052570       __acrt_errno_from_os_error 0000000140053570 f   libucrt:errno.obj
 0001:000525c8       __acrt_errno_map_os_error  00000001400535c8 f   libucrt:errno.obj
 0001:00052620       __acrt_errno_map_os_error_ptd 0000000140053620 f   libucrt:errno.obj
 0001:0005264c       __doserrno                 000000014005364c f   libucrt:errno.obj
 0001:00052674       _errno                     0000000140053674 f   libucrt:errno.obj
 0001:0005269c       _get_doserrno              000000014005369c f   libucrt:errno.obj
 0001:000526e8       _get_errno                 00000001400536e8 f   libucrt:errno.obj
 0001:00052734       _set_doserrno              0000000140053734 f   libucrt:errno.obj
 0001:0005277c       _set_errno                 000000014005377c f   libucrt:errno.obj
 0001:000527d0       _free_base                 00000001400537d0 f   libucrt:free_base.obj
 0001:0005281c       _malloc_base               000000014005381c f   libucrt:malloc_base.obj
 0001:00053360       ??1?$__crt_simd_cleanup_guard@$00@@QEAA@XZ 0000000140054360 f i libucrt:strnlen.obj
 0001:00053364       ??1?$__crt_simd_cleanup_guard@$0A@@@QEAA@XZ 0000000140054364 f i libucrt:strnlen.obj
 0001:00053368       ?compare_equals@?$__crt_simd_traits@$00E@@SA?AT__m256i@@T2@0@Z 0000000140054368 f i libucrt:strnlen.obj
 0001:00053374       ?compare_equals@?$__crt_simd_traits@$00G@@SA?AT__m256i@@T2@0@Z 0000000140054374 f i libucrt:strnlen.obj
 0001:00053380       ?compare_equals@?$__crt_simd_traits@$0A@E@@SA?AT__m128i@@T2@0@Z 0000000140054380 f i libucrt:strnlen.obj
 0001:0005338c       ?compare_equals@?$__crt_simd_traits@$0A@G@@SA?AT__m128i@@T2@0@Z 000000014005438c f i libucrt:strnlen.obj
 0001:00053398       ?compute_byte_mask@?$__crt_simd_pack_traits@$00@@SAHT__m256i@@@Z 0000000140054398 f i libucrt:strnlen.obj
 0001:000533a8       ?compute_byte_mask@?$__crt_simd_pack_traits@$0A@@@SAHT__m128i@@@Z 00000001400543a8 f i libucrt:strnlen.obj
 0001:000533b4       ?get_zero_pack@?$__crt_simd_pack_traits@$00@@SA?AT__m256i@@XZ 00000001400543b4 f i libucrt:strnlen.obj
 0001:000533bc       ?get_zero_pack@?$__crt_simd_pack_traits@$0A@@@SA?AT__m128i@@XZ 00000001400543bc f i libucrt:strnlen.obj
 0001:000533c0       strnlen                    00000001400543c0 f   libucrt:strnlen.obj
 0001:00053564       wcslen                     0000000140054564 f   libucrt:strnlen.obj
 0001:000536d8       wcsnlen                    00000001400546d8 f   libucrt:strnlen.obj
 0001:00053924       ?value@?$dual_state_global@PEAU__crt_multibyte_data@@@__crt_state_management@@QEAAAEAPEAU__crt_multibyte_data@@XZ 0000000140054924 f i libucrt:locale_update.obj
 0001:00053928       ?value_explicit@?$dual_state_global@PEAU__crt_locale_data@@@__crt_state_management@@QEAAAEAPEAU__crt_locale_data@@_K@Z 0000000140054928 f i libucrt:locale_update.obj
 0001:00053930       ?value_explicit@?$dual_state_global@PEAU__crt_multibyte_data@@@__crt_state_management@@QEAAAEAPEAU__crt_multibyte_data@@_K@Z 0000000140054930 f i libucrt:locale_update.obj
 0001:00053938       __acrt_should_sync_with_global_locale 0000000140054938 f i libucrt:locale_update.obj
 0001:0005394c       __acrt_update_locale_info  000000014005494c f   libucrt:locale_update.obj
 0001:0005398c       __acrt_update_locale_info_explicit 000000014005498c f   libucrt:locale_update.obj
 0001:000539d0       __acrt_update_multibyte_info 00000001400549d0 f   libucrt:locale_update.obj
 0001:00053a10       __acrt_update_multibyte_info_explicit 0000000140054a10 f   libucrt:locale_update.obj
 0001:00053a54       ?__acrt_fp_classify@@YA?AW4__acrt_fp_class@@AEBN@Z 0000000140054a54 f i libucrt:cvt.obj
 0001:00053ac8       ?__acrt_fp_is_negative@@YA_NAEBN@Z 0000000140054ac8 f i libucrt:cvt.obj
 0001:00054a44       ?strrchr@@YAPEADQEADH@Z    0000000140055a44 f i libucrt:cvt.obj
 0001:00054a4c       __acrt_fp_format           0000000140055a4c f   libucrt:cvt.obj
 0001:00054dec       ?value_or@?$cached@H@__crt_cached_ptd_host@@QEBAHH@Z 0000000140055dec f i libucrt:wctomb.obj
 0001:00054dfc       _wctomb_internal           0000000140055dfc f   libucrt:wctomb.obj
 0001:00055018       _wctomb_l                  0000000140056018 f   libucrt:wctomb.obj
 0001:00055140       _wctomb_s_l                0000000140056140 f   libucrt:wctomb.obj
 0001:00055218       wctomb                     0000000140056218 f   libucrt:wctomb.obj
 0001:00055310       wctomb_s                   0000000140056310 f   libucrt:wctomb.obj
 0001:000553d8       _isleadbyte_fast_internal  00000001400563d8 f i libucrt:mbtowc.obj
 0001:000553f8       _mbtowc_internal           00000001400563f8 f   libucrt:mbtowc.obj
 0001:000555d0       _mbtowc_l                  00000001400565d0 f   libucrt:mbtowc.obj
 0001:0005569c       mbtowc                     000000014005669c f   libucrt:mbtowc.obj
 0001:0005575c       ?lowio_handle@__crt_stdio_stream@@QEBAHXZ 000000014005675c f i libucrt:fileno.obj
 0001:00055768       _fileno                    0000000140056768 f   libucrt:fileno.obj
 0001:00055798       ??$?RPEAU__crt_stdio_stream_data@@@__crt_internal_free_policy@@QEBAXQEBQEAU__crt_stdio_stream_data@@@Z 0000000140056798 f i libucrt:_file.obj
 0001:000557a4       ??0?$__crt_unique_heap_ptr@PEAU__crt_stdio_stream_data@@U__crt_internal_free_policy@@@@QEAA@QEAPEAU__crt_stdio_stream_data@@@Z 00000001400567a4 f i libucrt:_file.obj
 0001:000557ac       ??1?$__crt_unique_heap_ptr@PEAU__crt_stdio_stream_data@@U__crt_internal_free_policy@@@@QEAA@XZ 00000001400567ac f i libucrt:_file.obj
 0001:000557d0       ?detach@?$__crt_unique_heap_ptr@PEAU__crt_stdio_stream_data@@U__crt_internal_free_policy@@@@QEAAPEAPEAU__crt_stdio_stream_data@@XZ 00000001400567d0 f i libucrt:_file.obj
 0001:000557dc       ?release@?$__crt_unique_heap_ptr@PEAU__crt_stdio_stream_data@@U__crt_internal_free_policy@@@@QEAAXXZ 00000001400567dc f i libucrt:_file.obj
 0001:00055800       __acrt_initialize_stdio    0000000140056800 f   libucrt:_file.obj
 0001:00055968       __acrt_iob_func            0000000140056968 f   libucrt:_file.obj
 0001:00055980       __acrt_uninitialize_stdio  0000000140056980 f   libucrt:_file.obj
 0001:000559f4       _get_stream_buffer_pointers 00000001400569f4 f   libucrt:_file.obj
 0001:00055a4c       _lock_file                 0000000140056a4c f   libucrt:_file.obj
 0001:00055a5c       _unlock_file               0000000140056a5c f   libucrt:_file.obj
 0001:00055a6c       _get_printf_count_output   0000000140056a6c f   libucrt:printf_count_output.obj
 0001:00055a8c       _set_printf_count_output   0000000140056a8c f   libucrt:printf_count_output.obj
 0001:00055b80       _fputwc_nolock             0000000140056b80 f   libucrt:fputwc.obj
 0001:00055c40       _fputwc_nolock_internal    0000000140056c40 f   libucrt:fputwc.obj
 0001:00055e2c       _fputwchar                 0000000140056e2c f   libucrt:fputwc.obj
 0001:00055e58       _putwc_nolock              0000000140056e58 f   libucrt:fputwc.obj
 0001:00055e60       fputwc                     0000000140056e60 f   libucrt:fputwc.obj
 0001:00055f20       putwc                      0000000140056f20 f   libucrt:fputwc.obj
 0001:00055f28       putwchar                   0000000140056f28 f   libucrt:fputwc.obj
 0001:000560f0       _fputc_nolock              00000001400570f0 f   libucrt:fputc.obj
 0001:000561c8       _fputc_nolock_internal     00000001400571c8 f   libucrt:fputc.obj
 0001:000561e4       _fputchar                  00000001400571e4 f   libucrt:fputc.obj
 0001:00056210       _putc_nolock               0000000140057210 f   libucrt:fputc.obj
 0001:00056218       fputc                      0000000140057218 f   libucrt:fputc.obj
 0001:000562d8       putc                       00000001400572d8 f   libucrt:fputc.obj
 0001:000562e0       putchar                    00000001400572e0 f   libucrt:fputc.obj
 0001:000562e8       ?has_any_buffer@__crt_stdio_stream@@QEBA_NXZ 00000001400572e8 f i libucrt:_sftbuf.obj
 0001:00056300       ?has_any_of@__crt_stdio_stream@@QEBA_NJ@Z 0000000140057300 f i libucrt:_sftbuf.obj
 0001:00056310       ?has_temporary_buffer@__crt_stdio_stream@@QEBA_NXZ 0000000140057310 f i libucrt:_sftbuf.obj
 0001:00056320       ?set_flags@__crt_stdio_stream@@QEBA_NJ@Z 0000000140057320 f i libucrt:_sftbuf.obj
 0001:00056348       ?unset_flags@__crt_stdio_stream@@QEBA_NJ@Z 0000000140057348 f i libucrt:_sftbuf.obj
 0001:00056378       __acrt_should_use_temporary_buffer 0000000140057378 f   libucrt:_sftbuf.obj
 0001:000563d4       __acrt_stdio_begin_temporary_buffering_nolock 00000001400573d4 f   libucrt:_sftbuf.obj
 0001:000564cc       __acrt_stdio_end_temporary_buffering_nolock 00000001400574cc f   libucrt:_sftbuf.obj
 0001:00056518       ??$?RU__acrt_ptd@@@__crt_internal_free_policy@@QEBAXQEBU__acrt_ptd@@@Z 0000000140057518 f i libucrt:per_thread_data.obj
 0001:000567d8       ??0?$__crt_unique_heap_ptr@U__acrt_ptd@@U__crt_internal_free_policy@@@@QEAA@QEAU__acrt_ptd@@@Z 00000001400577d8 f i libucrt:per_thread_data.obj
 0001:000567e0       ??1?$__crt_unique_heap_ptr@U__acrt_ptd@@U__crt_internal_free_policy@@@@QEAA@XZ 00000001400577e0 f i libucrt:per_thread_data.obj
 0001:00056804       ??B?$__crt_unique_heap_ptr@U__acrt_ptd@@U__crt_internal_free_policy@@@@QEBA_NXZ 0000000140057804 f i libucrt:per_thread_data.obj
 0001:00056ad4       ?dangerous_get_state_array@?$dual_state_global@PEAU__crt_locale_data@@@__crt_state_management@@QEAAPEAPEAU__crt_locale_data@@XZ 0000000140057ad4 f i libucrt:per_thread_data.obj
 0001:00056d68       ?detach@?$__crt_unique_heap_ptr@U__acrt_ptd@@U__crt_internal_free_policy@@@@QEAAPEAU__acrt_ptd@@XZ 0000000140057d68 f i libucrt:per_thread_data.obj
 0001:00056d74       ?get@?$__crt_unique_heap_ptr@U__acrt_ptd@@U__crt_internal_free_policy@@@@QEBAPEAU__acrt_ptd@@XZ 0000000140057d74 f i libucrt:per_thread_data.obj
 0001:0005701c       ?is_valid@?$__crt_unique_heap_ptr@U__acrt_ptd@@U__crt_internal_free_policy@@@@QEBA_NXZ 000000014005801c f i libucrt:per_thread_data.obj
 0001:00057028       ?release@?$__crt_unique_heap_ptr@U__acrt_ptd@@U__crt_internal_free_policy@@@@QEAAXXZ 0000000140058028 f i libucrt:per_thread_data.obj
 0001:000570e4       __acrt_freeptd             00000001400580e4 f   libucrt:per_thread_data.obj
 0001:00057138       __acrt_getptd              0000000140058138 f   libucrt:per_thread_data.obj
 0001:00057240       __acrt_getptd_head         0000000140058240 f   libucrt:per_thread_data.obj
 0001:0005730c       __acrt_getptd_noexit       000000014005830c f   libucrt:per_thread_data.obj
 0001:00057408       __acrt_getptd_noexit_explicit 0000000140058408 f   libucrt:per_thread_data.obj
 0001:000574f8       __acrt_initialize_ptd      00000001400584f8 f   libucrt:per_thread_data.obj
 0001:00057540       __acrt_uninitialize_ptd    0000000140058540 f   libucrt:per_thread_data.obj
 0001:0005756c       __threadhandle             000000014005856c f   libucrt:per_thread_data.obj
 0001:00057574       __threadid                 0000000140058574 f   libucrt:per_thread_data.obj
 0001:0005757c       __p___mb_cur_max           000000014005857c f   libucrt:nlsdata.obj
 0001:00057850       __acrt_initialize_lowio    0000000140058850 f   libucrt:ioinit.obj
 0001:0005789c       __acrt_uninitialize_lowio  000000014005889c f   libucrt:ioinit.obj
 0001:000578ec       _set_error_mode            00000001400588ec f   libucrt:set_error_mode.obj
 0001:000579e0       wcscat_s                   00000001400589e0 f   libucrt:wcscat_s.obj
 0001:00057afc       wcscpy_s                   0000000140058afc f   libucrt:wcscpy_s.obj
 0001:00057cac       wcsncpy_s                  0000000140058cac f   libucrt:wcsncpy_s.obj
 0001:00057f84       ??$message_box@$$TAEBQEBDAEBQEBDK@?$__crt_char_traits@D@@SAH$$QEA$$TAEBQEBD1$$QEAK@Z 0000000140058f84 f i libucrt:crtmbox.obj
 0001:00057f9c       ??$message_box@$$TAEBQEB_WAEBQEB_WK@?$__crt_char_traits@_W@@SAH$$QEA$$TAEBQEB_W1$$QEAK@Z 0000000140058f9c f i libucrt:crtmbox.obj
 0001:00057fb4       ??$message_box@PEAUHWND__@@AEBQEBDAEBQEBDAEBI@?$__crt_char_traits@D@@SAH$$QEAPEAUHWND__@@AEBQEBD1AEBI@Z 0000000140058fb4 f i libucrt:crtmbox.obj
 0001:00057fcc       ??$message_box@PEAUHWND__@@AEBQEB_WAEBQEB_WAEBI@?$__crt_char_traits@_W@@SAH$$QEAPEAUHWND__@@AEBQEB_W1AEBI@Z 0000000140058fcc f i libucrt:crtmbox.obj
 0001:00057fe4       ??$output_debug_string@AEBQEBD@?$__crt_char_traits@D@@SAXAEBQEBD@Z 0000000140058fe4 f i libucrt:crtmbox.obj
 0001:00057ff0       ??$output_debug_string@AEBQEB_W@?$__crt_char_traits@_W@@SAXAEBQEB_W@Z 0000000140058ff0 f i libucrt:crtmbox.obj
 0001:00057ffc       __acrt_show_narrow_message_box 0000000140058ffc f   libucrt:crtmbox.obj
 0001:000580c8       __acrt_show_wide_message_box 00000001400590c8 f   libucrt:crtmbox.obj
 0001:00058198       _calloc_base               0000000140059198 f   libucrt:calloc_base.obj
 0001:0005825c       ??$__acrt_convert_wcs_mbs_cp@D_WV<lambda_7c9dea7b4ca7285d2cdb541a38da6275>@@U__crt_win32_buffer_internal_dynamic_resizing@@@@YAHQEBDAEAV?$__crt_win32_buffer@_WU__crt_win32_buffer_internal_dynamic_resizing@@@@AEBV<lambda_7c9dea7b4ca7285d2cdb541a38da6275>@@I@Z 000000014005925c f i libucrt:argv_wildcards.obj
 0001:00058434       ??$__acrt_convert_wcs_mbs_cp@_WDV<lambda_d8593a27d1aa8c02be35c86a17d324c4>@@U__crt_win32_buffer_internal_dynamic_resizing@@@@YAHQEB_WAEAV?$__crt_win32_buffer@DU__crt_win32_buffer_internal_dynamic_resizing@@@@AEBV<lambda_d8593a27d1aa8c02be35c86a17d324c4>@@I@Z 0000000140059434 f i libucrt:argv_wildcards.obj
 0001:00058624       ??$__acrt_mbs_to_wcs_cp@U__crt_win32_buffer_internal_dynamic_resizing@@@@YAHQEBDAEAV?$__crt_win32_buffer@_WU__crt_win32_buffer_internal_dynamic_resizing@@@@I@Z 0000000140059624 f i libucrt:argv_wildcards.obj
 0001:00058634       ??$__acrt_wcs_to_mbs_cp@U__crt_win32_buffer_internal_dynamic_resizing@@@@YAHQEB_WAEAV?$__crt_win32_buffer@DU__crt_win32_buffer_internal_dynamic_resizing@@@@I@Z 0000000140059634 f i libucrt:argv_wildcards.obj
 0001:000597e4       ??$tcslen@AEBQEBD@?$__crt_char_traits@D@@SA_KAEBQEBD@Z 000000014005a7e4 f i libucrt:argv_wildcards.obj
 0001:000597fc       ??$tcslen@AEBQEB_W@?$__crt_char_traits@_W@@SA_KAEBQEB_W@Z 000000014005a7fc f i libucrt:argv_wildcards.obj
 0001:00059814       ??$tcsncpy_s@AEAPEAD_KAEAPEADAEB_K@?$__crt_char_traits@D@@SAHAEAPEAD$$QEA_K0AEB_K@Z 000000014005a814 f i libucrt:argv_wildcards.obj
 0001:0005982c       ??$tcsncpy_s@AEAPEA_W_KAEAPEA_WAEB_K@?$__crt_char_traits@_W@@SAHAEAPEA_W$$QEA_K0AEB_K@Z 000000014005a82c f i libucrt:argv_wildcards.obj
 0001:00059844       ??$tcsncpy_s@PEADAEB_KAEBQEBDAEB_K@?$__crt_char_traits@D@@SAH$$QEAPEADAEB_KAEBQEBD1@Z 000000014005a844 f i libucrt:argv_wildcards.obj
 0001:0005985c       ??$tcsncpy_s@PEAD_KAEBQEBDAEB_K@?$__crt_char_traits@D@@SAH$$QEAPEAD$$QEA_KAEBQEBDAEB_K@Z 000000014005a85c f i libucrt:argv_wildcards.obj
 0001:00059874       ??$tcsncpy_s@PEA_WAEB_KAEBQEB_WAEB_K@?$__crt_char_traits@_W@@SAH$$QEAPEA_WAEB_KAEBQEB_W1@Z 000000014005a874 f i libucrt:argv_wildcards.obj
 0001:0005988c       ??$tcsncpy_s@PEA_W_KAEBQEB_WAEB_K@?$__crt_char_traits@_W@@SAH$$QEAPEA_W$$QEA_KAEBQEB_WAEB_K@Z 000000014005a88c f i libucrt:argv_wildcards.obj
 0001:000598a4       ??$tcspbrk@AEAPEADAEAY02$$CBD@?$__crt_char_traits@D@@SAPEADAEAPEADAEAY02$$CBD@Z 000000014005a8a4 f i libucrt:argv_wildcards.obj
 0001:000598b0       ??$tcspbrk@AEAPEA_WAEAY02$$CB_W@?$__crt_char_traits@_W@@SAPEA_WAEAPEA_WAEAY02$$CB_W@Z 000000014005a8b0 f i libucrt:argv_wildcards.obj
 0001:000598bc       ??0?$__crt_unique_handle_t@U__crt_findfile_traits@@@@QEAA@QEAX@Z 000000014005a8bc f i libucrt:argv_wildcards.obj
 0001:000598c4       ??0?$__crt_win32_buffer@DU__crt_win32_buffer_internal_dynamic_resizing@@@@QEAA@XZ 000000014005a8c4 f i libucrt:argv_wildcards.obj
 0001:000598e8       ??0?$__crt_win32_buffer@_WU__crt_win32_buffer_internal_dynamic_resizing@@@@QEAA@XZ 000000014005a8e8 f i libucrt:argv_wildcards.obj
 0001:0005993c       ??0_LocaleUpdate@@QEAA@QEAU__crt_locale_pointers@@@Z 000000014005a93c f i libucrt:argv_wildcards.obj
 0001:00059a00       ??1?$__crt_unique_handle_t@U__crt_findfile_traits@@@@QEAA@XZ 000000014005aa00 f i libucrt:argv_wildcards.obj
 0001:00059a2c       ??1?$__crt_win32_buffer@DU__crt_win32_buffer_internal_dynamic_resizing@@@@QEAA@XZ 000000014005aa2c f i libucrt:argv_wildcards.obj
 0001:00059a58       ??1?$__crt_win32_buffer@_WU__crt_win32_buffer_internal_dynamic_resizing@@@@QEAA@XZ 000000014005aa58 f i libucrt:argv_wildcards.obj
 0001:00059b14       ??1_LocaleUpdate@@QEAA@XZ  000000014005ab14 f i libucrt:argv_wildcards.obj
 0001:00059b44       ??R<lambda_7c9dea7b4ca7285d2cdb541a38da6275>@@QEBA@IQEBDQEA_W_K@Z 000000014005ab44 f i libucrt:argv_wildcards.obj
 0001:00059bf4       ??R<lambda_d8593a27d1aa8c02be35c86a17d324c4>@@QEBA@IQEB_WQEAD_K@Z 000000014005abf4 f i libucrt:argv_wildcards.obj
 0001:00059c30       ?GetLocaleT@_LocaleUpdate@@QEAAPEAU__crt_locale_pointers@@XZ 000000014005ac30 f i libucrt:argv_wildcards.obj
 0001:00059c38       ?__acrt_get_utf8_acp_compatibility_codepage@@YAIXZ 000000014005ac38 f i libucrt:argv_wildcards.obj
 0001:00059c94       ?_deallocate@?$__crt_win32_buffer@DU__crt_win32_buffer_internal_dynamic_resizing@@@@AEAAXXZ 000000014005ac94 f i libucrt:argv_wildcards.obj
 0001:00059cc0       ?_deallocate@?$__crt_win32_buffer@_WU__crt_win32_buffer_internal_dynamic_resizing@@@@AEAAXXZ 000000014005acc0 f i libucrt:argv_wildcards.obj
 0001:00059cec       ?allocate@?$__crt_win32_buffer@DU__crt_win32_buffer_internal_dynamic_resizing@@@@QEAAH_K@Z 000000014005acec f i libucrt:argv_wildcards.obj
 0001:00059d68       ?allocate@?$__crt_win32_buffer@_WU__crt_win32_buffer_internal_dynamic_resizing@@@@QEAAH_K@Z 000000014005ad68 f i libucrt:argv_wildcards.obj
 0001:00059de4       ?allocate@__crt_win32_buffer_internal_dynamic_resizing@@SAHQEAPEAX_KAEBV__crt_win32_buffer_empty_debug_info@@@Z 000000014005ade4 f i libucrt:argv_wildcards.obj
 0001:0005a044       ?capacity@?$__crt_win32_buffer@DU__crt_win32_buffer_internal_dynamic_resizing@@@@QEBA_KXZ 000000014005b044 f i libucrt:argv_wildcards.obj
 0001:0005a04c       ?capacity@?$__crt_win32_buffer@_WU__crt_win32_buffer_internal_dynamic_resizing@@@@QEBA_KXZ 000000014005b04c f i libucrt:argv_wildcards.obj
 0001:0005a054       ?close@?$__crt_unique_handle_t@U__crt_findfile_traits@@@@QEAAXXZ 000000014005b054 f i libucrt:argv_wildcards.obj
 0001:0005a080       ?close@__crt_findfile_traits@@SA_NPEAX@Z 000000014005b080 f i libucrt:argv_wildcards.obj
 0001:0005a09c       ?data@?$__crt_win32_buffer@DU__crt_win32_buffer_internal_dynamic_resizing@@@@QEAAPEADXZ 000000014005b09c f i libucrt:argv_wildcards.obj
 0001:0005a0a4       ?data@?$__crt_win32_buffer@_WU__crt_win32_buffer_internal_dynamic_resizing@@@@QEAAPEA_WXZ 000000014005b0a4 f i libucrt:argv_wildcards.obj
 0001:0005a0ac       ?deallocate@__crt_win32_buffer_internal_dynamic_resizing@@SAXQEAXAEBV__crt_win32_buffer_empty_debug_info@@@Z 000000014005b0ac f i libucrt:argv_wildcards.obj
 0001:0005a0b4       ?debug_info@?$__crt_win32_buffer@DU__crt_win32_buffer_internal_dynamic_resizing@@@@QEBAAEBV__crt_win32_buffer_empty_debug_info@@XZ 000000014005b0b4 f i libucrt:argv_wildcards.obj
 0001:0005a0b8       ?debug_info@?$__crt_win32_buffer@_WU__crt_win32_buffer_internal_dynamic_resizing@@@@QEBAAEBV__crt_win32_buffer_empty_debug_info@@XZ 000000014005b0b8 f i libucrt:argv_wildcards.obj
 0001:0005a2bc       ?get@?$__crt_unique_handle_t@U__crt_findfile_traits@@@@QEBAPEAXXZ 000000014005b2bc f i libucrt:argv_wildcards.obj
 0001:0005a390       ?get_invalid_value@__crt_findfile_traits@@SAPEAXXZ 000000014005b390 f i libucrt:argv_wildcards.obj
 0001:0005a478       ?set_to_nullptr@?$__crt_win32_buffer@DU__crt_win32_buffer_internal_dynamic_resizing@@@@QEAAXXZ 000000014005b478 f i libucrt:argv_wildcards.obj
 0001:0005a4c0       ?set_to_nullptr@?$__crt_win32_buffer@_WU__crt_win32_buffer_internal_dynamic_resizing@@@@QEAAXXZ 000000014005b4c0 f i libucrt:argv_wildcards.obj
 0001:0005a508       ?size@?$__crt_win32_buffer@DU__crt_win32_buffer_internal_dynamic_resizing@@@@QEAAX_K@Z 000000014005b508 f i libucrt:argv_wildcards.obj
 0001:0005a510       ?size@?$__crt_win32_buffer@_WU__crt_win32_buffer_internal_dynamic_resizing@@@@QEAAX_K@Z 000000014005b510 f i libucrt:argv_wildcards.obj
 0001:0005a538       ?strpbrk@@YAPEADQEADQEBD@Z 000000014005b538 f i libucrt:argv_wildcards.obj
 0001:0005a540       ?wcspbrk@@YAPEA_WPEA_WPEB_W@Z 000000014005b540 f i libucrt:argv_wildcards.obj
 0001:0005a548       __acrt_expand_narrow_argv_wildcards 000000014005b548 f   libucrt:argv_wildcards.obj
 0001:0005a550       __acrt_expand_wide_argv_wildcards 000000014005b550 f   libucrt:argv_wildcards.obj
 0001:0005a558       ??$__acrt_convert_wcs_mbs_cp@_WDV<lambda_f788ae46380686e8b737efdd8c720d07>@@U__crt_win32_buffer_no_resizing@@@@YAHQEB_WAEAV?$__crt_win32_buffer@DU__crt_win32_buffer_no_resizing@@@@AEBV<lambda_f788ae46380686e8b737efdd8c720d07>@@I@Z 000000014005b558 f i libucrt:getmodulefilenamea.obj
 0001:0005a6b8       ??$__acrt_wcs_to_mbs_cp@U__crt_win32_buffer_no_resizing@@@@YAHQEB_WAEAV?$__crt_win32_buffer@DU__crt_win32_buffer_no_resizing@@@@I@Z 000000014005b6b8 f i libucrt:getmodulefilenamea.obj
 0001:0005a6c8       ??0?$__crt_win32_buffer@DU__crt_win32_buffer_no_resizing@@@@QEAA@QEAD_K@Z 000000014005b6c8 f i libucrt:getmodulefilenamea.obj
 0001:0005a6ec       ??1?$__crt_win32_buffer@DU__crt_win32_buffer_no_resizing@@@@QEAA@XZ 000000014005b6ec f i libucrt:getmodulefilenamea.obj
 0001:0005a6fc       ??R<lambda_f788ae46380686e8b737efdd8c720d07>@@QEBA@IQEB_WQEAD_K@Z 000000014005b6fc f i libucrt:getmodulefilenamea.obj
 0001:0005a738       ?_deallocate@?$__crt_win32_buffer@DU__crt_win32_buffer_no_resizing@@@@AEAAXXZ 000000014005b738 f i libucrt:getmodulefilenamea.obj
 0001:0005a748       ?allocate@?$__crt_win32_buffer@DU__crt_win32_buffer_no_resizing@@@@QEAAH_K@Z 000000014005b748 f i libucrt:getmodulefilenamea.obj
 0001:0005a784       ?allocate@__crt_win32_buffer_no_resizing@@SAHQEAPEAX_KAEBV__crt_win32_buffer_empty_debug_info@@@Z 000000014005b784 f i libucrt:getmodulefilenamea.obj
 0001:0005a7a0       ?capacity@?$__crt_win32_buffer@DU__crt_win32_buffer_no_resizing@@@@QEBA_KXZ 000000014005b7a0 f i libucrt:getmodulefilenamea.obj
 0001:0005a7a8       ?data@?$__crt_win32_buffer@DU__crt_win32_buffer_no_resizing@@@@QEAAPEADXZ 000000014005b7a8 f i libucrt:getmodulefilenamea.obj
 0001:0005a7b0       ?deallocate@__crt_win32_buffer_no_resizing@@SAXQEAXAEBV__crt_win32_buffer_empty_debug_info@@@Z 000000014005b7b0 f i libucrt:getmodulefilenamea.obj
 0001:0005a7b4       ?debug_info@?$__crt_win32_buffer@DU__crt_win32_buffer_no_resizing@@@@QEBAAEBV__crt_win32_buffer_empty_debug_info@@XZ 000000014005b7b4 f i libucrt:getmodulefilenamea.obj
 0001:0005a7b8       ?set_to_nullptr@?$__crt_win32_buffer@DU__crt_win32_buffer_no_resizing@@@@QEAAXXZ 000000014005b7b8 f i libucrt:getmodulefilenamea.obj
 0001:0005a7d4       ?size@?$__crt_win32_buffer@DU__crt_win32_buffer_no_resizing@@@@QEAAX_K@Z 000000014005b7d4 f i libucrt:getmodulefilenamea.obj
 0001:0005a7dc       ?size@?$__crt_win32_buffer@DU__crt_win32_buffer_no_resizing@@@@QEBA_KXZ 000000014005b7dc f i libucrt:getmodulefilenamea.obj
 0001:0005a7e4       __acrt_GetModuleFileNameA  000000014005b7e4 f   libucrt:getmodulefilenamea.obj
 0001:0005abc4       ??$initialize_from_array@$$BY10BAA@E@?$dual_state_global@PEAE@__crt_state_management@@QEAAXAEAY10BAA@E@Z 000000014005bbc4 f i libucrt:mbctype.obj
 0001:0005abc8       ??$initialize_from_array@$$BY10BAB@E@?$dual_state_global@PEAE@__crt_state_management@@QEAAXAEAY10BAB@E@Z 000000014005bbc8 f i libucrt:mbctype.obj
 0001:0005ae54       ?dangerous_get_state_array@?$dual_state_global@PEAE@__crt_state_management@@QEAAPEAPEAEXZ 000000014005be54 f i libucrt:mbctype.obj
 0001:0005ae58       ?dangerous_get_state_array@?$dual_state_global@PEAU__crt_multibyte_data@@@__crt_state_management@@QEAAPEAPEAU__crt_multibyte_data@@XZ 000000014005be58 f i libucrt:mbctype.obj
 0001:0005aef8       ?initialize@?$dual_state_global@PEAU__crt_multibyte_data@@@__crt_state_management@@QEAAXQEAU__crt_multibyte_data@@@Z 000000014005bef8 f i libucrt:mbctype.obj
 0001:0005b61c       ?value@?$dual_state_global@PEAE@__crt_state_management@@QEAAAEAPEAEXZ 000000014005c61c f i libucrt:mbctype.obj
 0001:0005b620       __acrt_initialize_multibyte 000000014005c620 f   libucrt:mbctype.obj
 0001:0005b698       __acrt_update_thread_multibyte_data 000000014005c698 f   libucrt:mbctype.obj
 0001:0005b6bc       __p__mbcasemap             000000014005c6bc f   libucrt:mbctype.obj
 0001:0005b6c8       __p__mbctype               000000014005c6c8 f   libucrt:mbctype.obj
 0001:0005b6d4       _getmbcp                   000000014005c6d4 f   libucrt:mbctype.obj
 0001:0005b71c       _setmbcp                   000000014005c71c f   libucrt:mbctype.obj
 0001:0005b74c       _setmbcp_nolock            000000014005c74c f   libucrt:mbctype.obj
 0001:0005bbf0       _ismbbalnum                000000014005cbf0 f   libucrt:ismbbyte.obj
 0001:0005bc0c       _ismbbalnum_l              000000014005cc0c f   libucrt:ismbbyte.obj
 0001:0005bc2c       _ismbbalpha                000000014005cc2c f   libucrt:ismbbyte.obj
 0001:0005bc48       _ismbbalpha_l              000000014005cc48 f   libucrt:ismbbyte.obj
 0001:0005bc68       _ismbbblank                000000014005cc68 f   libucrt:ismbbyte.obj
 0001:0005bc8c       _ismbbblank_l              000000014005cc8c f   libucrt:ismbbyte.obj
 0001:0005bcb4       _ismbbgraph                000000014005ccb4 f   libucrt:ismbbyte.obj
 0001:0005bcd0       _ismbbgraph_l              000000014005ccd0 f   libucrt:ismbbyte.obj
 0001:0005bcf0       _ismbbkalnum               000000014005ccf0 f   libucrt:ismbbyte.obj
 0001:0005bd08       _ismbbkalnum_l             000000014005cd08 f   libucrt:ismbbyte.obj
 0001:0005bd24       _ismbbkana                 000000014005cd24 f   libucrt:ismbbyte.obj
 0001:0005bd2c       _ismbbkana_l               000000014005cd2c f   libucrt:ismbbyte.obj
 0001:0005bdac       _ismbbkprint               000000014005cdac f   libucrt:ismbbyte.obj
 0001:0005bdc4       _ismbbkprint_l             000000014005cdc4 f   libucrt:ismbbyte.obj
 0001:0005bde0       _ismbbkpunct               000000014005cde0 f   libucrt:ismbbyte.obj
 0001:0005bdf8       _ismbbkpunct_l             000000014005cdf8 f   libucrt:ismbbyte.obj
 0001:0005be14       _ismbblead                 000000014005ce14 f   libucrt:ismbbyte.obj
 0001:0005be2c       _ismbblead_l               000000014005ce2c f   libucrt:ismbbyte.obj
 0001:0005be48       _ismbbprint                000000014005ce48 f   libucrt:ismbbyte.obj
 0001:0005be64       _ismbbprint_l              000000014005ce64 f   libucrt:ismbbyte.obj
 0001:0005be84       _ismbbpunct                000000014005ce84 f   libucrt:ismbbyte.obj
 0001:0005be9c       _ismbbpunct_l              000000014005ce9c f   libucrt:ismbbyte.obj
 0001:0005beb8       _ismbbtrail                000000014005ceb8 f   libucrt:ismbbyte.obj
 0001:0005bed0       _ismbbtrail_l              000000014005ced0 f   libucrt:ismbbyte.obj
 0001:0005beec       __acrt_initialize_command_line 000000014005ceec f   libucrt:argv_data.obj
 0001:0005bf1c       __acrt_uninitialize_command_line 000000014005cf1c f   libucrt:argv_data.obj
 0001:0005bf20       __p___argc                 000000014005cf20 f   libucrt:argv_data.obj
 0001:0005bf2c       __p___argv                 000000014005cf2c f   libucrt:argv_data.obj
 0001:0005bf38       __p___wargv                000000014005cf38 f   libucrt:argv_data.obj
 0001:0005bf44       __p__acmdln                000000014005cf44 f   libucrt:argv_data.obj
 0001:0005bf50       __p__pgmptr                000000014005cf50 f   libucrt:argv_data.obj
 0001:0005bf5c       __p__wcmdln                000000014005cf5c f   libucrt:argv_data.obj
 0001:0005bf68       __p__wpgmptr               000000014005cf68 f   libucrt:argv_data.obj
 0001:0005bf74       _get_pgmptr                000000014005cf74 f   libucrt:argv_data.obj
 0001:0005bfb8       _get_wpgmptr               000000014005cfb8 f   libucrt:argv_data.obj
 0001:0005c0ac       __acrt_MultiByteToWideChar 000000014005d0ac f   libucrt:multibytetowidechar.obj
 0001:0005c208       __acrt_WideCharToMultiByte 000000014005d208 f   libucrt:widechartomultibyte.obj
 0001:0005c3e4       __dcrt_get_narrow_environment_from_os 000000014005d3e4 f   libucrt:get_environment_from_os.obj
 0001:0005c538       __dcrt_get_wide_environment_from_os 000000014005d538 f   libucrt:get_environment_from_os.obj
 0001:0005d274       ??$get_or_create_environment_nolock@$$V@?$__crt_char_traits@D@@SAPEAPEADXZ 000000014005e274 f i libucrt:setenv.obj
 0001:0005d27c       ??$get_or_create_environment_nolock@$$V@?$__crt_char_traits@_W@@SAPEAPEA_WXZ 000000014005e27c f i libucrt:setenv.obj
 0001:0005d284       ??$set_environment_variable@AEBQEADQEAD@?$__crt_char_traits@D@@SAHAEBQEAD$$QEBQEAD@Z 000000014005e284 f i libucrt:setenv.obj
 0001:0005d294       ??$set_environment_variable@AEBQEA_WQEA_W@?$__crt_char_traits@_W@@SAHAEBQEA_W$$QEBQEA_W@Z 000000014005e294 f i libucrt:setenv.obj
 0001:0005d2a4       ??$tcschr@AEBQEADD@?$__crt_char_traits@D@@SAPEADAEBQEAD$$QEAD@Z 000000014005e2a4 f i libucrt:setenv.obj
 0001:0005d2b4       ??$tcschr@AEBQEA_WD@?$__crt_char_traits@_W@@SAPEA_WAEBQEA_W$$QEAD@Z 000000014005e2b4 f i libucrt:setenv.obj
 0001:0005d2c4       ??$tcscpy_s@AEAPEADAEB_KAEAPEAD@?$__crt_char_traits@D@@SAHAEAPEADAEB_K0@Z 000000014005e2c4 f i libucrt:setenv.obj
 0001:0005d2d8       ??$tcscpy_s@AEAPEA_WAEB_KAEAPEA_W@?$__crt_char_traits@_W@@SAHAEAPEA_WAEB_K0@Z 000000014005e2d8 f i libucrt:setenv.obj
 0001:0005d2ec       ??$tcscpy_s@AEBQEADAEB_KAEBQEAD@?$__crt_char_traits@D@@SAHAEBQEADAEB_K0@Z 000000014005e2ec f i libucrt:setenv.obj
 0001:0005d300       ??$tcscpy_s@AEBQEA_WAEB_KAEBQEA_W@?$__crt_char_traits@_W@@SAHAEBQEA_WAEB_K0@Z 000000014005e300 f i libucrt:setenv.obj
 0001:0005d314       ??$tcslen@AEBQEAD@?$__crt_char_traits@D@@SA_KAEBQEAD@Z 000000014005e314 f i libucrt:setenv.obj
 0001:0005d32c       ??$tcslen@AEBQEA_W@?$__crt_char_traits@_W@@SA_KAEBQEA_W@Z 000000014005e32c f i libucrt:setenv.obj
 0001:0005d344       ??$tcsnicoll@AEBQEBDAEAPEADAEB_K@?$__crt_char_traits@D@@SAHAEBQEBDAEAPEADAEB_K@Z 000000014005e344 f i libucrt:setenv.obj
 0001:0005d358       ??$tcsnicoll@AEBQEB_WAEAPEA_WAEB_K@?$__crt_char_traits@_W@@SAHAEBQEB_WAEAPEA_WAEB_K@Z 000000014005e358 f i libucrt:setenv.obj
 0001:0005d3b4       ?strchr@@YAPEADQEADH@Z     000000014005e3b4 f i libucrt:setenv.obj
 0001:0005d3bc       ?wcschr@@YAPEA_WPEA_W_W@Z  000000014005e3bc f i libucrt:setenv.obj
 0001:0005d3c4       __dcrt_set_variable_in_narrow_environment_nolock 000000014005e3c4 f   libucrt:setenv.obj
 0001:0005d3cc       __dcrt_set_variable_in_wide_environment_nolock 000000014005e3cc f   libucrt:setenv.obj
 0001:0005d3d4       __acrt_initialize_locks    000000014005e3d4 f   libucrt:locks.obj
 0001:0005d430       __acrt_lock                000000014005e430 f   libucrt:locks.obj
 0001:0005d450       __acrt_uninitialize_locks  000000014005e450 f   libucrt:locks.obj
 0001:0005d494       __acrt_unlock              000000014005e494 f   libucrt:locks.obj
 0001:0005d4b4       _lock_locales              000000014005e4b4 f   libucrt:locks.obj
 0001:0005d4d8       _unlock_locales            000000014005e4d8 f   libucrt:locks.obj
 0001:0005d4ec       __acrt_app_verifier_enabled 000000014005e4ec f   libucrt:peb_access.obj
 0001:0005d50c       __acrt_is_secure_process   000000014005e50c f   libucrt:peb_access.obj
 0001:0005d714       __acrt_get_begin_thread_init_policy 000000014005e714 f   libucrt:win_policies.obj
 0001:0005d764       __acrt_get_developer_information_policy 000000014005e764 f   libucrt:win_policies.obj
 0001:0005d7b8       __acrt_get_process_end_policy 000000014005e7b8 f   libucrt:win_policies.obj
 0001:0005d7f4       __acrt_get_windowing_model_policy 000000014005e7f4 f   libucrt:win_policies.obj
 0001:0005d874       ??$?RU__crt_lowio_handle_data@@@__crt_internal_free_policy@@QEBAXQEBU__crt_lowio_handle_data@@@Z 000000014005e874 f i libucrt:osfinfo.obj
 0001:0005d880       ??0?$__crt_unique_heap_ptr@U__crt_lowio_handle_data@@U__crt_internal_free_policy@@@@QEAA@QEAU__crt_lowio_handle_data@@@Z 000000014005e880 f i libucrt:osfinfo.obj
 0001:0005d888       ??1?$__crt_unique_heap_ptr@U__crt_lowio_handle_data@@U__crt_internal_free_policy@@@@QEAA@XZ 000000014005e888 f i libucrt:osfinfo.obj
 0001:0005d8ac       ??B?$__crt_unique_heap_ptr@U__crt_lowio_handle_data@@U__crt_internal_free_policy@@@@QEBA_NXZ 000000014005e8ac f i libucrt:osfinfo.obj
 0001:0005d8b8       ?detach@?$__crt_unique_heap_ptr@U__crt_lowio_handle_data@@U__crt_internal_free_policy@@@@QEAAPEAU__crt_lowio_handle_data@@XZ 000000014005e8b8 f i libucrt:osfinfo.obj
 0001:0005d8c4       ?get@?$__crt_unique_heap_ptr@U__crt_lowio_handle_data@@U__crt_internal_free_policy@@@@QEBAPEAU__crt_lowio_handle_data@@XZ 000000014005e8c4 f i libucrt:osfinfo.obj
 0001:0005d8c8       ?is_valid@?$__crt_unique_heap_ptr@U__crt_lowio_handle_data@@U__crt_internal_free_policy@@@@QEBA_NXZ 000000014005e8c8 f i libucrt:osfinfo.obj
 0001:0005d8d4       ?release@?$__crt_unique_heap_ptr@U__crt_lowio_handle_data@@U__crt_internal_free_policy@@@@QEAAXXZ 000000014005e8d4 f i libucrt:osfinfo.obj
 0001:0005d8f8       __acrt_lowio_create_handle_array 000000014005e8f8 f   libucrt:osfinfo.obj
 0001:0005d9c8       __acrt_lowio_destroy_handle_array 000000014005e9c8 f   libucrt:osfinfo.obj
 0001:0005da2c       __acrt_lowio_ensure_fh_exists 000000014005ea2c f   libucrt:osfinfo.obj
 0001:0005db00       __acrt_lowio_lock_fh       000000014005eb00 f   libucrt:osfinfo.obj
 0001:0005db30       __acrt_lowio_set_os_handle 000000014005eb30 f   libucrt:osfinfo.obj
 0001:0005dc20       __acrt_lowio_unlock_fh     000000014005ec20 f   libucrt:osfinfo.obj
 0001:0005dc50       _alloc_osfhnd              000000014005ec50 f   libucrt:osfinfo.obj
 0001:0005dde0       _free_osfhnd               000000014005ede0 f   libucrt:osfinfo.obj
 0001:0005dec8       _get_osfhandle             000000014005eec8 f   libucrt:osfinfo.obj
 0001:0005df5c       _open_osfhandle            000000014005ef5c f   libucrt:osfinfo.obj
 0001:0005e09c       ?dangerous_get_state_array@?$dual_state_global@H@__crt_state_management@@QEAAPEAHXZ 000000014005f09c f i libucrt:txtmode.obj
 0001:0005e0a0       __acrt_initialize_fmode    000000014005f0a0 f   libucrt:txtmode.obj
 0001:0005e0c0       __p__fmode                 000000014005f0c0 f   libucrt:txtmode.obj
 0001:0005e0cc       ??$?RG@__crt_internal_free_policy@@QEBAXQEBG@Z 000000014005f0cc f i libucrt:initctype.obj
 0001:0005e0d8       ??$?RJ@__crt_internal_free_policy@@QEBAXQEBJ@Z 000000014005f0d8 f i libucrt:initctype.obj
 0001:0005e0e4       ??0?$__crt_unique_heap_ptr@GU__crt_internal_free_policy@@@@QEAA@QEAG@Z 000000014005f0e4 f i libucrt:initctype.obj
 0001:0005e0ec       ??0?$__crt_unique_heap_ptr@JU__crt_internal_free_policy@@@@QEAA@QEAJ@Z 000000014005f0ec f i libucrt:initctype.obj
 0001:0005e0f4       ??1?$__crt_unique_heap_ptr@GU__crt_internal_free_policy@@@@QEAA@XZ 000000014005f0f4 f i libucrt:initctype.obj
 0001:0005e118       ??1?$__crt_unique_heap_ptr@JU__crt_internal_free_policy@@@@QEAA@XZ 000000014005f118 f i libucrt:initctype.obj
 0001:0005e13c       ?detach@?$__crt_unique_heap_ptr@GU__crt_internal_free_policy@@@@QEAAPEAGXZ 000000014005f13c f i libucrt:initctype.obj
 0001:0005e148       ?detach@?$__crt_unique_heap_ptr@JU__crt_internal_free_policy@@@@QEAAPEAJXZ 000000014005f148 f i libucrt:initctype.obj
 0001:0005e154       ?release@?$__crt_unique_heap_ptr@GU__crt_internal_free_policy@@@@QEAAXXZ 000000014005f154 f i libucrt:initctype.obj
 0001:0005e178       ?release@?$__crt_unique_heap_ptr@JU__crt_internal_free_policy@@@@QEAAXXZ 000000014005f178 f i libucrt:initctype.obj
 0001:0005e19c       ___lc_codepage_func        000000014005f19c f   libucrt:initctype.obj
 0001:0005e1d8       ___lc_collate_cp_func      000000014005f1d8 f   libucrt:initctype.obj
 0001:0005e214       ___lc_locale_name_func     000000014005f214 f   libucrt:initctype.obj
 0001:0005e254       ___mb_cur_max_func         000000014005f254 f   libucrt:initctype.obj
 0001:0005e290       ___mb_cur_max_l_func       000000014005f290 f   libucrt:initctype.obj
 0001:0005e2a4       __acrt_locale_initialize_ctype 000000014005f2a4 f   libucrt:initctype.obj
 0001:0005eaa0       ??$?RUlconv@@@__crt_internal_free_policy@@QEBAXQEBUlconv@@@Z 000000014005faa0 f i libucrt:initmon.obj
 0001:0005eaac       ??0?$__crt_unique_heap_ptr@Ulconv@@U__crt_internal_free_policy@@@@QEAA@QEAUlconv@@@Z 000000014005faac f i libucrt:initmon.obj
 0001:0005eab4       ??1?$__crt_unique_heap_ptr@Ulconv@@U__crt_internal_free_policy@@@@QEAA@XZ 000000014005fab4 f i libucrt:initmon.obj
 0001:0005ead8       ?detach@?$__crt_unique_heap_ptr@Ulconv@@U__crt_internal_free_policy@@@@QEAAPEAUlconv@@XZ 000000014005fad8 f i libucrt:initmon.obj
 0001:0005eae4       ?release@?$__crt_unique_heap_ptr@Ulconv@@U__crt_internal_free_policy@@@@QEAAXXZ 000000014005fae4 f i libucrt:initmon.obj
 0001:0005eb08       __acrt_locale_free_monetary 000000014005fb08 f   libucrt:initmon.obj
 0001:0005ec54       __acrt_locale_initialize_monetary 000000014005fc54 f   libucrt:initmon.obj
 0001:0005f2f8       __acrt_locale_free_numeric 00000001400602f8 f   libucrt:initnum.obj
 0001:0005f380       __acrt_locale_initialize_numeric 0000000140060380 f   libucrt:initnum.obj
 0001:0005f760       ??$?RU__crt_lc_time_data@@@__crt_internal_free_policy@@QEBAXQEBU__crt_lc_time_data@@@Z 0000000140060760 f i libucrt:inittime.obj
 0001:0005f7b4       ??0?$__crt_unique_heap_ptr@U__crt_lc_time_data@@U__crt_internal_free_policy@@@@QEAA@QEAU__crt_lc_time_data@@@Z 00000001400607b4 f i libucrt:inittime.obj
 0001:0005f7bc       ??1?$__crt_unique_heap_ptr@U__crt_lc_time_data@@U__crt_internal_free_policy@@@@QEAA@XZ 00000001400607bc f i libucrt:inittime.obj
 0001:0005f7e0       ??B?$__crt_unique_heap_ptr@U__crt_lc_time_data@@U__crt_internal_free_policy@@@@QEBA_NXZ 00000001400607e0 f i libucrt:inittime.obj
 0001:0005f7ec       ?detach@?$__crt_unique_heap_ptr@U__crt_lc_time_data@@U__crt_internal_free_policy@@@@QEAAPEAU__crt_lc_time_data@@XZ 00000001400607ec f i libucrt:inittime.obj
 0001:0005f838       ?get@?$__crt_unique_heap_ptr@U__crt_lc_time_data@@U__crt_internal_free_policy@@@@QEBAPEAU__crt_lc_time_data@@XZ 0000000140060838 f i libucrt:inittime.obj
 0001:0005fce8       ?is_valid@?$__crt_unique_heap_ptr@U__crt_lc_time_data@@U__crt_internal_free_policy@@@@QEBA_NXZ 0000000140060ce8 f i libucrt:inittime.obj
 0001:0005fcf4       ?release@?$__crt_unique_heap_ptr@U__crt_lc_time_data@@U__crt_internal_free_policy@@@@QEAAXXZ 0000000140060cf4 f i libucrt:inittime.obj
 0001:0005fd18       __acrt_locale_free_time    0000000140060d18 f   libucrt:inittime.obj
 0001:0005fe64       __acrt_locale_initialize_time 0000000140060e64 f   libucrt:inittime.obj
 0001:0005ff28       __pctype_func              0000000140060f28 f   libucrt:ctype.obj
 0001:0005ff64       __pwctype_func             0000000140060f64 f   libucrt:ctype.obj
 0001:000600a4       wcsncat_s                  00000001400610a4 f   libucrt:wcsncat_s.obj
 0001:000601dc       wcscspn                    00000001400611dc f   libucrt:wcscspn.obj
 0001:0006022c       wcspbrk                    000000014006122c f   libucrt:wcspbrk.obj
 0001:00060270       ??0?$__crt_scoped_stack_ptr@_W@@QEAA@U?$__crt_scoped_stack_ptr_tag@_W@@@Z 0000000140061270 f i libucrt:getstringtypea.obj
 0001:00060278       ??0?$__crt_scoped_stack_ptr_tag@_W@@QEAA@QEA_W@Z 0000000140061278 f i libucrt:getstringtypea.obj
 0001:00060280       ??1?$__crt_scoped_stack_ptr@_W@@QEAA@XZ 0000000140061280 f i libucrt:getstringtypea.obj
 0001:000602ac       ?get@?$__crt_scoped_stack_ptr@_W@@QEBAPEA_WXZ 00000001400612ac f i libucrt:getstringtypea.obj
 0001:000602b0       _MallocaComputeSize        00000001400612b0 f i libucrt:getstringtypea.obj
 0001:000602c4       _MarkAllocaS               00000001400612c4 f i libucrt:getstringtypea.obj
 0001:000602d8       __acrt_GetStringTypeA      00000001400612d8 f   libucrt:getstringtypea.obj
 0001:000604cc       _freea_crt                 00000001400614cc f i libucrt:getstringtypea.obj
 0001:000604f4       __acrt_add_locale_ref      00000001400614f4 f   libucrt:locale_refcounting.obj
 0001:000605a4       __acrt_free_locale         00000001400615a4 f   libucrt:locale_refcounting.obj
 0001:00060778       __acrt_locale_add_lc_time_reference 0000000140061778 f   libucrt:locale_refcounting.obj
 0001:000607a8       __acrt_locale_free_lc_time_if_unreferenced 00000001400617a8 f   libucrt:locale_refcounting.obj
 0001:000607ec       __acrt_locale_release_lc_time_reference 00000001400617ec f   libucrt:locale_refcounting.obj
 0001:0006081c       __acrt_release_locale_ref  000000014006181c f   libucrt:locale_refcounting.obj
 0001:000608f0       __acrt_update_thread_locale_data 00000001400618f0 f   libucrt:locale_refcounting.obj
 0001:0006097c       _updatetlocinfoEx_nolock   000000014006197c f   libucrt:locale_refcounting.obj
 0001:00061454       __acrt_get_qualified_locale 0000000140062454 f   libucrt:get_qualified_locale.obj
 0001:0006222c       __acrt_get_qualified_locale_downlevel 000000014006322c f   libucrt:getqloc_downlevel.obj
 0001:00062590       ??$?B$$A6AHPEA_WK_J@Z@__crt_fast_encoded_nullptr_t@@QEBAP6AHPEA_WK_J@ZXZ 0000000140063590 f i libucrt:winapi_thunks.obj
 0001:00062664       ??$__crt_fast_decode_pointer@P6AHPEA_WK_J@Z@@YAP6AHPEA_WK_J@ZQ6AH0K1@Z@Z 0000000140063664 f i libucrt:winapi_thunks.obj
 0001:00062680       ??$__crt_fast_decode_pointer@PEAX@@YAPEAXQEAX@Z 0000000140063680 f i libucrt:winapi_thunks.obj
 0001:0006269c       ??$__crt_fast_encode_pointer@P6AHPEA_WK_J@Z@@YAP6AHPEA_WK_J@ZQ6AH0K1@Z@Z 000000014006369c f i libucrt:winapi_thunks.obj
 0001:000633a8       GetCurrentThreadEffectiveToken 00000001400643a8 f i libucrt:winapi_thunks.obj
 0001:000633b4       __acrt_AppPolicyGetProcessTerminationMethodInternal 00000001400643b4 f   libucrt:winapi_thunks.obj
 0001:00063424       __acrt_AppPolicyGetShowDeveloperDiagnosticInternal 0000000140064424 f   libucrt:winapi_thunks.obj
 0001:00063494       __acrt_AppPolicyGetThreadInitializationTypeInternal 0000000140064494 f   libucrt:winapi_thunks.obj
 0001:00063504       __acrt_AppPolicyGetWindowingModelInternal 0000000140064504 f   libucrt:winapi_thunks.obj
 0001:00063574       __acrt_AreFileApisANSI     0000000140064574 f   libucrt:winapi_thunks.obj
 0001:000635cc       __acrt_CompareStringEx     00000001400645cc f   libucrt:winapi_thunks.obj
 0001:000636f4       __acrt_EnumSystemLocalesEx 00000001400646f4 f   libucrt:winapi_thunks.obj
 0001:000637bc       __acrt_FlsAlloc            00000001400647bc f   libucrt:winapi_thunks.obj
 0001:000637c4       __acrt_FlsFree             00000001400647c4 f   libucrt:winapi_thunks.obj
 0001:000637cc       __acrt_FlsGetValue         00000001400647cc f   libucrt:winapi_thunks.obj
 0001:000637d4       __acrt_FlsSetValue         00000001400647d4 f   libucrt:winapi_thunks.obj
 0001:000637dc       __acrt_GetDateFormatEx     00000001400647dc f   libucrt:winapi_thunks.obj
 0001:000638cc       __acrt_GetEnabledXStateFeatures 00000001400648cc f   libucrt:winapi_thunks.obj
 0001:00063920       __acrt_GetLocaleInfoEx     0000000140064920 f   libucrt:winapi_thunks.obj
 0001:000639d4       __acrt_GetSystemTimePreciseAsFileTime 00000001400649d4 f   libucrt:winapi_thunks.obj
 0001:00063a40       __acrt_GetTempPath2W       0000000140064a40 f   libucrt:winapi_thunks.obj
 0001:00063ab8       __acrt_GetTimeFormatEx     0000000140064ab8 f   libucrt:winapi_thunks.obj
 0001:00063b98       __acrt_GetUserDefaultLocaleName 0000000140064b98 f   libucrt:winapi_thunks.obj
 0001:00063c20       __acrt_GetXStateFeaturesMask 0000000140064c20 f   libucrt:winapi_thunks.obj
 0001:00063c94       __acrt_InitializeCriticalSectionEx 0000000140064c94 f   libucrt:winapi_thunks.obj
 0001:00063d20       __acrt_IsValidLocaleName   0000000140064d20 f   libucrt:winapi_thunks.obj
 0001:00063d9c       __acrt_LCIDToLocaleName    0000000140064d9c f   libucrt:winapi_thunks.obj
 0001:00063e40       __acrt_LCMapStringEx       0000000140064e40 f   libucrt:winapi_thunks.obj
 0001:00063f68       __acrt_LocaleNameToLCID    0000000140064f68 f   libucrt:winapi_thunks.obj
 0001:00063fdc       __acrt_LocateXStateFeature 0000000140064fdc f   libucrt:winapi_thunks.obj
 0001:00064060       __acrt_MessageBoxA         0000000140065060 f   libucrt:winapi_thunks.obj
 0001:000640fc       __acrt_MessageBoxW         00000001400650fc f   libucrt:winapi_thunks.obj
 0001:00064198       __acrt_RoInitialize        0000000140065198 f   libucrt:winapi_thunks.obj
 0001:000641f4       __acrt_RoUninitialize      00000001400651f4 f   libucrt:winapi_thunks.obj
 0001:00064240       __acrt_RtlGenRandom        0000000140065240 f   libucrt:winapi_thunks.obj
 0001:000642b0       __acrt_SetThreadStackGuarantee 00000001400652b0 f   libucrt:winapi_thunks.obj
 0001:00064310       __acrt_can_show_message_box 0000000140065310 f   libucrt:winapi_thunks.obj
 0001:00064398       __acrt_can_use_vista_locale_apis 0000000140065398 f   libucrt:winapi_thunks.obj
 0001:000643d4       __acrt_can_use_xstate_apis 00000001400653d4 f   libucrt:winapi_thunks.obj
 0001:00064410       __acrt_eagerly_load_locale_apis 0000000140065410 f   libucrt:winapi_thunks.obj
 0001:000645c0       __acrt_get_parent_window   00000001400655c0 f   libucrt:winapi_thunks.obj
 0001:00064670       __acrt_initialize_winapi_thunks 0000000140065670 f   libucrt:winapi_thunks.obj
 0001:0006469c       __acrt_is_interactive      000000014006569c f   libucrt:winapi_thunks.obj
 0001:000647b4       __acrt_uninitialize_winapi_thunks 00000001400657b4 f   libucrt:winapi_thunks.obj
 0001:00064808       localeconv                 0000000140065808 f   libucrt:localeconv.obj
 0001:00064848       _recalloc                  0000000140065848 f   libucrt:recalloc.obj
 0001:00064850       _recalloc_base             0000000140065850 f   libucrt:recalloc.obj
 0001:0006490c       __acrt_getheap             000000014006590c f   libucrt:heap_handle.obj
 0001:00064918       __acrt_initialize_heap     0000000140065918 f   libucrt:heap_handle.obj
 0001:0006493c       __acrt_uninitialize_heap   000000014006593c f   libucrt:heap_handle.obj
 0001:0006494c       _get_heap_handle           000000014006594c f   libucrt:heap_handle.obj
 0001:00064958       __acrt_execute_initializers 0000000140065958 f   libucrt:shared_initialization.obj
 0001:00064a14       __acrt_execute_uninitializers 0000000140065a14 f   libucrt:shared_initialization.obj
 0001:00064a6c       ??$?B$$A6AH_K@Z@__crt_fast_encoded_nullptr_t@@QEBAP6AH_K@ZXZ 0000000140065a6c f i libucrt:new_handler.obj
 0001:00064a78       ??$__crt_fast_decode_pointer@P6AH_K@Z@@YAP6AH_K@ZQ6AH0@Z@Z 0000000140065a78 f i libucrt:new_handler.obj
 0001:00064a94       ??$__crt_fast_encode_pointer@P6AH_K@Z@@YAP6AH_K@ZQ6AH0@Z@Z 0000000140065a94 f i libucrt:new_handler.obj
 0001:00064abc       ?_set_new_handler@@YAP6AH_K@ZH@Z 0000000140065abc f   libucrt:new_handler.obj
 0001:00064acc       ?initialize@?$dual_state_global@P6AH_K@Z@__crt_state_management@@QEAAXQ6AH_K@Z@Z 0000000140065acc f i libucrt:new_handler.obj
 0001:00064adc       ?value@?$dual_state_global@P6AH_K@Z@__crt_state_management@@QEAAAEAP6AH_K@ZXZ 0000000140065adc f i libucrt:new_handler.obj
 0001:00064ae0       __acrt_initialize_new_handler 0000000140065ae0 f   libucrt:new_handler.obj
 0001:00064aec       _callnewh                  0000000140065aec f   libucrt:new_handler.obj
 0001:00064b3c       _query_new_handler         0000000140065b3c f   libucrt:new_handler.obj
 0001:00064b80       _set_new_handler           0000000140065b80 f   libucrt:new_handler.obj
 0001:00064bf0       ??$?B$$A6AXH@Z@__crt_fast_encoded_nullptr_t@@QEBAP6AXH@ZXZ 0000000140065bf0 f i libucrt:signal.obj
 0001:00064c88       ??$__crt_fast_decode_pointer@P6AXH@Z@@YAP6AXH@ZQ6AXH@Z@Z 0000000140065c88 f i libucrt:signal.obj
 0001:00064ca4       ??$__crt_fast_encode_pointer@P6AXH@Z@@YAP6AXH@ZQ6AXH@Z@Z 0000000140065ca4 f i libucrt:signal.obj
 0001:00064e24       ?initialize@?$dual_state_global@P6AXH@Z@__crt_state_management@@QEAAXQ6AXH@Z@Z 0000000140065e24 f i libucrt:signal.obj
 0001:00064ed0       ?value@?$dual_state_global@P6AXH@Z@__crt_state_management@@QEAAAEAP6AXH@ZXZ 0000000140065ed0 f i libucrt:signal.obj
 0001:00064ed4       __acrt_get_sigabrt_handler 0000000140065ed4 f   libucrt:signal.obj
 0001:00064f10       __acrt_initialize_signal_handlers 0000000140065f10 f   libucrt:signal.obj
 0001:00064f34       __fpecode                  0000000140065f34 f   libucrt:signal.obj
 0001:00064f4c       __pxcptinfoptrs            0000000140065f4c f   libucrt:signal.obj
 0001:00064f64       raise                      0000000140065f64 f   libucrt:signal.obj
 0001:0006527c       signal                     000000014006627c f   libucrt:signal.obj
 0001:000657fc       ??0__crt_stdio_stream@@QEAA@QEAU__crt_stdio_stream_data@@@Z 00000001400667fc f i libucrt:fflush.obj
 0001:000659c8       ?__acrt_stdio_reset_buffer@@YAXV__crt_stdio_stream@@@Z 00000001400669c8 f i libucrt:fflush.obj
 0001:00065af0       ?has_all_of@__crt_stdio_stream@@QEBA_NJ@Z 0000000140066af0 f i libucrt:fflush.obj
 0001:00065b48       __acrt_stdio_flush_nolock  0000000140066b48 f   libucrt:fflush.obj
 0001:00065bf8       _fflush_nolock             0000000140066bf8 f   libucrt:fflush.obj
 0001:00065d00       _flushall                  0000000140066d00 f   libucrt:fflush.obj
 0001:00065d08       fflush                     0000000140066d08 f   libucrt:fflush.obj
 0001:00065d88       _iswctype_l                0000000140066d88 f   libucrt:iswctype.obj
 0001:00065d90       iswctype                   0000000140066d90 f   libucrt:iswctype.obj
 0001:00065e18       _isctype                   0000000140066e18 f   libucrt:isctype.obj
 0001:00065e54       _isctype_l                 0000000140066e54 f   libucrt:isctype.obj
 0001:000660c0       __acrt_fp_strflt_to_string 00000001400670c0 f   libucrt:_fptostr.obj
 0001:000677a0       ??0big_integer@__crt_strtox@@QEAA@AEBU01@@Z 00000001400687a0 f i libucrt:cfout.obj
 0001:000677e0       ??0big_integer@__crt_strtox@@QEAA@XZ 00000001400687e0 f i libucrt:cfout.obj
 0001:000678c0       ??4big_integer@__crt_strtox@@QEAAAEAU01@AEBU01@@Z 00000001400688c0 f i libucrt:cfout.obj
 0001:00067900       ??8__crt_strtox@@YA_NAEBUbig_integer@0@0@Z 0000000140068900 f i libucrt:cfout.obj
 0001:00067940       ??9__crt_strtox@@YA_NAEBUbig_integer@0@0@Z 0000000140068940 f i libucrt:cfout.obj
 0001:00067990       ?add_carry@__crt_strtox@@YAIAEAIII@Z 0000000140068990 f i libucrt:cfout.obj
 0001:000679b0       ?add_multiply_carry@__crt_strtox@@YAIAEAIIII@Z 00000001400689b0 f i libucrt:cfout.obj
 0001:000679e0       ?bit_scan_reverse@__crt_strtox@@YAII@Z 00000001400689e0 f i libucrt:cfout.obj
 0001:00067a00       ?count_sequential_high_zeroes@__crt_strtox@@YAII@Z 0000000140068a00 f i libucrt:cfout.obj
 0001:00067a20       ?divide@__crt_strtox@@YA_KAEAUbig_integer@1@AEBU21@@Z 0000000140068a20 f i libucrt:cfout.obj
 0001:00067ff0       ?is_zero@__crt_strtox@@YA_NAEBUbig_integer@1@@Z 0000000140068ff0 f i libucrt:cfout.obj
 0001:00068000       ?make_big_integer@__crt_strtox@@YA?AUbig_integer@1@_K@Z 0000000140069000 f i libucrt:cfout.obj
 0001:00068020       ?make_big_integer_power_of_two@__crt_strtox@@YA?AUbig_integer@1@I@Z 0000000140069020 f i libucrt:cfout.obj
 0001:000680a0       ?multiply@__crt_strtox@@YA_NAEAUbig_integer@1@AEBU21@@Z 00000001400690a0 f i libucrt:cfout.obj
 0001:00068520       ?multiply@__crt_strtox@@YA_NAEAUbig_integer@1@I@Z 0000000140069520 f i libucrt:cfout.obj
 0001:00068650       ?multiply_64_32@__crt_strtox@@YA_K_KI@Z 0000000140069650 f i libucrt:cfout.obj
 0001:00068660       ?multiply_by_power_of_ten@__crt_strtox@@YA_NAEAUbig_integer@1@I@Z 0000000140069660 f i libucrt:cfout.obj
 0001:00068d30       ?multiply_core@__crt_strtox@@YAIQEAIII@Z 0000000140069d30 f i libucrt:cfout.obj
 0001:00068d90       ?shift_left@__crt_strtox@@YA_NAEAUbig_integer@1@I@Z 0000000140069d90 f i libucrt:cfout.obj
 0001:00068f6c       __acrt_fltout              0000000140069f6c f   libucrt:cfout.obj
 0001:0006a748       __fpe_flt_rounds           000000014006b748 f   libucrt:fegetround.obj
 0001:0006a7a0       fegetround                 000000014006b7a0 f   libucrt:fegetround.obj
 0001:0006a7bc       ?__c32rtomb_utf8@__crt_mbstring@@YA_KPEAD_UPEAU_Mbstatet@@AEAV__crt_cached_ptd_host@@@Z 000000014006b7bc f   libucrt:c32rtomb.obj
 0001:0006a888       c32rtomb                   000000014006b888 f   libucrt:c32rtomb.obj
 0001:0006a978       ?__mbrtowc_utf8@__crt_mbstring@@YA_KPEA_WPEBD_KPEAU_Mbstatet@@AEAV__crt_cached_ptd_host@@@Z 000000014006b978 f   libucrt:mbrtowc.obj
 0001:0006a9cc       ?__mbsrtowcs_utf8@__crt_mbstring@@YA_KPEA_WPEAPEBD_KPEAU_Mbstatet@@AEAV__crt_cached_ptd_host@@@Z 000000014006b9cc f   libucrt:mbrtowc.obj
 0001:0006b180       btowc                      000000014006c180 f   libucrt:mbrtowc.obj
 0001:0006b290       mbrlen                     000000014006c290 f   libucrt:mbrtowc.obj
 0001:0006b388       mbrtowc                    000000014006c388 f   libucrt:mbrtowc.obj
 0001:0006b4a8       mbsrtowcs                  000000014006c4a8 f   libucrt:mbrtowc.obj
 0001:0006b574       mbsrtowcs_s                000000014006c574 f   libucrt:mbrtowc.obj
 0001:0006b72c       ?is_in_use@__crt_stdio_stream@@QEBA_NXZ 000000014006c72c f i libucrt:closeall.obj
 0001:0006b73c       _fcloseall                 000000014006c73c f   libucrt:closeall.obj
 0001:0006b81c       ?has_crt_buffer@__crt_stdio_stream@@QEBA_NXZ 000000014006c81c f i libucrt:_freebuf.obj
 0001:0006b82c       __acrt_stdio_free_buffer_nolock 000000014006c82c f   libucrt:_freebuf.obj
 0001:0006bcf0       ?has_big_buffer@__crt_stdio_stream@@QEBA_NXZ 000000014006ccf0 f i libucrt:_flsbuf.obj
 0001:0006bda0       __acrt_stdio_flush_and_write_narrow_nolock 000000014006cda0 f   libucrt:_flsbuf.obj
 0001:0006bea0       __acrt_stdio_flush_and_write_wide_nolock 000000014006cea0 f   libucrt:_flsbuf.obj
 0001:0006bfa0       _isatty                    000000014006cfa0 f   libucrt:isatty.obj
 0001:0006c018       __acrt_OutputDebugStringA  000000014006d018 f   libucrt:outputdebugstringa.obj
 0001:0006c220       qsort                      000000014006d220 f   libucrt:qsort.obj
 0001:0006c848       strncpy_s                  000000014006d848 f   libucrt:strncpy_s.obj
 0001:0006ca40       strpbrk                    000000014006da40 f   libucrt:strpbrk.obj
 0001:0006cefc       _mbsdec                    000000014006defc f   libucrt:mbsdec.obj
 0001:0006cf08       _mbsdec_l                  000000014006df08 f   libucrt:mbsdec.obj
 0001:0006cfc4       ??B?$__crt_scoped_stack_ptr@_W@@QEBA_NXZ 000000014006dfc4 f i libucrt:lcmapstringa.obj
 0001:0006d3d0       __acrt_LCMapStringA        000000014006e3d0 f   libucrt:lcmapstringa.obj
 0001:0006d4a8       _wcsnicoll                 000000014006e4a8 f   libucrt:wcsnicol.obj
 0001:0006d50c       _wcsnicoll_l               000000014006e50c f   libucrt:wcsnicol.obj
 0001:0006d638       _strnicoll                 000000014006e638 f   libucrt:strnicol.obj
 0001:0006d654       _strnicoll_l               000000014006e654 f   libucrt:strnicol.obj
 0001:0006d794       __acrt_SetEnvironmentVariableA 000000014006e794 f   libucrt:setenvironmentvariablea.obj
 0001:0006db78       __acrt_GetLocaleInfoA      000000014006eb78 f   libucrt:getlocaleinfoa.obj
 0001:0006e418       _i64toa                    000000014006f418 f   libucrt:xtoa.obj
 0001:0006e458       _i64toa_s                  000000014006f458 f   libucrt:xtoa.obj
 0001:0006e484       _i64tow                    000000014006f484 f   libucrt:xtoa.obj
 0001:0006e4c4       _i64tow_s                  000000014006f4c4 f   libucrt:xtoa.obj
 0001:0006e4f0       _itoa                      000000014006f4f0 f   libucrt:xtoa.obj
 0001:0006e52c       _itoa_s                    000000014006f52c f   libucrt:xtoa.obj
 0001:0006e554       _itow                      000000014006f554 f   libucrt:xtoa.obj
 0001:0006e590       _itow_s                    000000014006f590 f   libucrt:xtoa.obj
 0001:0006e5b8       _ltoa                      000000014006f5b8 f   libucrt:xtoa.obj
 0001:0006e5f4       _ltoa_s                    000000014006f5f4 f   libucrt:xtoa.obj
 0001:0006e61c       _ltow                      000000014006f61c f   libucrt:xtoa.obj
 0001:0006e658       _ltow_s                    000000014006f658 f   libucrt:xtoa.obj
 0001:0006e680       _ui64toa                   000000014006f680 f   libucrt:xtoa.obj
 0001:0006e6ac       _ui64toa_s                 000000014006f6ac f   libucrt:xtoa.obj
 0001:0006e6c4       _ui64tow                   000000014006f6c4 f   libucrt:xtoa.obj
 0001:0006e6f0       _ui64tow_s                 000000014006f6f0 f   libucrt:xtoa.obj
 0001:0006e708       _ultoa                     000000014006f708 f   libucrt:xtoa.obj
 0001:0006e734       _ultoa_s                   000000014006f734 f   libucrt:xtoa.obj
 0001:0006e74c       _ultow                     000000014006f74c f   libucrt:xtoa.obj
 0001:0006e778       _ultow_s                   000000014006f778 f   libucrt:xtoa.obj
 0001:0006e790       __ascii_wcsicmp            000000014006f790 f   libucrt:wcsicmp.obj
 0001:0006e7e0       _towlower_fast_internal    000000014006f7e0 f i libucrt:wcsicmp.obj
 0001:0006e810       _towlower_internal         000000014006f810 f i libucrt:wcsicmp.obj
 0001:0006e854       _wcsicmp                   000000014006f854 f   libucrt:wcsicmp.obj
 0001:0006e8ac       _wcsicmp_l                 000000014006f8ac f   libucrt:wcsicmp.obj
 0001:0006ea2c       __ascii_wcsnicmp           000000014006fa2c f   libucrt:wcsnicmp.obj
 0001:0006ea8c       _wcsnicmp                  000000014006fa8c f   libucrt:wcsnicmp.obj
 0001:0006eae4       _wcsnicmp_l                000000014006fae4 f   libucrt:wcsnicmp.obj
 0001:0006ec8c       wcscmp                     000000014006fc8c f   libucrt:wcscmp.obj
 0001:0006edd4       __acrt_DownlevelLCIDToLocaleName 000000014006fdd4 f   libucrt:lcidtoname_downlevel.obj
 0001:0006eef4       __acrt_DownlevelLocaleNameToLCID 000000014006fef4 f   libucrt:lcidtoname_downlevel.obj
 0001:0006efc0       _msize                     000000014006ffc0 f   libucrt:msize.obj
 0001:0006efc8       _msize_base                000000014006ffc8 f   libucrt:msize.obj
 0001:0006f010       _realloc_base              0000000140070010 f   libucrt:realloc_base.obj
 0001:0006f23c       _commit                    000000014007023c f   libucrt:commit.obj
 0001:0006ff04       _utf8_no_of_trailbytes     0000000140070f04 f i libucrt:write.obj
 0001:0006ff18       _write                     0000000140070f18 f   libucrt:write.obj
 0001:0006ffd8       _write_internal            0000000140070fd8 f   libucrt:write.obj
 0001:0007013c       _write_nolock              000000014007113c f   libucrt:write.obj
 0001:00070504       __acrt_GetStringTypeW      0000000140071504 f   libucrt:getstringtypew.obj
 0001:0007050c       _controlfp_s               000000014007150c f   libucrt:contrlfp.obj
 0001:00070588       fegetenv                   0000000140071588 f   libucrt:fegetenv.obj
 0001:000705b0       fesetenv                   00000001400715b0 f   libucrt:fesetenv.obj
 0001:00070620       feholdexcept               0000000140071620 f   libucrt:feholdexcept.obj
 0001:00070684       ceil                       0000000140071684 f   libucrt:ceil.obj
 0001:00070780       log10                      0000000140071780 f   libucrt:log10.obj
 0001:00070e98       ??$__acrt_fenv_shift_bits@W4__acrt_fenv_abstract_control@@@@YA?AW4__acrt_fenv_abstract_control@@W40@0I@Z 0000000140071e98 f i libucrt:_fenvutils.obj
 0001:00070ea4       ??$__acrt_fenv_shift_bits@W4__acrt_fenv_abstract_status@@@@YA?AW4__acrt_fenv_abstract_status@@W40@0I@Z 0000000140071ea4 f i libucrt:_fenvutils.obj
 0001:00070eb0       ??$__acrt_fenv_translate_bit@W4__acrt_fenv_abstract_control@@W4__acrt_fenv_machine_sse_control@@@@YA?AW4__acrt_fenv_abstract_control@@W4__acrt_fenv_machine_sse_control@@0W40@1@Z 0000000140071eb0 f i libucrt:_fenvutils.obj
 0001:00070ec0       ??$__acrt_fenv_translate_bit@W4__acrt_fenv_abstract_status@@W4__acrt_fenv_machine_sse_status@@@@YA?AW4__acrt_fenv_abstract_status@@W4__acrt_fenv_machine_sse_status@@0W40@1@Z 0000000140071ec0 f i libucrt:_fenvutils.obj
 0001:00070ecc       ??$__acrt_fenv_translate_bit@W4__acrt_fenv_machine_sse_control@@W4__acrt_fenv_abstract_control@@@@YA?AW4__acrt_fenv_machine_sse_control@@W4__acrt_fenv_abstract_control@@0W40@1@Z 0000000140071ecc f i libucrt:_fenvutils.obj
 0001:00070edc       ??$__acrt_fenv_translate_bit@W4__acrt_fenv_machine_sse_status@@W4__acrt_fenv_abstract_status@@@@YA?AW4__acrt_fenv_machine_sse_status@@W4__acrt_fenv_abstract_status@@0W40@1@Z 0000000140071edc f i libucrt:_fenvutils.obj
 0001:00070ee8       ??$__acrt_fenv_unshift_bits@W4__acrt_fenv_abstract_control@@@@YA?AW4__acrt_fenv_abstract_control@@W40@0I@Z 0000000140071ee8 f i libucrt:_fenvutils.obj
 0001:00070ef4       ??$__acrt_fenv_unshift_bits@W4__acrt_fenv_abstract_status@@@@YA?AW4__acrt_fenv_abstract_status@@W40@0I@Z 0000000140071ef4 f i libucrt:_fenvutils.obj
 0001:0007111c       ??I@YA?AW4__acrt_fenv_abstract_control@@W40@0@Z 000000014007211c f i libucrt:_fenvutils.obj
 0001:00071124       ??I@YA?AW4__acrt_fenv_abstract_status@@W40@0@Z 0000000140072124 f i libucrt:_fenvutils.obj
 0001:0007112c       ??I@YA?AW4__acrt_fenv_machine_sse_control@@W40@0@Z 000000014007212c f i libucrt:_fenvutils.obj
 0001:00071134       ??I@YA?AW4__acrt_fenv_machine_sse_status@@W40@0@Z 0000000140072134 f i libucrt:_fenvutils.obj
 0001:0007113c       ??U@YA?AW4__acrt_fenv_abstract_control@@W40@0@Z 000000014007213c f i libucrt:_fenvutils.obj
 0001:00071144       ??U@YA?AW4__acrt_fenv_abstract_status@@W40@0@Z 0000000140072144 f i libucrt:_fenvutils.obj
 0001:0007114c       ??U@YA?AW4__acrt_fenv_machine_sse_control@@W40@0@Z 000000014007214c f i libucrt:_fenvutils.obj
 0001:00071154       ??_5@YAAEAW4__acrt_fenv_abstract_control@@AEAW40@W40@@Z 0000000140072154 f i libucrt:_fenvutils.obj
 0001:0007115c       ??_5@YAAEAW4__acrt_fenv_abstract_status@@AEAW40@W40@@Z 000000014007215c f i libucrt:_fenvutils.obj
 0001:00071164       ??_5@YAAEAW4__acrt_fenv_machine_sse_control@@AEAW40@W40@@Z 0000000140072164 f i libucrt:_fenvutils.obj
 0001:0007116c       ??_5@YAAEAW4__acrt_fenv_machine_sse_status@@AEAW40@W40@@Z 000000014007216c f i libucrt:_fenvutils.obj
 0001:00071174       ?__acrt_fenv_shift_abstract_sse_control@@YA?AW4__acrt_fenv_abstract_control@@W41@@Z 0000000140072174 f i libucrt:_fenvutils.obj
 0001:00071190       ?__acrt_fenv_shift_abstract_sse_status@@YA?AW4__acrt_fenv_abstract_status@@W41@@Z 0000000140072190 f i libucrt:_fenvutils.obj
 0001:0007119c       ?__acrt_fenv_unshift_abstract_sse_control@@YA?AW4__acrt_fenv_abstract_control@@W41@@Z 000000014007219c f i libucrt:_fenvutils.obj
 0001:000711b8       ?__acrt_fenv_unshift_abstract_sse_status@@YA?AW4__acrt_fenv_abstract_status@@W41@@Z 00000001400721b8 f i libucrt:_fenvutils.obj
 0001:00071520       __acrt_fenv_expand_round_control 0000000140072520 f   libucrt:_fenvutils.obj
 0001:00071540       __acrt_fenv_get_common_round_control 0000000140072540 f   libucrt:_fenvutils.obj
 0001:0007154c       __acrt_fenv_get_control    000000014007254c f   libucrt:_fenvutils.obj
 0001:00071668       __acrt_fenv_get_fp_status_word_from_exception_mask 0000000140072668 f   libucrt:_fenvutils.obj
 0001:00071678       __acrt_fenv_get_status     0000000140072678 f   libucrt:_fenvutils.obj
 0001:000716e4       __acrt_fenv_set_control    00000001400726e4 f   libucrt:_fenvutils.obj
 0001:00071868       __acrt_fenv_set_status     0000000140072868 f   libucrt:_fenvutils.obj
 0001:000718f8       ?reset_and_return@__crt_mbstring@@YA_K_KPEAU_Mbstatet@@@Z 00000001400728f8 f   libucrt:common_utf8.obj
 0001:00071904       ?return_illegal_sequence@__crt_mbstring@@YA_KPEAU_Mbstatet@@AEAV__crt_cached_ptd_host@@@Z 0000000140072904 f   libucrt:common_utf8.obj
 0001:00071920       ?__mbrtoc32_utf8@__crt_mbstring@@YA_KPEA_UPEBD_KPEAU_Mbstatet@@AEAV__crt_cached_ptd_host@@@Z 0000000140072920 f   libucrt:mbrtoc32.obj
 0001:00071b70       mbrtoc32                   0000000140072b70 f   libucrt:mbrtoc32.obj
 0001:00071da4       _fclose_nolock             0000000140072da4 f   libucrt:fclose.obj
 0001:00071e64       fclose                     0000000140072e64 f   libucrt:fclose.obj
 0001:00072524       _lseek                     0000000140073524 f   libucrt:lseek.obj
 0001:000725e4       _lseek_internal            00000001400735e4 f   libucrt:lseek.obj
 0001:000725ec       _lseek_nolock              00000001400735ec f   libucrt:lseek.obj
 0001:000726ac       _lseek_nolock_internal     00000001400736ac f   libucrt:lseek.obj
 0001:000726b4       _lseeki64                  00000001400736b4 f   libucrt:lseek.obj
 0001:00072774       _lseeki64_internal         0000000140073774 f   libucrt:lseek.obj
 0001:0007277c       _lseeki64_nolock           000000014007377c f   libucrt:lseek.obj
 0001:0007283c       _lseeki64_nolock_internal  000000014007383c f   libucrt:lseek.obj
 0001:00072844       __acrt_stdio_allocate_buffer_nolock 0000000140073844 f   libucrt:_getbuf.obj
 0001:00072cb0       _mbstowcs_l                0000000140073cb0 f   libucrt:mbstowcs.obj
 0001:00072d80       _mbstowcs_s_l              0000000140073d80 f   libucrt:mbstowcs.obj
 0001:00072e64       mbstowcs                   0000000140073e64 f   libucrt:mbstowcs.obj
 0001:00072f24       mbstowcs_s                 0000000140073f24 f   libucrt:mbstowcs.obj
 0001:00072ff8       __strncnt                  0000000140073ff8 f   libucrt:strncnt.obj
 0001:00073014       __acrt_CompareStringW      0000000140074014 f   libucrt:comparestringw.obj
 0001:00073100       __ascii_strnicmp           0000000140074100 f   libucrt:strnicmp.obj
 0001:0007315c       _strnicmp                  000000014007415c f   libucrt:strnicmp.obj
 0001:000731c0       _strnicmp_l                00000001400741c0 f   libucrt:strnicmp.obj
 0001:000736fc       __acrt_CompareStringA      00000001400746fc f   libucrt:comparestringa.obj
 0001:000737a8       _towlower_l                00000001400747a8 f   libucrt:towlower.obj
 0001:000738d8       towlower                   00000001400748d8 f   libucrt:towlower.obj
 0001:000739a0       _putwch                    00000001400749a0 f   libucrt:putwch.obj
 0001:000739ec       _putwch_nolock             00000001400749ec f   libucrt:putwch.obj
 0001:00073a38       _putwch_nolock_internal    0000000140074a38 f   libucrt:putwch.obj
 0001:00074308       _read                      0000000140075308 f   libucrt:read.obj
 0001:00074470       _read_nolock               0000000140075470 f   libucrt:read.obj
 0001:00074b28       _clearfp                   0000000140075b28 f   libucrt:ieee.obj
 0001:00074bac       _control87                 0000000140075bac f   libucrt:ieee.obj
 0001:00074bb4       _controlfp                 0000000140075bb4 f   libucrt:ieee.obj
 0001:00074bc0       _fpreset                   0000000140075bc0 f   libucrt:ieee.obj
 0001:00074cb4       _set_controlfp             0000000140075cb4 f   libucrt:ieee.obj
 0001:00074cf8       _statusfp                  0000000140075cf8 f   libucrt:ieee.obj
 0001:00075218       _handle_error              0000000140076218 f   libucrt:libm_error.obj
 0001:00075388       _handle_errorf             0000000140076388 f   libucrt:libm_error.obj
 0001:00075508       _handle_nan                0000000140076508 f   libucrt:libm_error.obj
 0001:00075528       _handle_nanf               0000000140076528 f   libucrt:libm_error.obj
 0001:00075540       __acrt_initialize_fma3     0000000140076540 f   libucrt:fma3_available.obj
 0001:000755cc       _get_FMA3_enable           00000001400765cc f   libucrt:fma3_available.obj
 0001:000755d4       _set_FMA3_enable           00000001400765d4 f   libucrt:fma3_available.obj
 0001:000755f0       _log10_special             00000001400765f0 f   libucrt:log_special.obj
 0001:00075618       _log10f_special            0000000140076618 f   libucrt:log_special.obj
 0001:00075640       _log_special               0000000140076640 f   libucrt:log_special.obj
 0001:00075724       _logf_special              0000000140076724 f   libucrt:log_special.obj
 0001:00075a04       _close                     0000000140076a04 f   libucrt:close.obj
 0001:00075ac4       _close_internal            0000000140076ac4 f   libucrt:close.obj
 0001:00075bb8       _close_nolock              0000000140076bb8 f   libucrt:close.obj
 0001:00075c78       _close_nolock_internal     0000000140076c78 f   libucrt:close.obj
 0001:00075d78       ??$?RU__crt_stdio_stream_data@@@__crt_internal_free_policy@@QEBAXQEBU__crt_stdio_stream_data@@@Z 0000000140076d78 f i libucrt:stream.obj
 0001:00075d84       ??0?$__crt_unique_heap_ptr@U__crt_stdio_stream_data@@U__crt_internal_free_policy@@@@QEAA@QEAU__crt_stdio_stream_data@@@Z 0000000140076d84 f i libucrt:stream.obj
 0001:00075d8c       ??0__crt_stdio_stream@@QEAA@XZ 0000000140076d8c f i libucrt:stream.obj
 0001:00075d98       ??1?$__crt_unique_heap_ptr@U__crt_stdio_stream_data@@U__crt_internal_free_policy@@@@QEAA@XZ 0000000140076d98 f i libucrt:stream.obj
 0001:00075dbc       ?__acrt_stdio_allocate_stream@@YA?AV__crt_stdio_stream@@XZ 0000000140076dbc f   libucrt:stream.obj
 0001:00075e28       ?__acrt_stdio_free_stream@@YAXV__crt_stdio_stream@@@Z 0000000140076e28 f   libucrt:stream.obj
 0001:00075e4c       ?deallocate@__crt_stdio_stream@@QEAAXXZ 0000000140076e4c f i libucrt:stream.obj
 0001:00075e58       ?detach@?$__crt_unique_heap_ptr@U__crt_stdio_stream_data@@U__crt_internal_free_policy@@@@QEAAPEAU__crt_stdio_stream_data@@XZ 0000000140076e58 f i libucrt:stream.obj
 0001:00075f8c       ?lock@__crt_stdio_stream@@QEBAXXZ 0000000140076f8c f i libucrt:stream.obj
 0001:00075f98       ?release@?$__crt_unique_heap_ptr@U__crt_stdio_stream_data@@U__crt_internal_free_policy@@@@QEAAXXZ 0000000140076f98 f i libucrt:stream.obj
 0001:00075fbc       ?try_allocate@__crt_stdio_stream@@QEAA_NXZ 0000000140076fbc f i libucrt:stream.obj
 0001:00075fe4       ?unlock@__crt_stdio_stream@@QEBAXXZ 0000000140076fe4 f i libucrt:stream.obj
 0001:00075ff0       __acrt_LCMapStringW        0000000140076ff0 f   libucrt:lcmapstringw.obj
 0001:00076204       __dcrt_lowio_ensure_console_output_initialized 0000000140077204 f   libucrt:initcon.obj
 0001:0007626c       __dcrt_terminate_console_output 000000014007726c f   libucrt:initcon.obj
 0001:00076290       __dcrt_write_console       0000000140077290 f   libucrt:initcon.obj
 0001:00076390       _get_fpsr                  0000000140077390 f   libucrt:fpsr.obj
 0001:000763a0       _set_fpsr                  00000001400773a0 f   libucrt:fpsr.obj
 0001:000763aa       _fclrf                     00000001400773aa f   libucrt:fpsr.obj
 0001:000763be       _frnd                      00000001400773be f   libucrt:fpsr.obj
 0001:000763f4       ?should_round_up@__crt_strtox@@YA_N_N000@Z 00000001400773f4 f i libucrt:fpexcept.obj
 0001:0007649c       _errcode                   000000014007749c f   libucrt:fpexcept.obj
 0001:000764f0       _except1                   00000001400774f0 f   libucrt:fpexcept.obj
 0001:00076620       _except2                   0000000140077620 f   libucrt:fpexcept.obj
 0001:000767a8       _handle_exc                00000001400777a8 f   libucrt:fpexcept.obj
 0001:00076b5c       _handle_qnan2              0000000140077b5c f   libucrt:fpexcept.obj
 0001:00076b64       _raise_exc                 0000000140077b64 f   libucrt:fpexcept.obj
 0001:00076b94       _raise_exc_ex              0000000140077b94 f   libucrt:fpexcept.obj
 0001:00076f60       _raise_excf                0000000140077f60 f   libucrt:fpexcept.obj
 0001:00076f94       _set_errno_from_matherr    0000000140077f94 f   libucrt:fpexcept.obj
 0001:00076fd0       _umatherr                  0000000140077fd0 f   libucrt:fpexcept.obj
 0001:000770d0       _clrfp                     00000001400780d0 f   libucrt:fpctrl.obj
 0001:000770f4       _ctrlfp                    00000001400780f4 f   libucrt:fpctrl.obj
 0001:00077190       _set_statfp                0000000140078190 f   libucrt:fpctrl.obj
 0001:000771b8       _statfp                    00000001400781b8 f   libucrt:fpctrl.obj
 0001:000771d0       _add_exp                   00000001400781d0 f   libucrt:util.obj
 0001:00077234       _decomp                    0000000140078234 f   libucrt:util.obj
 0001:000773b0       _get_exp                   00000001400783b0 f   libucrt:util.obj
 0001:000773d4       _set_bexp                  00000001400783d4 f   libucrt:util.obj
 0001:00077410       _set_exp                   0000000140078410 f   libucrt:util.obj
 0001:00077458       _sptype                    0000000140078458 f   libucrt:util.obj
 0001:000774f0       _FindPESection             00000001400784f0 f   LIBCMT:pesect.obj
 0001:00077550       _IsNonwritableInCurrentImage 0000000140078550 f   LIBCMT:pesect.obj
 0001:000775b0       _ValidateImageBase         00000001400785b0 f   LIBCMT:pesect.obj
 0001:000775e8       ??1type_info@@UEAA@XZ      00000001400785e8 f   LIBCMT:std_type_info_static.obj
 0001:000775f8       ??_Etype_info@@UEAAPEAXI@Z 00000001400785f8 f i LIBCMT:std_type_info_static.obj
 0001:000775f8       ??_Gtype_info@@UEAAPEAXI@Z 00000001400785f8 f i LIBCMT:std_type_info_static.obj
 0001:00077630       ??3@YAXPEAX_K@Z            0000000140078630 f   LIBCMT:delete_scalar_size.obj
 0001:00077638       __GSHandlerCheck_SEH       0000000140078638 f   LIBCMT:gshandlerseh.obj
 0001:000776f0       __chkstk                   00000001400786f0 f   LIBCMT:chkstk.obj
 0001:000776f0       _alloca_probe              00000001400786f0 f   LIBCMT:chkstk.obj
 0001:00077758       __GSHandlerCheck_EH        0000000140078758 f   LIBCMT:gshandlereh.obj
 0001:000777f8       ??3@YAXPEAX@Z              00000001400787f8 f   LIBCMT:delete_scalar.obj
 0001:000777fd       RtlUnwindEx                00000001400787fd f   kernel32:KERNEL32.dll
 0001:00077803       InterlockedPushEntrySList  0000000140078803 f   kernel32:KERNEL32.dll
 0001:00077809       InterlockedFlushSList      0000000140078809 f   kernel32:KERNEL32.dll
 0001:0007780f       SetLastError               000000014007880f f   kernel32:KERNEL32.dll
 0001:00077815       EnterCriticalSection       0000000140078815 f   kernel32:KERNEL32.dll
 0001:0007781b       LeaveCriticalSection       000000014007881b f   kernel32:KERNEL32.dll
 0001:00077821       DeleteCriticalSection      0000000140078821 f   kernel32:KERNEL32.dll
 0001:00077827       InitializeCriticalSectionAndSpinCount 0000000140078827 f   kernel32:KERNEL32.dll
 0001:0007782d       TlsAlloc                   000000014007882d f   kernel32:KERNEL32.dll
 0001:00077833       TlsGetValue                0000000140078833 f   kernel32:KERNEL32.dll
 0001:00077839       TlsSetValue                0000000140078839 f   kernel32:KERNEL32.dll
 0001:0007783f       TlsFree                    000000014007883f f   kernel32:KERNEL32.dll
 0001:00077845       FreeLibrary                0000000140078845 f   kernel32:KERNEL32.dll
 0001:0007784b       LoadLibraryExW             000000014007884b f   kernel32:KERNEL32.dll
 0001:00077851       EncodePointer              0000000140078851 f   kernel32:KERNEL32.dll
 0001:00077857       RaiseException             0000000140078857 f   kernel32:KERNEL32.dll
 0001:0007785d       RtlPcToFileHeader          000000014007885d f   kernel32:KERNEL32.dll
 0001:00077863       GetStdHandle               0000000140078863 f   kernel32:KERNEL32.dll
 0001:00077869       GetModuleFileNameW         0000000140078869 f   kernel32:KERNEL32.dll
 0001:0007786f       ExitProcess                000000014007886f f   kernel32:KERNEL32.dll
 0001:00077875       GetModuleHandleExW         0000000140078875 f   kernel32:KERNEL32.dll
 0001:0007787b       HeapFree                   000000014007887b f   kernel32:KERNEL32.dll
 0001:00077881       HeapAlloc                  0000000140078881 f   kernel32:KERNEL32.dll
 0001:00077887       GetCurrentThread           0000000140078887 f   kernel32:KERNEL32.dll
 0001:0007788d       GetFileType                000000014007888d f   kernel32:KERNEL32.dll
 0001:00077893       OutputDebugStringW         0000000140078893 f   kernel32:KERNEL32.dll
 0001:00077899       FindClose                  0000000140078899 f   kernel32:KERNEL32.dll
 0001:0007789f       FindFirstFileExW           000000014007889f f   kernel32:KERNEL32.dll
 0001:000778a5       FindNextFileW              00000001400788a5 f   kernel32:KERNEL32.dll
 0001:000778ab       IsValidCodePage            00000001400788ab f   kernel32:KERNEL32.dll
 0001:000778b1       GetACP                     00000001400788b1 f   kernel32:KERNEL32.dll
 0001:000778b7       GetOEMCP                   00000001400788b7 f   kernel32:KERNEL32.dll
 0001:000778bd       GetCPInfo                  00000001400788bd f   kernel32:KERNEL32.dll
 0001:000778c3       GetCommandLineA            00000001400788c3 f   kernel32:KERNEL32.dll
 0001:000778c9       GetCommandLineW            00000001400788c9 f   kernel32:KERNEL32.dll
 0001:000778cf       MultiByteToWideChar        00000001400788cf f   kernel32:KERNEL32.dll
 0001:000778d5       WideCharToMultiByte        00000001400788d5 f   kernel32:KERNEL32.dll
 0001:000778db       GetEnvironmentStringsW     00000001400788db f   kernel32:KERNEL32.dll
 0001:000778e1       FreeEnvironmentStringsW    00000001400788e1 f   kernel32:KERNEL32.dll
 0001:000778e7       SetEnvironmentVariableW    00000001400788e7 f   kernel32:KERNEL32.dll
 0001:000778ed       SetStdHandle               00000001400788ed f   kernel32:KERNEL32.dll
 0001:000778f3       GetStringTypeW             00000001400788f3 f   kernel32:KERNEL32.dll
 0001:000778f9       GetLocaleInfoW             00000001400788f9 f   kernel32:KERNEL32.dll
 0001:000778ff       IsValidLocale              00000001400788ff f   kernel32:KERNEL32.dll
 0001:00077905       GetUserDefaultLCID         0000000140078905 f   kernel32:KERNEL32.dll
 0001:0007790b       EnumSystemLocalesW         000000014007890b f   kernel32:KERNEL32.dll
 0001:00077911       GetTempPathW               0000000140078911 f   kernel32:KERNEL32.dll
 0001:00077917       FlsAlloc                   0000000140078917 f   kernel32:KERNEL32.dll
 0001:0007791d       FlsGetValue                000000014007891d f   kernel32:KERNEL32.dll
 0001:00077923       FlsSetValue                0000000140078923 f   kernel32:KERNEL32.dll
 0001:00077929       FlsFree                    0000000140078929 f   kernel32:KERNEL32.dll
 0001:0007792f       GetDateFormatW             000000014007892f f   kernel32:KERNEL32.dll
 0001:00077935       GetTimeFormatW             0000000140078935 f   kernel32:KERNEL32.dll
 0001:0007793b       CompareStringW             000000014007893b f   kernel32:KERNEL32.dll
 0001:00077941       LCMapStringW               0000000140078941 f   kernel32:KERNEL32.dll
 0001:00077947       GetProcessHeap             0000000140078947 f   kernel32:KERNEL32.dll
 0001:0007794d       SetConsoleCtrlHandler      000000014007894d f   kernel32:KERNEL32.dll
 0001:00077953       SetFilePointerEx           0000000140078953 f   kernel32:KERNEL32.dll
 0001:00077959       HeapSize                   0000000140078959 f   kernel32:KERNEL32.dll
 0001:0007795f       HeapReAlloc                000000014007895f f   kernel32:KERNEL32.dll
 0001:00077965       FlushFileBuffers           0000000140078965 f   kernel32:KERNEL32.dll
 0001:0007796b       GetConsoleOutputCP         000000014007896b f   kernel32:KERNEL32.dll
 0001:00077971       GetConsoleMode             0000000140078971 f   kernel32:KERNEL32.dll
 0001:00077977       ReadConsoleW               0000000140078977 f   kernel32:KERNEL32.dll
 0001:0007797d       CreateFileW                000000014007897d f   kernel32:KERNEL32.dll
 0001:00077983       WriteConsoleW              0000000140078983 f   kernel32:KERNEL32.dll
 0001:00077990       __C_specific_handler_noexcept 0000000140078990 f   libvcruntime:chandler_noexcept.obj
 0001:000779f0       strrchr                    00000001400789f0 f   libvcruntime:strrchr.obj
 0001:00077b78       _local_unwind              0000000140078b78 f   libvcruntime:jmpuwind.obj
 0001:00077bac       strchr                     0000000140078bac f   libvcruntime:strchr.obj
 0001:00077c48       wcschr                     0000000140078c48 f   libvcruntime:wcschr.obj
 0001:00077cde       RtlUnwind                  0000000140078cde f   kernel32:KERNEL32.dll
 0001:0007b190       _guard_dispatch_icall_nop  000000014007c190 f   LIBCMT:guard_dispatch.obj
 0001:0007b1b0       _guard_xfg_dispatch_icall_nop 000000014007c1b0 f   LIBCMT:guard_xfg_dispatch.obj
 0001:0007c1f0       memset_repstos             000000014007d1f0 f   libvcruntime:memset.obj
 0001:0007c210       memset                     000000014007d210 f   libvcruntime:memset.obj
 0001:0007c6b0       memcpy_repmovs             000000014007d6b0 f   libvcruntime:memcpy.obj
 0001:0007c6d0       memcpy                     000000014007d6d0 f   libvcruntime:memcpy.obj
 0001:0007c6d0       memcpy_$fo_default$        000000014007d6d0     libvcruntime:memcpy.obj
 0001:0007c6d0       memmove                    000000014007d6d0 f   libvcruntime:memcpy.obj
 0001:0007cf00       memcmp                     000000014007df00 f   libvcruntime:memcmp.obj
 0002:00000000       __xc_a                     0000000140081000     LIBCMT:initializers.obj
 0002:00000220       __xc_z                     0000000140081220     LIBCMT:initializers.obj
 0002:00000330       __xi_a                     0000000140081330     LIBCMT:initializers.obj
 0002:00000660       __acrt_stdio_initializer   0000000140081660     libucrt:stdio_initializer.obj
 0002:00000670       __acrt_multibyte_initializer 0000000140081670     libucrt:multibyte_initializer.obj
 0002:00000680       __acrt_fmode_initializer   0000000140081680     libucrt:fmode_initializer.obj
 0002:00000690       __acrt_tran_fma3_initializer 0000000140081690     libucrt:fma3_initializer.obj
 0002:000007a0       __xi_z                     00000001400817a0     LIBCMT:initializers.obj
 0002:000008b0       __xp_a                     00000001400818b0     LIBCMT:initializers.obj
 0002:000009c0       __acrt_locale_terminator   00000001400819c0     libucrt:locale_initializer.obj
 0002:000009d0       __dcrt_console_output_terminator 00000001400819d0     libucrt:console_output_initializer.obj
 0002:00000ae0       __acrt_stdio_terminator    0000000140081ae0     libucrt:stdio_initializer.obj
 0002:00000bf0       __xp_z                     0000000140081bf0     LIBCMT:initializers.obj
 0002:00000d00       __xt_a                     0000000140081d00     LIBCMT:initializers.obj
 0002:00000e10       __xt_z                     0000000140081e10     LIBCMT:initializers.obj
 0002:00001030       IID_IXAudio2Extension      0000000140082030     win32_handmade.obj
 0002:00001048       IID_IXAudio2               0000000140082048     win32_handmade.obj
 0002:00001060       ??_C@_0O@KFOLCGOE@xaudio2_9?4dll@ 0000000140082060     win32_handmade.obj
 0002:00001070       ??_C@_0BN@LCGMINPD@XAudio2CreateWithVersionInfo@ 0000000140082070     win32_handmade.obj
 0002:00001098       ??_C@_0O@MFBKMJDH@XAudio2Create@ 0000000140082098     win32_handmade.obj
 0002:000010a8       __real@40000000            00000001400820a8     win32_handmade.obj
 0002:000010b0       __real@408f400000000000    00000001400820b0     win32_handmade.obj
 0002:000010c0       __real@412e848000000000    00000001400820c0     win32_handmade.obj
 0002:000010cc       __real@437f0000            00000001400820cc     win32_handmade.obj
 0002:000010d0       __real@46fffe00            00000001400820d0     win32_handmade.obj
 0002:000010d4       __real@47000000            00000001400820d4     win32_handmade.obj
 0002:000010f0       __xmm@ffffffffffffffffffffffffffffffff 00000001400820f0     LIBCMT:utility.obj
 0002:00001108       _pDestructExceptionObject  0000000140082108     libvcruntime:ehhelpers.obj
 0002:000019a0       ??_C@_08EHJDFFNH@__based?$CI@ 00000001400829a0     libvcruntime:undname.obj
 0002:000019b0       ??_C@_07KOLFKCDI@__cdecl@  00000001400829b0     libvcruntime:undname.obj
 0002:000019c0       ??_C@_08GHMPAG@__pascal@   00000001400829c0     libvcruntime:undname.obj
 0002:000019d0       ??_C@_09IFJBGAPI@__stdcall@ 00000001400829d0     libvcruntime:undname.obj
 0002:000019e0       ??_C@_0L@NPHFGOKO@__thiscall@ 00000001400829e0     libvcruntime:undname.obj
 0002:000019f0       ??_C@_0L@JMKHOMEK@__fastcall@ 00000001400829f0     libvcruntime:undname.obj
 0002:00001a00       ??_C@_0N@BCKKPABJ@__vectorcall@ 0000000140082a00     libvcruntime:undname.obj
 0002:00001a10       ??_C@_09HIJEGCPM@__clrcall@ 0000000140082a10     libvcruntime:undname.obj
 0002:00001a1c       ??_C@_06GHPCKEAG@__eabi@   0000000140082a1c     libvcruntime:undname.obj
 0002:00001a28       ??_C@_09IOPIDJLG@__swift_1@ 0000000140082a28     libvcruntime:undname.obj
 0002:00001a38       ??_C@_09KFNFGKHF@__swift_2@ 0000000140082a38     libvcruntime:undname.obj
 0002:00001a48       ??_C@_09LMMOFLDE@__swift_3@ 0000000140082a48     libvcruntime:undname.obj
 0002:00001a58       ??_C@_07JOMMBBKO@__ptr64@  0000000140082a58     libvcruntime:undname.obj
 0002:00001a68       ??_C@_0L@PILCLIHE@__restrict@ 0000000140082a68     libvcruntime:undname.obj
 0002:00001a78       ??_C@_0M@GFIIJFMG@__unaligned@ 0000000140082a78     libvcruntime:undname.obj
 0002:00001a88       ??_C@_09DHDLOLLB@restrict?$CI@ 0000000140082a88     libvcruntime:undname.obj
 0002:00001a94       ??_C@_00CNPNBAHC@@         0000000140082a94     libvcruntime:undname.obj
 0002:00001a98       ??_C@_04NIHEBCM@?5new@     0000000140082a98     libvcruntime:undname.obj
 0002:00001aa0       ??_C@_07FPCDHGMM@?5delete@ 0000000140082aa0     libvcruntime:undname.obj
 0002:00001aac       ??_C@_01NEMOKFLO@?$DN@     0000000140082aac     libvcruntime:undname.obj
 0002:00001ab0       ??_C@_02GPIOPFAK@?$DO?$DO@ 0000000140082ab0     libvcruntime:undname.obj
 0002:00001ab4       ??_C@_02FODMEDOG@?$DM?$DM@ 0000000140082ab4     libvcruntime:undname.obj
 0002:00001ab8       ??_C@_01DCLJPIOD@?$CB@     0000000140082ab8     libvcruntime:undname.obj
 0002:00001abc       ??_C@_02EGOFBIJA@?$DN?$DN@ 0000000140082abc     libvcruntime:undname.obj
 0002:00001ac0       ??_C@_02FDNJECIE@?$CB?$DN@ 0000000140082ac0     libvcruntime:undname.obj
 0002:00001ac4       ??_C@_02GPECMEKF@?$FL?$FN@ 0000000140082ac4     libvcruntime:undname.obj
 0002:00001ac8       ??_C@_08LHJFAFGD@operator@ 0000000140082ac8     libvcruntime:undname.obj
 0002:00001ad4       ??_C@_02HBOOOICD@?9?$DO@   0000000140082ad4     libvcruntime:undname.obj
 0002:00001ad8       ??_C@_01NBENCBCI@?$CK@     0000000140082ad8     libvcruntime:undname.obj
 0002:00001adc       ??_C@_02ECNGHCIF@?$CL?$CL@ 0000000140082adc     libvcruntime:undname.obj
 0002:00001ae0       ??_C@_02BAABKJLB@?9?9@     0000000140082ae0     libvcruntime:undname.obj
 0002:00001ae4       ??_C@_01JOAMLHOP@?9@       0000000140082ae4     libvcruntime:undname.obj
 0002:00001ae8       ??_C@_01MIFGBAGJ@?$CL@     0000000140082ae8     libvcruntime:undname.obj
 0002:00001aec       ??_C@_01HNPIGOCE@?$CG@     0000000140082aec     libvcruntime:undname.obj
 0002:00001af0       ??_C@_03MNHNFDLC@?9?$DO?$CK@ 0000000140082af0     libvcruntime:undname.obj
 0002:00001af4       ??_C@_01KMDKNFGN@?1@       0000000140082af4     libvcruntime:undname.obj
 0002:00001af8       ??_C@_01FGNFDNOH@?$CF@     0000000140082af8     libvcruntime:undname.obj
 0002:00001afc       ??_C@_01MNNFJEPP@?$DM@     0000000140082afc     libvcruntime:undname.obj
 0002:00001b00       ??_C@_02EHCHHCKH@?$DM?$DN@ 0000000140082b00     libvcruntime:undname.obj
 0002:00001b04       ??_C@_01PPODPGHN@?$DO@     0000000140082b04     libvcruntime:undname.obj
 0002:00001b08       ??_C@_02EEKDKGMJ@?$DO?$DN@ 0000000140082b08     libvcruntime:undname.obj
 0002:00001b0c       ??_C@_01IHBHIGKO@?0@       0000000140082b0c     libvcruntime:undname.obj
 0002:00001b10       ??_C@_02HCKGKOFO@?$CI?$CJ@ 0000000140082b10     libvcruntime:undname.obj
 0002:00001b14       ??_C@_01PJKLJHI@?$HO@      0000000140082b14     libvcruntime:undname.obj
 0002:00001b18       ??_C@_01JKBOJNNK@?$FO@     0000000140082b18     libvcruntime:undname.obj
 0002:00001b1c       ??_C@_01DNKMNLPK@?$HM@     0000000140082b1c     libvcruntime:undname.obj
 0002:00001b20       ??_C@_02PPKAJPJL@?$CG?$CG@ 0000000140082b20     libvcruntime:undname.obj
 0002:00001b24       ??_C@_02NONPIBCD@?$HM?$HM@ 0000000140082b24     libvcruntime:undname.obj
 0002:00001b28       ??_C@_02FPIMKNGF@?$CK?$DN@ 0000000140082b28     libvcruntime:undname.obj
 0002:00001b2c       ??_C@_02FOEOMHFC@?$CL?$DN@ 0000000140082b2c     libvcruntime:undname.obj
 0002:00001b30       ??_C@_02FKMDLLOA@?9?$DN@   0000000140082b30     libvcruntime:undname.obj
 0002:00001b34       ??_C@_02FJEHGPIO@?1?$DN@   0000000140082b34     libvcruntime:undname.obj
 0002:00001b38       ??_C@_02FENAOKFI@?$CF?$DN@ 0000000140082b38     libvcruntime:undname.obj
 0002:00001b3c       ??_C@_03IKFCCPFF@?$DO?$DO?$DN@ 0000000140082b3c     libvcruntime:undname.obj
 0002:00001b40       ??_C@_03CDNPDDLA@?$DM?$DM?$DN@ 0000000140082b40     libvcruntime:undname.obj
 0002:00001b44       ??_C@_02FGJGFEAB@?$CG?$DN@ 0000000140082b44     libvcruntime:undname.obj
 0002:00001b48       ??_C@_02DHLNPPGH@?$HM?$DN@ 0000000140082b48     libvcruntime:undname.obj
 0002:00001b4c       ??_C@_02MHEGNOJ@?$FO?$DN@  0000000140082b4c     libvcruntime:undname.obj
 0002:00001b50       ??_C@_09IFPLHPGF@?$GAvftable?8@ 0000000140082b50     libvcruntime:undname.obj
 0002:00001b60       ??_C@_09BLBHBJP@?$GAvbtable?8@ 0000000140082b60     libvcruntime:undname.obj
 0002:00001b70       ??_C@_07FEEIOKP@?$GAvcall?8@ 0000000140082b70     libvcruntime:undname.obj
 0002:00001b80       ??_C@_08LLFFHHDJ@?$GAtypeof?8@ 0000000140082b80     libvcruntime:undname.obj
 0002:00001b90       ??_C@_0BF@KDPPACIK@?$GAlocal?5static?5guard?8@ 0000000140082b90     libvcruntime:undname.obj
 0002:00001bb0       ??_C@_08OBABFOLI@?$GAstring?8@ 0000000140082bb0     libvcruntime:undname.obj
 0002:00001bc0       ??_C@_0BD@JDLKDPAB@?$GAvbase?5destructor?8@ 0000000140082bc0     libvcruntime:undname.obj
 0002:00001bd8       ??_C@_0BN@DEGPLNFK@?$GAvector?5deleting?5destructor?8@ 0000000140082bd8     libvcruntime:undname.obj
 0002:00001c00       ??_C@_0BO@OBMKPJIG@?$GAdefault?5constructor?5closure?8@ 0000000140082c00     libvcruntime:undname.obj
 0002:00001c28       ??_C@_0BN@IMDCHIKM@?$GAscalar?5deleting?5destructor?8@ 0000000140082c28     libvcruntime:undname.obj
 0002:00001c50       ??_C@_0BO@PFGOCPJJ@?$GAvector?5constructor?5iterator?8@ 0000000140082c50     libvcruntime:undname.obj
 0002:00001c78       ??_C@_0BN@LFPFMEDL@?$GAvector?5destructor?5iterator?8@ 0000000140082c78     libvcruntime:undname.obj
 0002:00001ca0       ??_C@_0CE@IKBNEHA@?$GAvector?5vbase?5constructor?5itera@ 0000000140082ca0     libvcruntime:undname.obj
 0002:00001cd0       ??_C@_0BL@NILFHHPC@?$GAvirtual?5displacement?5map?8@ 0000000140082cd0     libvcruntime:undname.obj
 0002:00001cf0       ??_C@_0CB@JONCMFFK@?$GAeh?5vector?5constructor?5iterator@ 0000000140082cf0     libvcruntime:undname.obj
 0002:00001d18       ??_C@_0CA@GCEOPDGL@?$GAeh?5vector?5destructor?5iterator?8@ 0000000140082d18     libvcruntime:undname.obj
 0002:00001d40       ??_C@_0CH@OOJPLCPH@?$GAeh?5vector?5vbase?5constructor?5it@ 0000000140082d40     libvcruntime:undname.obj
 0002:00001d70       ??_C@_0BL@LLKPOHJI@?$GAcopy?5constructor?5closure?8@ 0000000140082d70     libvcruntime:undname.obj
 0002:00001d90       ??_C@_0BA@KBCDOMBN@?$GAudt?5returning?8@ 0000000140082d90     libvcruntime:undname.obj
 0002:00001da4       ??_C@_03KLGMFNMG@?$GAEH@   0000000140082da4     libvcruntime:undname.obj
 0002:00001da8       ??_C@_05KHLCHHI@?$GARTTI@  0000000140082da8     libvcruntime:undname.obj
 0002:00001db0       ??_C@_0BA@KKLDJDLB@?$GAlocal?5vftable?8@ 0000000140082db0     libvcruntime:undname.obj
 0002:00001dc8       ??_C@_0CE@IIHCMGGL@?$GAlocal?5vftable?5constructor?5clos@ 0000000140082dc8     libvcruntime:undname.obj
 0002:00001df4       ??_C@_06FHBGPFGH@?5new?$FL?$FN@ 0000000140082df4     libvcruntime:undname.obj
 0002:00001e00       ??_C@_09LBNFPBCA@?5delete?$FL?$FN@ 0000000140082e00     libvcruntime:undname.obj
 0002:00001e10       ??_C@_0P@HJKNJFNN@?$GAomni?5callsig?8@ 0000000140082e10     libvcruntime:undname.obj
 0002:00001e28       ??_C@_0BL@CNOONJFP@?$GAplacement?5delete?5closure?8@ 0000000140082e28     libvcruntime:undname.obj
 0002:00001e48       ??_C@_0BN@CKNJLHMB@?$GAplacement?5delete?$FL?$FN?5closure?8@ 0000000140082e48     libvcruntime:undname.obj
 0002:00001e70       ??_C@_0CG@CFDHKGGD@?$GAmanaged?5vector?5constructor?5ite@ 0000000140082e70     libvcruntime:undname.obj
 0002:00001ea0       ??_C@_0CF@IMGKMJNO@?$GAmanaged?5vector?5destructor?5iter@ 0000000140082ea0     libvcruntime:undname.obj
 0002:00001ed0       ??_C@_0CG@HLDDJMAG@?$GAeh?5vector?5copy?5constructor?5ite@ 0000000140082ed0     libvcruntime:undname.obj
 0002:00001f00       ??_C@_0CM@FCBBDIGB@?$GAeh?5vector?5vbase?5copy?5construct@ 0000000140082f00     libvcruntime:undname.obj
 0002:00001f38       ??_C@_0BL@CLIPGLGB@?$GAdynamic?5initializer?5for?5?8@ 0000000140082f38     libvcruntime:undname.obj
 0002:00001f58       ??_C@_0CB@PDBIFEP@?$GAdynamic?5atexit?5destructor?5for?5@ 0000000140082f58     libvcruntime:undname.obj
 0002:00001f80       ??_C@_0CD@CGAJBKEJ@?$GAvector?5copy?5constructor?5iterat@ 0000000140082f80     libvcruntime:undname.obj
 0002:00001fb0       ??_C@_0CJ@GJELGAMM@?$GAvector?5vbase?5copy?5constructor?5@ 0000000140082fb0     libvcruntime:undname.obj
 0002:00001fe8       ??_C@_0CL@FGIJHLCE@?$GAmanaged?5vector?5copy?5constructo@ 0000000140082fe8     libvcruntime:undname.obj
 0002:00002020       ??_C@_0BM@PMGGMLDN@?$GAlocal?5static?5thread?5guard?8@ 0000000140083020     libvcruntime:undname.obj
 0002:00002048       ??_C@_0N@BDNMDMOL@operator?5?$CC?$CC?5@ 0000000140083048     libvcruntime:undname.obj
 0002:00002058       ??_C@_0BC@GGEBGALA@operator?5co_await@ 0000000140083058     libvcruntime:undname.obj
 0002:00002070       ??_C@_0M@GAAIMMOH@operator?$DM?$DN?$DO@ 0000000140083070     libvcruntime:undname.obj
 0002:00002080       ??_C@_0BC@DAFEJGAK@?5Type?5Descriptor?8@ 0000000140083080     libvcruntime:undname.obj
 0002:00002098       ??_C@_0BM@LDKODKLH@?5Base?5Class?5Descriptor?5at?5?$CI@ 0000000140083098     libvcruntime:undname.obj
 0002:000020c0       ??_C@_0BD@LGICGFMM@?5Base?5Class?5Array?8@ 00000001400830c0     libvcruntime:undname.obj
 0002:000020d8       ??_C@_0BN@MECKDCOJ@?5Class?5Hierarchy?5Descriptor?8@ 00000001400830d8     libvcruntime:undname.obj
 0002:00002100       ??_C@_0BK@CFCOFLF@?5Complete?5Object?5Locator?8@ 0000000140083100     libvcruntime:undname.obj
 0002:00002120       ??_C@_0BG@JNJLAMPM@?$GAanonymous?5namespace?8@ 0000000140083120     libvcruntime:undname.obj
 0002:0000213c       ??_C@_04HEJADOOB@CV?3?5@   000000014008313c     libvcruntime:undname.obj
 0002:00002144       ??_C@_02MOLJINC@?3?3@      0000000140083144     libvcruntime:undname.obj
 0002:00002148       ??_C@_0BE@JAEOCHPE@template?9parameter?9@ 0000000140083148     libvcruntime:undname.obj
 0002:00002160       ??_C@_0BF@LNLGBBNL@?$GAtemplate?9parameter?9@ 0000000140083160     libvcruntime:undname.obj
 0002:00002180       ??_C@_0O@KHGCOMHP@generic?9type?9@ 0000000140083180     libvcruntime:undname.obj
 0002:00002190       ??_C@_0P@ODDENDLM@?$GAgeneric?9type?9@ 0000000140083190     libvcruntime:undname.obj
 0002:000021a4       ??_C@_02OHHJMEON@?8?8@     00000001400831a4     libvcruntime:undname.obj
 0002:000021a8       ??_C@_0BN@IBLMMFAP@?$GAnon?9type?9template?9parameter@ 00000001400831a8     libvcruntime:undname.obj
 0002:000021cc       ??_C@_03DLDNIBIK@?$CFlf@   00000001400831cc     libvcruntime:undname.obj
 0002:000021d0       ??_C@_04OFALKAJ@?$DP?$DP_C@ 00000001400831d0     libvcruntime:undname.obj
 0002:000021d8       ??_C@_03KHICJKCI@?4?4?4@   00000001400831d8     libvcruntime:undname.obj
 0002:000021dc       ??_C@_04HIBGFPH@NULL@      00000001400831dc     libvcruntime:undname.obj
 0002:000021e4       ??_C@_02DPKJAMEF@?$CFd@    00000001400831e4     libvcruntime:undname.obj
 0002:000021e8       ??_C@_0BK@IHCCFNEL@?$GAtemplate?9type?9parameter?9@ 00000001400831e8     libvcruntime:undname.obj
 0002:00002208       ??_C@_0BK@OFCNNNKO@?$GAgeneric?9class?9parameter?9@ 0000000140083208     libvcruntime:undname.obj
 0002:00002228       ??_C@_0BL@NGJBLFIL@?$GAgeneric?9method?9parameter?9@ 0000000140083228     libvcruntime:undname.obj
 0002:00002248       ??_C@_07OHNGEDJK@nullptr@  0000000140083248     libvcruntime:undname.obj
 0002:00002254       ??_C@_06COJIGPIB@lambda@   0000000140083254     libvcruntime:undname.obj
 0002:0000225c       ??_C@_04GKJNKENE@void@     000000014008325c     libvcruntime:undname.obj
 0002:00002268       ??_C@_0BE@EODMJLIF@?$GAtemplate?9parameter@ 0000000140083268     libvcruntime:undname.obj
 0002:00002280       ??_C@_03OPGICMGF@?$HN?8?5@ 0000000140083280     libvcruntime:undname.obj
 0002:00002284       ??_C@_02IGFCGPIL@?$HN?8@   0000000140083284     libvcruntime:undname.obj
 0002:00002288       ??_C@_0N@CBHHHENL@?$GAvtordispex?$HL@ 0000000140083288     libvcruntime:undname.obj
 0002:00002298       ??_C@_0L@GHPFDFH@?$GAvtordisp?$HL@ 0000000140083298     libvcruntime:undname.obj
 0002:000022a8       ??_C@_0L@HNGCOGAE@?$GAadjustor?$HL@ 00000001400832a8     libvcruntime:undname.obj
 0002:000022b8       ??_C@_0CB@KJDOOODE@?$GAlocal?5static?5destructor?5helper@ 00000001400832b8     libvcruntime:undname.obj
 0002:000022e0       ??_C@_0DB@ILEFOCIJ@?$GAtemplate?5static?5data?5member?5co@ 00000001400832e0     libvcruntime:undname.obj
 0002:00002320       ??_C@_0DA@HGFJFBBE@?$GAtemplate?5static?5data?5member?5de@ 0000000140083320     libvcruntime:undname.obj
 0002:00002360       ??_C@_07PGOEDBHP@static?5@ 0000000140083360     libvcruntime:undname.obj
 0002:00002370       ??_C@_08NIEOINHE@virtual?5@ 0000000140083370     libvcruntime:undname.obj
 0002:00002380       ??_C@_09LAPHOOG@private?3?5@ 0000000140083380     libvcruntime:undname.obj
 0002:00002390       ??_C@_0M@GAIFPFIP@protected?3?5@ 0000000140083390     libvcruntime:undname.obj
 0002:000023a0       ??_C@_08GPDDCMKI@public?3?5@ 00000001400833a0     libvcruntime:undname.obj
 0002:000023b0       ??_C@_08KJLFOPNE@?$FLthunk?$FN?3@ 00000001400833b0     libvcruntime:undname.obj
 0002:000023c0       ??_C@_0M@DHNBOJMP@extern?5?$CCC?$CC?5@ 00000001400833c0     libvcruntime:undname.obj
 0002:000023d0       ??_C@_02KCKGHPCA@?$CJ?5@   00000001400833d0     libvcruntime:undname.obj
 0002:000023d4       ??_C@_05CIHEBHNO@char?5@   00000001400833d4     libvcruntime:undname.obj
 0002:000023dc       ??_C@_06EHJMALKF@short?5@  00000001400833dc     libvcruntime:undname.obj
 0002:000023e4       ??_C@_04LAHKHJMA@int?5@    00000001400833e4     libvcruntime:undname.obj
 0002:000023ec       ??_C@_05CJIMAING@long?5@   00000001400833ec     libvcruntime:undname.obj
 0002:000023f8       ??_C@_09EBBEKKIH@unsigned?5@ 00000001400833f8     libvcruntime:undname.obj
 0002:00002404       ??_C@_05BEFAKPML@void?5@   0000000140083404     libvcruntime:undname.obj
 0002:00002410       ??_C@_09GAIEOBLP@volatile?5@ 0000000140083410     libvcruntime:undname.obj
 0002:00002420       ??_C@_08PABEKFH@volatile@  0000000140083420     libvcruntime:undname.obj
 0002:00002430       ??_C@_0BA@LKIJLKPP@std?3?3nullptr_t?5@ 0000000140083430     libvcruntime:undname.obj
 0002:00002448       ??_C@_0P@GCOCNKDM@std?3?3nullptr_t@ 0000000140083448     libvcruntime:undname.obj
 0002:00002460       ??_C@_0L@EGPHHEKN@?$DMellipsis?$DO@ 0000000140083460     libvcruntime:undname.obj
 0002:00002470       ??_C@_04EENFHACM@?0?4?4?4@ 0000000140083470     libvcruntime:undname.obj
 0002:00002478       ??_C@_0M@ELJOJFFH@?0?$DMellipsis?$DO@ 0000000140083478     libvcruntime:undname.obj
 0002:00002488       ??_C@_09DNHFEOJI@?5noexcept@ 0000000140083488     libvcruntime:undname.obj
 0002:00002494       ??_C@_03PBJBJNON@cpu@      0000000140083494     libvcruntime:undname.obj
 0002:00002498       ??_C@_03DCBBJBAA@amp@      0000000140083498     libvcruntime:undname.obj
 0002:0000249c       ??_C@_02KEGNLNML@?0?5@     000000014008349c     libvcruntime:undname.obj
 0002:000024a0       ??_C@_04ENMBGAPA@char@     00000001400834a0     libvcruntime:undname.obj
 0002:000024a8       ??_C@_05BFKKPKCG@short@    00000001400834a8     libvcruntime:undname.obj
 0002:000024b0       ??_C@_03JBIPMCLC@int@      00000001400834b0     libvcruntime:undname.obj
 0002:000024b4       ??_C@_04GOKPGOLB@long@     00000001400834b4     libvcruntime:undname.obj
 0002:000024bc       ??_C@_05KNFBNCOH@float@    00000001400834bc     libvcruntime:undname.obj
 0002:000024c4       ??_C@_06BNJCAIGJ@double@   00000001400834c4     libvcruntime:undname.obj
 0002:000024cc       ??_C@_04DDKJGDCM@bool@     00000001400834cc     libvcruntime:undname.obj
 0002:000024d4       ??_C@_06EBGKOKIG@__int8@   00000001400834d4     libvcruntime:undname.obj
 0002:000024e0       ??_C@_07ICFHOGAF@__int16@  00000001400834e0     libvcruntime:undname.obj
 0002:000024f0       ??_C@_07OFLPPHGP@__int32@  00000001400834f0     libvcruntime:undname.obj
 0002:00002500       ??_C@_07LFCOJCAC@__int64@  0000000140083500     libvcruntime:undname.obj
 0002:00002510       ??_C@_08GAHOLHEO@__int128@ 0000000140083510     libvcruntime:undname.obj
 0002:00002520       ??_C@_09EEKGDCPH@?$DMunknown?$DO@ 0000000140083520     libvcruntime:undname.obj
 0002:00002530       ??_C@_07CFHGOPCN@char8_t@  0000000140083530     libvcruntime:undname.obj
 0002:00002540       ??_C@_08HBIPOFJB@char16_t@ 0000000140083540     libvcruntime:undname.obj
 0002:00002550       ??_C@_08IECNCBKG@char32_t@ 0000000140083550     libvcruntime:undname.obj
 0002:00002560       ??_C@_07CLGGIAMF@wchar_t@  0000000140083560     libvcruntime:undname.obj
 0002:0000256c       ??_C@_04HAPDLBFF@auto@     000000014008356c     libvcruntime:undname.obj
 0002:00002578       ??_C@_0P@LHCGKIGK@decltype?$CIauto?$CJ@ 0000000140083578     libvcruntime:undname.obj
 0002:0000258c       ??_C@_05PCNBGHCF@this?5@   000000014008358c     libvcruntime:undname.obj
 0002:00002594       ??_C@_06GCICPBLB@__w64?5@  0000000140083594     libvcruntime:undname.obj
 0002:000025a0       ??_C@_07NFANNNEC@UNKNOWN@  00000001400835a0     libvcruntime:undname.obj
 0002:000025b0       ??_C@_07EDHNAJHC@signed?5@ 00000001400835b0     libvcruntime:undname.obj
 0002:000025bc       ??_C@_05BNCCCJPP@const@    00000001400835bc     libvcruntime:undname.obj
 0002:000025c8       ??_C@_09EFNPDFFP@?5volatile@ 00000001400835c8     libvcruntime:undname.obj
 0002:000025d8       ??_C@_0P@GCIFDJCJ@?$GAunknown?5ecsu?8@ 00000001400835d8     libvcruntime:undname.obj
 0002:000025ec       ??_C@_06MOJHIBMG@union?5@  00000001400835ec     libvcruntime:undname.obj
 0002:000025f8       ??_C@_07DIBCDNGL@struct?5@ 00000001400835f8     libvcruntime:undname.obj
 0002:00002604       ??_C@_06LJBABKPM@class?5@  0000000140083604     libvcruntime:undname.obj
 0002:00002610       ??_C@_08KOFANOFK@coclass?5@ 0000000140083610     libvcruntime:undname.obj
 0002:00002620       ??_C@_0N@DLIEFKNA@cointerface?5@ 0000000140083620     libvcruntime:undname.obj
 0002:00002630       ??_C@_05LJGMCFOG@enum?5@   0000000140083630     libvcruntime:undname.obj
 0002:00002638       ??_C@_06LIJLOJAG@const?5@  0000000140083638     libvcruntime:undname.obj
 0002:00002640       ??_C@_02KJPKDIBN@?$CG?5@   0000000140083640     libvcruntime:undname.obj
 0002:00002644       ??_C@_03PCKGMOPB@?$CG?$CG?5@ 0000000140083644     libvcruntime:undname.obj
 0002:00002648       ??_C@_0M@EALIELKG@cli?3?3array?$DM@ 0000000140083648     libvcruntime:undname.obj
 0002:00002658       ??_C@_0O@GKABPPIF@cli?3?3pin_ptr?$DM@ 0000000140083658     libvcruntime:undname.obj
 0002:00002668       ??_C@_02GOGNNPBN@?$CJ?$FL@ 0000000140083668     libvcruntime:undname.obj
 0002:0000266c       ??_C@_06EEGAIFAK@?$HLflat?$HN@ 000000014008366c     libvcruntime:undname.obj
 0002:00002674       ??_C@_05JIBOFOHK@?$HLfor?5@ 0000000140083674     libvcruntime:undname.obj
 0002:0000267c       ??_C@_02MDINNEEG@s?5@      000000014008367c     libvcruntime:undname.obj
 0002:00002688       ??_7DNameNode@@6B@         0000000140083688     libvcruntime:undname.obj
 0002:000026b8       ??_7charNode@@6B@          00000001400836b8     libvcruntime:undname.obj
 0002:000026e8       ??_7pcharNode@@6B@         00000001400836e8     libvcruntime:undname.obj
 0002:00002718       ??_7pDNameNode@@6B@        0000000140083718     libvcruntime:undname.obj
 0002:00002748       ??_7DNameStatusNode@@6B@   0000000140083748     libvcruntime:undname.obj
 0002:00002778       ??_7pairNode@@6B@          0000000140083778     libvcruntime:undname.obj
 0002:000028d4       ??_C@_04OKOHEJBO@?5?$DP?$DP?5@ 00000001400838d4     libvcruntime:undname.obj
 0002:000028e0       ?nodes@?1??make@DNameStatusNode@@SAPEBV2@W4DNameStatus@@@Z@4QBV2@B 00000001400838e0     libvcruntime:undname.obj
 0002:00002950       ??_C@_1DM@KHCHBNEB@?$AAa?$AAp?$AAi?$AA?9?$AAm?$AAs?$AA?9?$AAw?$AAi?$AAn?$AA?9?$AAc?$AAo?$AAr?$AAe@ 0000000140083950     libvcruntime:winapi_downlevel.obj
 0002:00002998       ??_C@_1DK@LPPGFMPP@?$AAa?$AAp?$AAi?$AA?9?$AAm?$AAs?$AA?9?$AAw?$AAi?$AAn?$AA?9?$AAc?$AAo?$AAr?$AAe@ 0000000140083998     libvcruntime:winapi_downlevel.obj
 0002:000029e0       ??_C@_1BC@GDMECMAK@?$AAk?$AAe?$AAr?$AAn?$AAe?$AAl?$AA3?$AA2@ 00000001400839e0     libvcruntime:winapi_downlevel.obj
 0002:000029f8       ??_C@_1BA@PFFKHIOG@?$AAa?$AAp?$AAi?$AA?9?$AAm?$AAs?$AA?9@ 00000001400839f8     libvcruntime:winapi_downlevel.obj
 0002:00002a20       ??_C@_08KNHFBNJ@FlsAlloc@  0000000140083a20     libvcruntime:winapi_downlevel.obj
 0002:00002a40       ??_C@_07PEJMOBNF@FlsFree@  0000000140083a40     libvcruntime:winapi_downlevel.obj
 0002:00002a60       ??_C@_0M@GDNOONDI@FlsGetValue@ 0000000140083a60     libvcruntime:winapi_downlevel.obj
 0002:00002a80       ??_C@_0M@JCPCPOEF@FlsSetValue@ 0000000140083a80     libvcruntime:winapi_downlevel.obj
 0002:00002aa0       ??_C@_0BM@HCFOFFN@InitializeCriticalSectionEx@ 0000000140083aa0     libvcruntime:winapi_downlevel.obj
 0002:00002ac8       ?s_negLengthTab@FH4@@3QBCB 0000000140083ac8     libvcruntime:risctrnsctrl.obj
 0002:00002ae0       ?s_shiftTab@FH4@@3QBEB     0000000140083ae0     libvcruntime:risctrnsctrl.obj
 0002:00002c80       ??_7exception@std@@6B@     0000000140083c80     libvcruntime:frame.obj
 0002:00002c98       ??_C@_0BC@EOODALEL@Unknown?5exception@ 0000000140083c98     libvcruntime:frame.obj
 0002:00002cb8       ??_7bad_exception@std@@6B@ 0000000140083cb8     libvcruntime:frame.obj
 0002:00002cd0       ??_C@_0O@DPKOEFFH@bad?5exception@ 0000000140083cd0     libvcruntime:frame.obj
 0002:00002ce0       _Fenv1                     0000000140083ce0     libucrt:output.obj
 0002:00002cf0       ?standard_lookup_table_spectre@__crt_stdio_output@@3V?$spectre_mitigated_lookup_table@Ustate_transition_pair@__crt_stdio_output@@$0IA@@1@B 0000000140083cf0     libucrt:output.obj
 0002:00002e30       ?format_validation_lookup_table_spectre@__crt_stdio_output@@3V?$spectre_mitigated_lookup_table@Ustate_transition_pair@__crt_stdio_output@@$0IA@@1@B 0000000140083e30     libucrt:output.obj
 0002:00002f68       ??_C@_1O@CEDCILHN@?$AA?$CI?$AAn?$AAu?$AAl?$AAl?$AA?$CJ@ 0000000140083f68     libucrt:output.obj
 0002:00002f78       ??_C@_06OJHGLDPL@?$CInull?$CJ@ 0000000140083f78     libucrt:output.obj
 0002:00002f80       __acrt_exception_action_table 0000000140083f80     libucrt:exception_filter.obj
 0002:00003068       __acrt_signal_action_table_count 0000000140084068     libucrt:exception_filter.obj
 0002:00003078       __acrt_signal_action_table_size 0000000140084078     libucrt:exception_filter.obj
 0002:00003088       __acrt_signal_action_first_fpe_index 0000000140084088     libucrt:exception_filter.obj
 0002:00003098       __acrt_signal_action_fpe_count 0000000140084098     libucrt:exception_filter.obj
 0002:000030a8       ??_C@_1DE@JNGNBFGO@?$AAR?$AAu?$AAn?$AAt?$AAi?$AAm?$AAe?$AA?5?$AAE?$AAr?$AAr?$AAo?$AAr?$AA?$CB?$AA?6@ 00000001400840a8     libucrt:report_runtime_error.obj
 0002:000030e8       ??_C@_1CO@EAEJAADC@?$AA?$DM?$AAp?$AAr?$AAo?$AAg?$AAr?$AAa?$AAm?$AA?5?$AAn?$AAa?$AAm?$AAe?$AA?5?$AAu@ 00000001400840e8     libucrt:report_runtime_error.obj
 0002:00003120       ??_C@_17LGKOMLJ@?$AA?4?$AA?4?$AA?4@ 0000000140084120     libucrt:report_runtime_error.obj
 0002:0000312c       ??_C@_15IABLJNFO@?$AA?6?$AA?6@ 000000014008412c     libucrt:report_runtime_error.obj
 0002:00003140       ??_C@_1EK@MBDPDCGA@?$AAM?$AAi?$AAc?$AAr?$AAo?$AAs?$AAo?$AAf?$AAt?$AA?5?$AAV?$AAi?$AAs?$AAu?$AAa@ 0000000140084140     libucrt:report_runtime_error.obj
 0002:000032b8       ??_C@_1BI@BGOHAHKC@?$AAm?$AAs?$AAc?$AAo?$AAr?$AAe?$AAe?$AA?4?$AAd?$AAl?$AAl@ 00000001400842b8     libucrt:exit.obj
 0002:000032d8       ??_C@_0P@MIGLKIOC@CorExitProcess@ 00000001400842d8     libucrt:exit.obj
 0002:00003390       __lc_category              0000000140084390     libucrt:wsetlocale.obj
 0002:00003440       ??_C@_1O@GIFLHMA@?$AAL?$AAC?$AA_?$AAA?$AAL?$AAL@ 0000000140084440     libucrt:wsetlocale.obj
 0002:00003450       ??_C@_1BG@PPOMIBNJ@?$AAL?$AAC?$AA_?$AAC?$AAO?$AAL?$AAL?$AAA?$AAT?$AAE@ 0000000140084450     libucrt:wsetlocale.obj
 0002:00003470       ??_C@_1BC@FFJGAPJM@?$AAL?$AAC?$AA_?$AAC?$AAT?$AAY?$AAP?$AAE@ 0000000140084470     libucrt:wsetlocale.obj
 0002:00003488       ??_C@_1BI@PCKFNJFB@?$AAL?$AAC?$AA_?$AAM?$AAO?$AAN?$AAE?$AAT?$AAA?$AAR?$AAY@ 0000000140084488     libucrt:wsetlocale.obj
 0002:000034a8       ??_C@_1BG@ENIEDKID@?$AAL?$AAC?$AA_?$AAN?$AAU?$AAM?$AAE?$AAR?$AAI?$AAC@ 00000001400844a8     libucrt:wsetlocale.obj
 0002:000034c8       ??_C@_1BA@HAAOMIIG@?$AAL?$AAC?$AA_?$AAT?$AAI?$AAM?$AAE@ 00000001400844c8     libucrt:wsetlocale.obj
 0002:000034dc       ??_C@_15NBPDDFIP@?$AA?$DN?$AA?$DL@ 00000001400844dc     libucrt:wsetlocale.obj
 0002:000034e4       ??_C@_13PJJBFPED@?$AA?$DL@ 00000001400844e4     libucrt:wsetlocale.obj
 0002:000034e8       ??_C@_13NMPKAAJP@?$AA?$DN@ 00000001400844e8     libucrt:wsetlocale.obj
 0002:000034ec       ??_C@_13IMODFHAA@?$AA?9@   00000001400844ec     libucrt:wsetlocale.obj
 0002:000034f0       ??_C@_17EFJLDFDO@?$AA?9?$AA_?$AA?4@ 00000001400844f0     libucrt:wsetlocale.obj
 0002:000034fc       ??_C@_13FHBKNHDA@?$AAC@    00000001400844fc     libucrt:wsetlocale.obj
 0002:00003500       ??_C@_17MBJJLFDM@?$AA_?$AA?4?$AA?0@ 0000000140084500     libucrt:wsetlocale.obj
 0002:0000350c       ??_C@_13ENNFDPBH@?$AA_@    000000014008450c     libucrt:wsetlocale.obj
 0002:00003510       ??_C@_13JOFGPIOO@?$AA?4@   0000000140084510     libucrt:wsetlocale.obj
 0002:0000390c       ??_C@_03OEIAHPBN@INF@      000000014008490c     libucrt:cvt.obj
 0002:00003910       ??_C@_03OJHLLCGB@inf@      0000000140084910     libucrt:cvt.obj
 0002:00003914       ??_C@_03LKNCIKJB@NAN@      0000000140084914     libucrt:cvt.obj
 0002:00003918       ??_C@_03LHCJEHON@nan@      0000000140084918     libucrt:cvt.obj
 0002:00003920       ??_C@_09OFJJIMPC@NAN?$CISNAN?$CJ@ 0000000140084920     libucrt:cvt.obj
 0002:00003930       ??_C@_09IPFBKMDL@nan?$CIsnan?$CJ@ 0000000140084930     libucrt:cvt.obj
 0002:00003940       ??_C@_08IKHNHAJ@NAN?$CIIND?$CJ@ 0000000140084940     libucrt:cvt.obj
 0002:00003950       ??_C@_08OFCDMILK@nan?$CIind?$CJ@ 0000000140084950     libucrt:cvt.obj
 0002:0000395c       ??_C@_05KLBDPFGC@e?$CL000@ 000000014008495c     libucrt:cvt.obj
 0002:00003970       __lc_time_c                0000000140084970     libucrt:nlsdata.obj
 0002:00003cbc       ??_C@_03KOEHGMDN@Sun@      0000000140084cbc     libucrt:nlsdata.obj
 0002:00003cc0       ??_C@_03PDAGKDH@Mon@       0000000140084cc0     libucrt:nlsdata.obj
 0002:00003cc4       ??_C@_03NAGEINEP@Tue@      0000000140084cc4     libucrt:nlsdata.obj
 0002:00003cc8       ??_C@_03MHOMLAJA@Wed@      0000000140084cc8     libucrt:nlsdata.obj
 0002:00003ccc       ??_C@_03IOFIKPDN@Thu@      0000000140084ccc     libucrt:nlsdata.obj
 0002:00003cd0       ??_C@_03IDIOELNC@Fri@      0000000140084cd0     libucrt:nlsdata.obj
 0002:00003cd4       ??_C@_03FEFJNEK@Sat@       0000000140084cd4     libucrt:nlsdata.obj
 0002:00003cd8       ??_C@_06OOPIFAJ@Sunday@    0000000140084cd8     libucrt:nlsdata.obj
 0002:00003ce0       ??_C@_06JLEDEDGH@Monday@   0000000140084ce0     libucrt:nlsdata.obj
 0002:00003ce8       ??_C@_07BAAGCFCM@Tuesday@  0000000140084ce8     libucrt:nlsdata.obj
 0002:00003cf8       ??_C@_09DLIGFAKA@Wednesday@ 0000000140084cf8     libucrt:nlsdata.obj
 0002:00003d08       ??_C@_08HACCIKIA@Thursday@ 0000000140084d08     libucrt:nlsdata.obj
 0002:00003d14       ??_C@_06JECMNKMI@Friday@   0000000140084d14     libucrt:nlsdata.obj
 0002:00003d20       ??_C@_08INBOOONO@Saturday@ 0000000140084d20     libucrt:nlsdata.obj
 0002:00003d2c       ??_C@_03JIHJHPIE@Jan@      0000000140084d2c     libucrt:nlsdata.obj
 0002:00003d30       ??_C@_03HJBDCHOM@Feb@      0000000140084d30     libucrt:nlsdata.obj
 0002:00003d34       ??_C@_03ODNJBKGA@Mar@      0000000140084d34     libucrt:nlsdata.obj
 0002:00003d38       ??_C@_03LEOLGMJP@Apr@      0000000140084d38     libucrt:nlsdata.obj
 0002:00003d3c       ??_C@_03CNMDKL@May@        0000000140084d3c     libucrt:nlsdata.obj
 0002:00003d40       ??_C@_03IDFGHECI@Jun@      0000000140084d40     libucrt:nlsdata.obj
 0002:00003d44       ??_C@_03LBGABGKK@Jul@      0000000140084d44     libucrt:nlsdata.obj
 0002:00003d48       ??_C@_03IFJFEIGA@Aug@      0000000140084d48     libucrt:nlsdata.obj
 0002:00003d4c       ??_C@_03GGCAPAJC@Sep@      0000000140084d4c     libucrt:nlsdata.obj
 0002:00003d50       ??_C@_03BMAOKBAD@Oct@      0000000140084d50     libucrt:nlsdata.obj
 0002:00003d54       ??_C@_03JPJOFNIA@Nov@      0000000140084d54     libucrt:nlsdata.obj
 0002:00003d58       ??_C@_03MKABNOCG@Dec@      0000000140084d58     libucrt:nlsdata.obj
 0002:00003d60       ??_C@_07CGJPFGJA@January@  0000000140084d60     libucrt:nlsdata.obj
 0002:00003d70       ??_C@_08GNJGEPFN@February@ 0000000140084d70     libucrt:nlsdata.obj
 0002:00003d7c       ??_C@_05HPCKOFNC@March@    0000000140084d7c     libucrt:nlsdata.obj
 0002:00003d84       ??_C@_05DMJDNLEJ@April@    0000000140084d84     libucrt:nlsdata.obj
 0002:00003d8c       ??_C@_04CNLMGBGM@June@     0000000140084d8c     libucrt:nlsdata.obj
 0002:00003d94       ??_C@_04MIEPOIFP@July@     0000000140084d94     libucrt:nlsdata.obj
 0002:00003d9c       ??_C@_06LBBHFDDG@August@   0000000140084d9c     libucrt:nlsdata.obj
 0002:00003da8       ??_C@_09BHHEALKD@September@ 0000000140084da8     libucrt:nlsdata.obj
 0002:00003db8       ??_C@_07JJNFCEND@October@  0000000140084db8     libucrt:nlsdata.obj
 0002:00003dc8       ??_C@_08HCHEGEOA@November@ 0000000140084dc8     libucrt:nlsdata.obj
 0002:00003dd8       ??_C@_08EDHMEBNP@December@ 0000000140084dd8     libucrt:nlsdata.obj
 0002:00003de4       ??_C@_02DEDBPAFC@AM@       0000000140084de4     libucrt:nlsdata.obj
 0002:00003de8       ??_C@_02CJNFDJBF@PM@       0000000140084de8     libucrt:nlsdata.obj
 0002:00003df0       ??_C@_08BPBNCDIB@MM?1dd?1yy@ 0000000140084df0     libucrt:nlsdata.obj
 0002:00003e00       ??_C@_0BE@CKGJFCPC@dddd?0?5MMMM?5dd?0?5yyyy@ 0000000140084e00     libucrt:nlsdata.obj
 0002:00003e18       ??_C@_08JCCMCCIL@HH?3mm?3ss@ 0000000140084e18     libucrt:nlsdata.obj
 0002:00003e28       ??_C@_17MBGCMIPB@?$AAS?$AAu?$AAn@ 0000000140084e28     libucrt:nlsdata.obj
 0002:00003e38       ??_C@_17KBOMKBF@?$AAM?$AAo?$AAn@ 0000000140084e38     libucrt:nlsdata.obj
 0002:00003e48       ??_C@_17BMKGEGOJ@?$AAT?$AAu?$AAe@ 0000000140084e48     libucrt:nlsdata.obj
 0002:00003e58       ??_C@_17CJEDCEPE@?$AAW?$AAe?$AAd@ 0000000140084e58     libucrt:nlsdata.obj
 0002:00003e68       ??_C@_17PDPHAADD@?$AAT?$AAh?$AAu@ 0000000140084e68     libucrt:nlsdata.obj
 0002:00003e78       ??_C@_17HFOLPPLP@?$AAF?$AAr?$AAi@ 0000000140084e78     libucrt:nlsdata.obj
 0002:00003e88       ??_C@_17GGIBDPIH@?$AAS?$AAa?$AAt@ 0000000140084e88     libucrt:nlsdata.obj
 0002:00003e98       ??_C@_1O@IHNHDHPB@?$AAS?$AAu?$AAn?$AAd?$AAa?$AAy@ 0000000140084e98     libucrt:nlsdata.obj
 0002:00003ea8       ??_C@_1O@MMNBFLIA@?$AAM?$AAo?$AAn?$AAd?$AAa?$AAy@ 0000000140084ea8     libucrt:nlsdata.obj
 0002:00003eb8       ??_C@_1BA@ENFBFFEK@?$AAT?$AAu?$AAe?$AAs?$AAd?$AAa?$AAy@ 0000000140084eb8     libucrt:nlsdata.obj
 0002:00003ed0       ??_C@_1BE@EBOGMDOH@?$AAW?$AAe?$AAd?$AAn?$AAe?$AAs?$AAd?$AAa?$AAy@ 0000000140084ed0     libucrt:nlsdata.obj
 0002:00003ee8       ??_C@_1BC@HHMNLIHE@?$AAT?$AAh?$AAu?$AAr?$AAs?$AAd?$AAa?$AAy@ 0000000140084ee8     libucrt:nlsdata.obj
 0002:00003f00       ??_C@_1O@PDICJHAG@?$AAF?$AAr?$AAi?$AAd?$AAa?$AAy@ 0000000140084f00     libucrt:nlsdata.obj
 0002:00003f10       ??_C@_1BC@ENMNNPAJ@?$AAS?$AAa?$AAt?$AAu?$AAr?$AAd?$AAa?$AAy@ 0000000140084f10     libucrt:nlsdata.obj
 0002:00003f28       ??_C@_17DKNBKCHM@?$AAJ?$AAa?$AAn@ 0000000140084f28     libucrt:nlsdata.obj
 0002:00003f38       ??_C@_17LMDJEKJN@?$AAF?$AAe?$AAb@ 0000000140084f38     libucrt:nlsdata.obj
 0002:00003f48       ??_C@_17CKNLEDEC@?$AAM?$AAa?$AAr@ 0000000140084f48     libucrt:nlsdata.obj
 0002:00003f58       ??_C@_17LFPOIHDD@?$AAA?$AAp?$AAr@ 0000000140084f58     libucrt:nlsdata.obj
 0002:00003f68       ??_C@_17PNNKMEED@?$AAM?$AAa?$AAy@ 0000000140084f68     libucrt:nlsdata.obj
 0002:00003f78       ??_C@_17KCJGOCPB@?$AAJ?$AAu?$AAn@ 0000000140084f78     libucrt:nlsdata.obj
 0002:00003f88       ??_C@_17IJPCKHK@?$AAJ?$AAu?$AAl@ 0000000140084f88     libucrt:nlsdata.obj
 0002:00003f98       ??_C@_17ICPELBCN@?$AAA?$AAu?$AAg@ 0000000140084f98     libucrt:nlsdata.obj
 0002:00003fa8       ??_C@_17HCHCOKMG@?$AAS?$AAe?$AAp@ 0000000140084fa8     libucrt:nlsdata.obj
 0002:00003fb8       ??_C@_17FNLKOI@?$AAO?$AAc?$AAt@ 0000000140084fb8     libucrt:nlsdata.obj
 0002:00003fc8       ??_C@_17BBDMLCIG@?$AAN?$AAo?$AAv@ 0000000140084fc8     libucrt:nlsdata.obj
 0002:00003fd8       ??_C@_17EGKACKIF@?$AAD?$AAe?$AAc@ 0000000140084fd8     libucrt:nlsdata.obj
 0002:00003fe8       ??_C@_1BA@EFMEIEBA@?$AAJ?$AAa?$AAn?$AAu?$AAa?$AAr?$AAy@ 0000000140084fe8     libucrt:nlsdata.obj
 0002:00004000       ??_C@_1BC@JGDDFFAM@?$AAF?$AAe?$AAb?$AAr?$AAu?$AAa?$AAr?$AAy@ 0000000140085000     libucrt:nlsdata.obj
 0002:00004018       ??_C@_1M@IKEENEDF@?$AAM?$AAa?$AAr?$AAc?$AAh@ 0000000140085018     libucrt:nlsdata.obj
 0002:00004028       ??_C@_1M@GJNLMHFD@?$AAA?$AAp?$AAr?$AAi?$AAl@ 0000000140085028     libucrt:nlsdata.obj
 0002:00004038       ??_C@_19EPFLPGAP@?$AAJ?$AAu?$AAn?$AAe@ 0000000140085038     libucrt:nlsdata.obj
 0002:00004048       ??_C@_19BIFMLPCD@?$AAJ?$AAu?$AAl?$AAy@ 0000000140085048     libucrt:nlsdata.obj
 0002:00004058       ??_C@_1O@PAHLKOAC@?$AAA?$AAu?$AAg?$AAu?$AAs?$AAt@ 0000000140085058     libucrt:nlsdata.obj
 0002:00004068       ??_C@_1BE@DKAAMBJL@?$AAS?$AAe?$AAp?$AAt?$AAe?$AAm?$AAb?$AAe?$AAr@ 0000000140085068     libucrt:nlsdata.obj
 0002:00004080       ??_C@_1BA@EPANDLNG@?$AAO?$AAc?$AAt?$AAo?$AAb?$AAe?$AAr@ 0000000140085080     libucrt:nlsdata.obj
 0002:00004098       ??_C@_1BC@BGLIFPF@?$AAN?$AAo?$AAv?$AAe?$AAm?$AAb?$AAe?$AAr@ 0000000140085098     libucrt:nlsdata.obj
 0002:000040b0       ??_C@_1BC@FEMKIFH@?$AAD?$AAe?$AAc?$AAe?$AAm?$AAb?$AAe?$AAr@ 00000001400850b0     libucrt:nlsdata.obj
 0002:000040c8       ??_C@_15ODEHAHHF@?$AAA?$AAM@ 00000001400850c8     libucrt:nlsdata.obj
 0002:000040d0       ??_C@_15CLMNNGEL@?$AAP?$AAM@ 00000001400850d0     libucrt:nlsdata.obj
 0002:000040d8       ??_C@_1BC@IEBCMHCM@?$AAM?$AAM?$AA?1?$AAd?$AAd?$AA?1?$AAy?$AAy@ 00000001400850d8     libucrt:nlsdata.obj
 0002:000040f0       ??_C@_1CI@KNAKOEBC@?$AAd?$AAd?$AAd?$AAd?$AA?0?$AA?5?$AAM?$AAM?$AAM?$AAM?$AA?5?$AAd?$AAd?$AA?0?$AA?5@ 00000001400850f0     libucrt:nlsdata.obj
 0002:00004120       ??_C@_1BC@GDGBMEMK@?$AAH?$AAH?$AA?3?$AAm?$AAm?$AA?3?$AAs?$AAs@ 0000000140085120     libucrt:nlsdata.obj
 0002:00004138       ??_C@_1M@BMHNFIME@?$AAe?$AAn?$AA?9?$AAU?$AAS@ 0000000140085138     libucrt:nlsdata.obj
 0002:00004170       ??_C@_1M@HPNHIDJI@?$AAj?$AAa?$AA?9?$AAJ?$AAP@ 0000000140085170     libucrt:mbctype.obj
 0002:00004180       ??_C@_1M@BIBDDEMK@?$AAz?$AAh?$AA?9?$AAC?$AAN@ 0000000140085180     libucrt:mbctype.obj
 0002:00004190       ??_C@_1M@JLOOOEGK@?$AAk?$AAo?$AA?9?$AAK?$AAR@ 0000000140085190     libucrt:mbctype.obj
 0002:000041a0       ??_C@_1M@CLNBBOPM@?$AAz?$AAh?$AA?9?$AAT?$AAW@ 00000001400851a0     libucrt:mbctype.obj
 0002:000041b0       RtlNtPathSeperatorString   00000001400851b0     libucrt:peb_access.obj
 0002:000041c4       ??_C@_13FPGAJAPJ@?$AA?2@   00000001400851c4     libucrt:peb_access.obj
 0002:000041c8       RtlDosPathSeperatorsString 00000001400851c8     libucrt:peb_access.obj
 0002:000041dc       ??_C@_15MNCACJLI@?$AA?2?$AA?1@ 00000001400851dc     libucrt:peb_access.obj
 0002:000041e8       RtlAlternateDosPathSeperatorString 00000001400851e8     libucrt:peb_access.obj
 0002:000041fc       ??_C@_13CGOKJPIL@?$AA?1@   00000001400851fc     libucrt:peb_access.obj
 0002:00004200       __newctype                 0000000140085200     libucrt:ctype.obj
 0002:000045a0       __newclmap                 00000001400855a0     libucrt:ctype.obj
 0002:00004770       __newcumap                 0000000140085770     libucrt:ctype.obj
 0002:00004940       _wctype                    0000000140085940     libucrt:ctype.obj
 0002:00004bb0       __acrt_rg_language         0000000140085bb0     libucrt:get_qualified_locale.obj
 0002:00005090       __acrt_rg_language_count   0000000140086090     libucrt:get_qualified_locale.obj
 0002:000050a0       __acrt_rg_country          00000001400860a0     libucrt:get_qualified_locale.obj
 0002:00005260       __acrt_rg_country_count    0000000140086260     libucrt:get_qualified_locale.obj
 0002:00005270       ??_C@_1BC@LLOKLNP@?$AAa?$AAm?$AAe?$AAr?$AAi?$AAc?$AAa?$AAn@ 0000000140086270     libucrt:get_qualified_locale.obj
 0002:00005288       ??_C@_1CC@HEIGCDGG@?$AAa?$AAm?$AAe?$AAr?$AAi?$AAc?$AAa?$AAn?$AA?5?$AAe?$AAn?$AAg?$AAl?$AAi?$AAs@ 0000000140086288     libucrt:get_qualified_locale.obj
 0002:000052b0       ??_C@_1CC@IHCNOMIN@?$AAa?$AAm?$AAe?$AAr?$AAi?$AAc?$AAa?$AAn?$AA?9?$AAe?$AAn?$AAg?$AAl?$AAi?$AAs@ 00000001400862b0     libucrt:get_qualified_locale.obj
 0002:000052d8       ??_C@_1BG@GKAGPCGG@?$AAa?$AAu?$AAs?$AAt?$AAr?$AAa?$AAl?$AAi?$AAa?$AAn@ 00000001400862d8     libucrt:get_qualified_locale.obj
 0002:000052f8       ??_C@_1BA@GMENCENF@?$AAb?$AAe?$AAl?$AAg?$AAi?$AAa?$AAn@ 00000001400862f8     libucrt:get_qualified_locale.obj
 0002:00005310       ??_C@_1BC@PJMIIAAN@?$AAc?$AAa?$AAn?$AAa?$AAd?$AAi?$AAa?$AAn@ 0000000140086310     libucrt:get_qualified_locale.obj
 0002:00005328       ??_C@_17NOIMNFBF@?$AAc?$AAh?$AAh@ 0000000140086328     libucrt:get_qualified_locale.obj
 0002:00005338       ??_C@_17GGDALCHA@?$AAc?$AAh?$AAi@ 0000000140086338     libucrt:get_qualified_locale.obj
 0002:00005348       ??_C@_1BA@NPNJKIBL@?$AAc?$AAh?$AAi?$AAn?$AAe?$AAs?$AAe@ 0000000140086348     libucrt:get_qualified_locale.obj
 0002:00005360       ??_C@_1CC@DINBAMMJ@?$AAc?$AAh?$AAi?$AAn?$AAe?$AAs?$AAe?$AA?9?$AAh?$AAo?$AAn?$AAg?$AAk?$AAo?$AAn@ 0000000140086360     libucrt:get_qualified_locale.obj
 0002:00005388       ??_C@_1CG@IOBJPACO@?$AAc?$AAh?$AAi?$AAn?$AAe?$AAs?$AAe?$AA?9?$AAs?$AAi?$AAm?$AAp?$AAl?$AAi?$AAf@ 0000000140086388     libucrt:get_qualified_locale.obj
 0002:000053b8       ??_C@_1CE@GAJNDCKG@?$AAc?$AAh?$AAi?$AAn?$AAe?$AAs?$AAe?$AA?9?$AAs?$AAi?$AAn?$AAg?$AAa?$AAp?$AAo@ 00000001400863b8     libucrt:get_qualified_locale.obj
 0002:000053e8       ??_C@_1CI@PAJPIOOD@?$AAc?$AAh?$AAi?$AAn?$AAe?$AAs?$AAe?$AA?9?$AAt?$AAr?$AAa?$AAd?$AAi?$AAt?$AAi@ 00000001400863e8     libucrt:get_qualified_locale.obj
 0002:00005418       ??_C@_1BM@NILJBMMD@?$AAd?$AAu?$AAt?$AAc?$AAh?$AA?9?$AAb?$AAe?$AAl?$AAg?$AAi?$AAa?$AAn@ 0000000140086418     libucrt:get_qualified_locale.obj
 0002:00005440       ??_C@_1CC@OOJPJNEJ@?$AAe?$AAn?$AAg?$AAl?$AAi?$AAs?$AAh?$AA?9?$AAa?$AAm?$AAe?$AAr?$AAi?$AAc?$AAa@ 0000000140086440     libucrt:get_qualified_locale.obj
 0002:00005468       ??_C@_1BI@IOLFEEM@?$AAe?$AAn?$AAg?$AAl?$AAi?$AAs?$AAh?$AA?9?$AAa?$AAu?$AAs@ 0000000140086468     libucrt:get_qualified_locale.obj
 0002:00005488       ??_C@_1BO@HFFNLENJ@?$AAe?$AAn?$AAg?$AAl?$AAi?$AAs?$AAh?$AA?9?$AAb?$AAe?$AAl?$AAi?$AAz?$AAe@ 0000000140086488     libucrt:get_qualified_locale.obj
 0002:000054b0       ??_C@_1BI@HAPKJMPO@?$AAe?$AAn?$AAg?$AAl?$AAi?$AAs?$AAh?$AA?9?$AAc?$AAa?$AAn@ 00000001400864b0     libucrt:get_qualified_locale.obj
 0002:000054d0       ??_C@_1CE@HLNDMIOJ@?$AAe?$AAn?$AAg?$AAl?$AAi?$AAs?$AAh?$AA?9?$AAc?$AAa?$AAr?$AAi?$AAb?$AAb?$AAe@ 00000001400864d0     libucrt:get_qualified_locale.obj
 0002:00005500       ??_C@_1BI@LDHJHHAC@?$AAe?$AAn?$AAg?$AAl?$AAi?$AAs?$AAh?$AA?9?$AAi?$AAr?$AAe@ 0000000140086500     libucrt:get_qualified_locale.obj
 0002:00005520       ??_C@_1CA@NJMMCFOC@?$AAe?$AAn?$AAg?$AAl?$AAi?$AAs?$AAh?$AA?9?$AAj?$AAa?$AAm?$AAa?$AAi?$AAc?$AAa@ 0000000140086520     libucrt:get_qualified_locale.obj
 0002:00005548       ??_C@_1BG@BHJEBBGG@?$AAe?$AAn?$AAg?$AAl?$AAi?$AAs?$AAh?$AA?9?$AAn?$AAz@ 0000000140086548     libucrt:get_qualified_locale.obj
 0002:00005568       ??_C@_1CK@FGOEJJCO@?$AAe?$AAn?$AAg?$AAl?$AAi?$AAs?$AAh?$AA?9?$AAs?$AAo?$AAu?$AAt?$AAh?$AA?5?$AAa@ 0000000140086568     libucrt:get_qualified_locale.obj
 0002:000055a0       ??_C@_1DE@PDBJPCJ@?$AAe?$AAn?$AAg?$AAl?$AAi?$AAs?$AAh?$AA?9?$AAt?$AAr?$AAi?$AAn?$AAi?$AAd?$AAa@ 00000001400865a0     libucrt:get_qualified_locale.obj
 0002:000055e0       ??_C@_1BG@JGCANDME@?$AAe?$AAn?$AAg?$AAl?$AAi?$AAs?$AAh?$AA?9?$AAu?$AAk@ 00000001400865e0     libucrt:get_qualified_locale.obj
 0002:00005600       ??_C@_1BG@DINKMLE@?$AAe?$AAn?$AAg?$AAl?$AAi?$AAs?$AAh?$AA?9?$AAu?$AAs@ 0000000140086600     libucrt:get_qualified_locale.obj
 0002:00005620       ??_C@_1BI@NMFDBHJE@?$AAe?$AAn?$AAg?$AAl?$AAi?$AAs?$AAh?$AA?9?$AAu?$AAs?$AAa@ 0000000140086620     libucrt:get_qualified_locale.obj
 0002:00005640       ??_C@_1BO@OIHKJKII@?$AAf?$AAr?$AAe?$AAn?$AAc?$AAh?$AA?9?$AAb?$AAe?$AAl?$AAg?$AAi?$AAa?$AAn@ 0000000140086640     libucrt:get_qualified_locale.obj
 0002:00005668       ??_C@_1CA@NKAELJKI@?$AAf?$AAr?$AAe?$AAn?$AAc?$AAh?$AA?9?$AAc?$AAa?$AAn?$AAa?$AAd?$AAi?$AAa?$AAn@ 0000000140086668     libucrt:get_qualified_locale.obj
 0002:00005690       ??_C@_1CE@MGKCNLGN@?$AAf?$AAr?$AAe?$AAn?$AAc?$AAh?$AA?9?$AAl?$AAu?$AAx?$AAe?$AAm?$AAb?$AAo?$AAu@ 0000000140086690     libucrt:get_qualified_locale.obj
 0002:000056c0       ??_C@_1BK@CEGEAILM@?$AAf?$AAr?$AAe?$AAn?$AAc?$AAh?$AA?9?$AAs?$AAw?$AAi?$AAs?$AAs@ 00000001400866c0     libucrt:get_qualified_locale.obj
 0002:000056e0       ??_C@_1CA@PAFKEOCC@?$AAg?$AAe?$AAr?$AAm?$AAa?$AAn?$AA?9?$AAa?$AAu?$AAs?$AAt?$AAr?$AAi?$AAa?$AAn@ 00000001400866e0     libucrt:get_qualified_locale.obj
 0002:00005708       ??_C@_1CI@HCFHGOFD@?$AAg?$AAe?$AAr?$AAm?$AAa?$AAn?$AA?9?$AAl?$AAi?$AAc?$AAh?$AAt?$AAe?$AAn?$AAs@ 0000000140086708     libucrt:get_qualified_locale.obj
 0002:00005738       ??_C@_1CE@FEDDNPDG@?$AAg?$AAe?$AAr?$AAm?$AAa?$AAn?$AA?9?$AAl?$AAu?$AAx?$AAe?$AAm?$AAb?$AAo?$AAu@ 0000000140086738     libucrt:get_qualified_locale.obj
 0002:00005768       ??_C@_1BK@LIMINNMN@?$AAg?$AAe?$AAr?$AAm?$AAa?$AAn?$AA?9?$AAs?$AAw?$AAi?$AAs?$AAs@ 0000000140086768     libucrt:get_qualified_locale.obj
 0002:00005788       ??_C@_1BM@LGMDBEPD@?$AAi?$AAr?$AAi?$AAs?$AAh?$AA?9?$AAe?$AAn?$AAg?$AAl?$AAi?$AAs?$AAh@ 0000000140086788     libucrt:get_qualified_locale.obj
 0002:000057b0       ??_C@_1BM@NNCFBAEE@?$AAi?$AAt?$AAa?$AAl?$AAi?$AAa?$AAn?$AA?9?$AAs?$AAw?$AAi?$AAs?$AAs@ 00000001400867b0     libucrt:get_qualified_locale.obj
 0002:000057d8       ??_C@_1BE@FEDJNPIB@?$AAn?$AAo?$AAr?$AAw?$AAe?$AAg?$AAi?$AAa?$AAn@ 00000001400867d8     libucrt:get_qualified_locale.obj
 0002:000057f0       ??_C@_1CC@CILKDEIE@?$AAn?$AAo?$AAr?$AAw?$AAe?$AAg?$AAi?$AAa?$AAn?$AA?9?$AAb?$AAo?$AAk?$AAm?$AAa@ 00000001400867f0     libucrt:get_qualified_locale.obj
 0002:00005818       ??_C@_1CE@DHMMHEPL@?$AAn?$AAo?$AAr?$AAw?$AAe?$AAg?$AAi?$AAa?$AAn?$AA?9?$AAn?$AAy?$AAn?$AAo?$AAr@ 0000000140086818     libucrt:get_qualified_locale.obj
 0002:00005848       ??_C@_1CK@OPNMHECD@?$AAp?$AAo?$AAr?$AAt?$AAu?$AAg?$AAu?$AAe?$AAs?$AAe?$AA?9?$AAb?$AAr?$AAa?$AAz@ 0000000140086848     libucrt:get_qualified_locale.obj
 0002:00005880       ??_C@_1CE@KEEHCDB@?$AAs?$AAp?$AAa?$AAn?$AAi?$AAs?$AAh?$AA?9?$AAa?$AAr?$AAg?$AAe?$AAn?$AAt?$AAi@ 0000000140086880     libucrt:get_qualified_locale.obj
 0002:000058b0       ??_C@_1CA@GIAOLHJD@?$AAs?$AAp?$AAa?$AAn?$AAi?$AAs?$AAh?$AA?9?$AAb?$AAo?$AAl?$AAi?$AAv?$AAi?$AAa@ 00000001400868b0     libucrt:get_qualified_locale.obj
 0002:000058d8       ??_C@_1BM@OJNDFNPD@?$AAs?$AAp?$AAa?$AAn?$AAi?$AAs?$AAh?$AA?9?$AAc?$AAh?$AAi?$AAl?$AAe@ 00000001400868d8     libucrt:get_qualified_locale.obj
 0002:00005900       ??_C@_1CC@OCOLPALL@?$AAs?$AAp?$AAa?$AAn?$AAi?$AAs?$AAh?$AA?9?$AAc?$AAo?$AAl?$AAo?$AAm?$AAb?$AAi@ 0000000140086900     libucrt:get_qualified_locale.obj
 0002:00005928       ??_C@_1CG@BPOFMKBB@?$AAs?$AAp?$AAa?$AAn?$AAi?$AAs?$AAh?$AA?9?$AAc?$AAo?$AAs?$AAt?$AAa?$AA?5?$AAr@ 0000000140086928     libucrt:get_qualified_locale.obj
 0002:00005958       ??_C@_1DG@IGOBAPBB@?$AAs?$AAp?$AAa?$AAn?$AAi?$AAs?$AAh?$AA?9?$AAd?$AAo?$AAm?$AAi?$AAn?$AAi?$AAc@ 0000000140086958     libucrt:get_qualified_locale.obj
 0002:00005998       ??_C@_1CA@JHAPGEGI@?$AAs?$AAp?$AAa?$AAn?$AAi?$AAs?$AAh?$AA?9?$AAe?$AAc?$AAu?$AAa?$AAd?$AAo?$AAr@ 0000000140086998     libucrt:get_qualified_locale.obj
 0002:000059c0       ??_C@_1CI@LAPALJPP@?$AAs?$AAp?$AAa?$AAn?$AAi?$AAs?$AAh?$AA?9?$AAe?$AAl?$AA?5?$AAs?$AAa?$AAl?$AAv@ 00000001400869c0     libucrt:get_qualified_locale.obj
 0002:000059f0       ??_C@_1CE@PDGBOFOM@?$AAs?$AAp?$AAa?$AAn?$AAi?$AAs?$AAh?$AA?9?$AAg?$AAu?$AAa?$AAt?$AAe?$AAm?$AAa@ 00000001400869f0     libucrt:get_qualified_locale.obj
 0002:00005a20       ??_C@_1CC@NBEBAODI@?$AAs?$AAp?$AAa?$AAn?$AAi?$AAs?$AAh?$AA?9?$AAh?$AAo?$AAn?$AAd?$AAu?$AAr?$AAa@ 0000000140086a20     libucrt:get_qualified_locale.obj
 0002:00005a48       ??_C@_1CA@LLKGHBMF@?$AAs?$AAp?$AAa?$AAn?$AAi?$AAs?$AAh?$AA?9?$AAm?$AAe?$AAx?$AAi?$AAc?$AAa?$AAn@ 0000000140086a48     libucrt:get_qualified_locale.obj
 0002:00005a70       ??_C@_1BO@LKNDOIGD@?$AAs?$AAp?$AAa?$AAn?$AAi?$AAs?$AAh?$AA?9?$AAm?$AAo?$AAd?$AAe?$AAr?$AAn@ 0000000140086a70     libucrt:get_qualified_locale.obj
 0002:00005a98       ??_C@_1CE@NMDMOEEB@?$AAs?$AAp?$AAa?$AAn?$AAi?$AAs?$AAh?$AA?9?$AAn?$AAi?$AAc?$AAa?$AAr?$AAa?$AAg@ 0000000140086a98     libucrt:get_qualified_locale.obj
 0002:00005ac8       ??_C@_1BO@LLCBEJGB@?$AAs?$AAp?$AAa?$AAn?$AAi?$AAs?$AAh?$AA?9?$AAp?$AAa?$AAn?$AAa?$AAm?$AAa@ 0000000140086ac8     libucrt:get_qualified_locale.obj
 0002:00005af0       ??_C@_1CC@FKPGGIHO@?$AAs?$AAp?$AAa?$AAn?$AAi?$AAs?$AAh?$AA?9?$AAp?$AAa?$AAr?$AAa?$AAg?$AAu?$AAa@ 0000000140086af0     libucrt:get_qualified_locale.obj
 0002:00005b18       ??_C@_1BK@CDEIHOOP@?$AAs?$AAp?$AAa?$AAn?$AAi?$AAs?$AAh?$AA?9?$AAp?$AAe?$AAr?$AAu@ 0000000140086b18     libucrt:get_qualified_locale.obj
 0002:00005b38       ??_C@_1CI@GAHAKKGP@?$AAs?$AAp?$AAa?$AAn?$AAi?$AAs?$AAh?$AA?9?$AAp?$AAu?$AAe?$AAr?$AAt?$AAo?$AA?5@ 0000000140086b38     libucrt:get_qualified_locale.obj
 0002:00005b68       ??_C@_1CA@NKJBCAGP@?$AAs?$AAp?$AAa?$AAn?$AAi?$AAs?$AAh?$AA?9?$AAu?$AAr?$AAu?$AAg?$AAu?$AAa?$AAy@ 0000000140086b68     libucrt:get_qualified_locale.obj
 0002:00005b90       ??_C@_1CE@ODILCONM@?$AAs?$AAp?$AAa?$AAn?$AAi?$AAs?$AAh?$AA?9?$AAv?$AAe?$AAn?$AAe?$AAz?$AAu?$AAe@ 0000000140086b90     libucrt:get_qualified_locale.obj
 0002:00005bc0       ??_C@_1CA@OBNMCGFO@?$AAs?$AAw?$AAe?$AAd?$AAi?$AAs?$AAh?$AA?9?$AAf?$AAi?$AAn?$AAl?$AAa?$AAn?$AAd@ 0000000140086bc0     libucrt:get_qualified_locale.obj
 0002:00005be8       ??_C@_1M@PIPDDPPI@?$AAs?$AAw?$AAi?$AAs?$AAs@ 0000000140086be8     libucrt:get_qualified_locale.obj
 0002:00005bf8       ??_C@_15PJPFLCCM@?$AAu?$AAk@ 0000000140086bf8     libucrt:get_qualified_locale.obj
 0002:00005c00       ??_C@_15GMFIMNFM@?$AAu?$AAs@ 0000000140086c00     libucrt:get_qualified_locale.obj
 0002:00005c08       ??_C@_17HAEBFAGL@?$AAu?$AAs?$AAa@ 0000000140086c08     libucrt:get_qualified_locale.obj
 0002:00005c18       ??_C@_1BA@DPFJEPHB@?$AAa?$AAm?$AAe?$AAr?$AAi?$AAc?$AAa@ 0000000140086c18     libucrt:get_qualified_locale.obj
 0002:00005c30       ??_C@_1BA@ELOGGFK@?$AAb?$AAr?$AAi?$AAt?$AAa?$AAi?$AAn@ 0000000140086c30     libucrt:get_qualified_locale.obj
 0002:00005c48       ??_C@_1M@GHBGIGDA@?$AAc?$AAh?$AAi?$AAn?$AAa@ 0000000140086c48     libucrt:get_qualified_locale.obj
 0002:00005c58       ??_C@_1M@NCHEJOPO@?$AAc?$AAz?$AAe?$AAc?$AAh@ 0000000140086c58     libucrt:get_qualified_locale.obj
 0002:00005c68       ??_C@_1BA@BKPAPBLA@?$AAe?$AAn?$AAg?$AAl?$AAa?$AAn?$AAd@ 0000000140086c68     libucrt:get_qualified_locale.obj
 0002:00005c80       ??_C@_1BM@HKBCKIPC@?$AAg?$AAr?$AAe?$AAa?$AAt?$AA?5?$AAb?$AAr?$AAi?$AAt?$AAa?$AAi?$AAn@ 0000000140086c80     libucrt:get_qualified_locale.obj
 0002:00005ca8       ??_C@_1BA@PPCHPGJB@?$AAh?$AAo?$AAl?$AAl?$AAa?$AAn?$AAd@ 0000000140086ca8     libucrt:get_qualified_locale.obj
 0002:00005cc0       ??_C@_1BE@JBMPEGDG@?$AAh?$AAo?$AAn?$AAg?$AA?9?$AAk?$AAo?$AAn?$AAg@ 0000000140086cc0     libucrt:get_qualified_locale.obj
 0002:00005cd8       ??_C@_1BI@KOELBBPJ@?$AAn?$AAe?$AAw?$AA?9?$AAz?$AAe?$AAa?$AAl?$AAa?$AAn?$AAd@ 0000000140086cd8     libucrt:get_qualified_locale.obj
 0002:00005cf4       ??_C@_15HIEBHAIO@?$AAn?$AAz@ 0000000140086cf4     libucrt:get_qualified_locale.obj
 0002:00005d00       ??_C@_1BC@CHBCPFPI@?$AAp?$AAr?$AA?5?$AAc?$AAh?$AAi?$AAn?$AAa@ 0000000140086d00     libucrt:get_qualified_locale.obj
 0002:00005d18       ??_C@_1BC@JAOIIFKD@?$AAp?$AAr?$AA?9?$AAc?$AAh?$AAi?$AAn?$AAa@ 0000000140086d18     libucrt:get_qualified_locale.obj
 0002:00005d30       ??_C@_1BI@BEHPPHKC@?$AAp?$AAu?$AAe?$AAr?$AAt?$AAo?$AA?9?$AAr?$AAi?$AAc?$AAo@ 0000000140086d30     libucrt:get_qualified_locale.obj
 0002:00005d50       ??_C@_1O@PAEOFKDI@?$AAs?$AAl?$AAo?$AAv?$AAa?$AAk@ 0000000140086d50     libucrt:get_qualified_locale.obj
 0002:00005d60       ??_C@_1BK@FIHMCKAM@?$AAs?$AAo?$AAu?$AAt?$AAh?$AA?5?$AAa?$AAf?$AAr?$AAi?$AAc?$AAa@ 0000000140086d60     libucrt:get_qualified_locale.obj
 0002:00005d80       ??_C@_1BI@NAEOODKB@?$AAs?$AAo?$AAu?$AAt?$AAh?$AA?5?$AAk?$AAo?$AAr?$AAe?$AAa@ 0000000140086d80     libucrt:get_qualified_locale.obj
 0002:00005da0       ??_C@_1BK@FBDGGIFF@?$AAs?$AAo?$AAu?$AAt?$AAh?$AA?9?$AAa?$AAf?$AAr?$AAi?$AAc?$AAa@ 0000000140086da0     libucrt:get_qualified_locale.obj
 0002:00005dc0       ??_C@_1BI@GHLEJDPK@?$AAs?$AAo?$AAu?$AAt?$AAh?$AA?9?$AAk?$AAo?$AAr?$AAe?$AAa@ 0000000140086dc0     libucrt:get_qualified_locale.obj
 0002:00005de0       ??_C@_1CE@PLHLOMJF@?$AAt?$AAr?$AAi?$AAn?$AAi?$AAd?$AAa?$AAd?$AA?5?$AA?$CG?$AA?5?$AAt?$AAo?$AAb?$AAa@ 0000000140086de0     libucrt:get_qualified_locale.obj
 0002:00005e10       ??_C@_1BO@MODIMHHI@?$AAu?$AAn?$AAi?$AAt?$AAe?$AAd?$AA?9?$AAk?$AAi?$AAn?$AAg?$AAd?$AAo?$AAm@ 0000000140086e10     libucrt:get_qualified_locale.obj
 0002:00005e38       ??_C@_1BM@FFHJONBJ@?$AAu?$AAn?$AAi?$AAt?$AAe?$AAd?$AA?9?$AAs?$AAt?$AAa?$AAt?$AAe?$AAs@ 0000000140086e38     libucrt:get_qualified_locale.obj
 0002:00005e60       ??_C@_19MPDNHKDG@?$AAu?$AAt?$AAf?$AA8@ 0000000140086e60     libucrt:get_qualified_locale.obj
 0002:00005e70       ??_C@_17DNCLJFIF@?$AAA?$AAC?$AAP@ 0000000140086e70     libucrt:get_qualified_locale.obj
 0002:00005e80       ??_C@_1M@FPEIIFAM@?$AAu?$AAt?$AAf?$AA?9?$AA8@ 0000000140086e80     libucrt:get_qualified_locale.obj
 0002:00005e90       ??_C@_17CIKBIHLH@?$AAO?$AAC?$AAP@ 0000000140086e90     libucrt:get_qualified_locale.obj
 0002:00005ea0       __rglangidNotDefault       0000000140086ea0     libucrt:getqloc_downlevel.obj
 0002:00005f90       ??_C@_1EA@JGEFHKEI@?$AAa?$AAp?$AAi?$AA?9?$AAm?$AAs?$AA?9?$AAw?$AAi?$AAn?$AA?9?$AAc?$AAo?$AAr?$AAe@ 0000000140086f90     libucrt:winapi_thunks.obj
 0002:00005fe0       ??_C@_1DI@KMEPCBPN@?$AAa?$AAp?$AAi?$AA?9?$AAm?$AAs?$AA?9?$AAw?$AAi?$AAn?$AA?9?$AAc?$AAo?$AAr?$AAe@ 0000000140086fe0     libucrt:winapi_thunks.obj
 0002:00006028       ??_C@_1DI@IJCEHOCB@?$AAa?$AAp?$AAi?$AA?9?$AAm?$AAs?$AA?9?$AAw?$AAi?$AAn?$AA?9?$AAc?$AAo?$AAr?$AAe@ 0000000140087028     libucrt:winapi_thunks.obj
 0002:00006070       ??_C@_1EI@MPIAOHOC@?$AAa?$AAp?$AAi?$AA?9?$AAm?$AAs?$AA?9?$AAw?$AAi?$AAn?$AA?9?$AAc?$AAo?$AAr?$AAe@ 0000000140087070     libucrt:winapi_thunks.obj
 0002:000060d0       ??_C@_1FK@FPHCKFIE@?$AAa?$AAp?$AAi?$AA?9?$AAm?$AAs?$AA?9?$AAw?$AAi?$AAn?$AA?9?$AAc?$AAo?$AAr?$AAe@ 00000001400870d0     libucrt:winapi_thunks.obj
 0002:00006140       ??_C@_1EM@DILCGIIO@?$AAa?$AAp?$AAi?$AA?9?$AAm?$AAs?$AA?9?$AAw?$AAi?$AAn?$AA?9?$AAc?$AAo?$AAr?$AAe@ 0000000140087140     libucrt:winapi_thunks.obj
 0002:000061a0       ??_C@_1DM@LNCGDDPN@?$AAa?$AAp?$AAi?$AA?9?$AAm?$AAs?$AA?9?$AAw?$AAi?$AAn?$AA?9?$AAc?$AAo?$AAr?$AAe@ 00000001400871a0     libucrt:winapi_thunks.obj
 0002:000061e8       ??_C@_1DO@FPAPJEMD@?$AAa?$AAp?$AAi?$AA?9?$AAm?$AAs?$AA?9?$AAw?$AAi?$AAn?$AA?9?$AAc?$AAo?$AAr?$AAe@ 00000001400871e8     libucrt:winapi_thunks.obj
 0002:00006238       ??_C@_1DK@NDHNAHIO@?$AAa?$AAp?$AAi?$AA?9?$AAm?$AAs?$AA?9?$AAw?$AAi?$AAn?$AA?9?$AAc?$AAo?$AAr?$AAe@ 0000000140087238     libucrt:winapi_thunks.obj
 0002:00006280       ??_C@_1DM@KGHDGBCM@?$AAa?$AAp?$AAi?$AA?9?$AAm?$AAs?$AA?9?$AAw?$AAi?$AAn?$AA?9?$AAc?$AAo?$AAr?$AAe@ 0000000140087280     libucrt:winapi_thunks.obj
 0002:000062d0       ??_C@_1EO@IJIOEFOH@?$AAa?$AAp?$AAi?$AA?9?$AAm?$AAs?$AA?9?$AAw?$AAi?$AAn?$AA?9?$AAr?$AAt?$AAc?$AAo@ 00000001400872d0     libucrt:winapi_thunks.obj
 0002:00006330       ??_C@_1FG@HHGEKANL@?$AAa?$AAp?$AAi?$AA?9?$AAm?$AAs?$AA?9?$AAw?$AAi?$AAn?$AA?9?$AAs?$AAe?$AAc?$AAu@ 0000000140087330     libucrt:winapi_thunks.obj
 0002:000063a0       ??_C@_1EG@DBIOJECG@?$AAe?$AAx?$AAt?$AA?9?$AAm?$AAs?$AA?9?$AAw?$AAi?$AAn?$AA?9?$AAn?$AAt?$AAu?$AAs@ 00000001400873a0     libucrt:winapi_thunks.obj
 0002:00006400       ??_C@_1EO@FIHMJCLF@?$AAe?$AAx?$AAt?$AA?9?$AAm?$AAs?$AA?9?$AAw?$AAi?$AAn?$AA?9?$AAn?$AAt?$AAu?$AAs@ 0000000140087400     libucrt:winapi_thunks.obj
 0002:00006460       ??_C@_1BC@DNHGCMLG@?$AAa?$AAd?$AAv?$AAa?$AAp?$AAi?$AA3?$AA2@ 0000000140087460     libucrt:winapi_thunks.obj
 0002:00006478       ??_C@_1BG@CJPGBMEF@?$AAk?$AAe?$AAr?$AAn?$AAe?$AAl?$AAb?$AAa?$AAs?$AAe@ 0000000140087478     libucrt:winapi_thunks.obj
 0002:00006498       ??_C@_1M@OAIMIKLP@?$AAn?$AAt?$AAd?$AAl?$AAl@ 0000000140087498     libucrt:winapi_thunks.obj
 0002:000064b0       ??_C@_1EG@DPGNFKGC@?$AAa?$AAp?$AAi?$AA?9?$AAm?$AAs?$AA?9?$AAw?$AAi?$AAn?$AA?9?$AAa?$AAp?$AAp?$AAm@ 00000001400874b0     libucrt:winapi_thunks.obj
 0002:00006508       ??_C@_1O@BCCLBEOE@?$AAu?$AAs?$AAe?$AAr?$AA3?$AA2@ 0000000140087508     libucrt:winapi_thunks.obj
 0002:00006518       ??_C@_1BA@IAIFMGEF@?$AAe?$AAx?$AAt?$AA?9?$AAm?$AAs?$AA?9@ 0000000140087518     libucrt:winapi_thunks.obj
 0002:00006530       ??_C@_0BA@FHFNEAED@AreFileApisANSI@ 0000000140087530     libucrt:winapi_thunks.obj
 0002:00006558       ??_C@_0BA@IHGNDAEB@CompareStringEx@ 0000000140087558     libucrt:winapi_thunks.obj
 0002:00006580       ??_C@_0BE@LJANKFHF@EnumSystemLocalesEx@ 0000000140087580     libucrt:winapi_thunks.obj
 0002:000065a8       ??_C@_0BA@HNOPNCHB@GetActiveWindow@ 00000001400875a8     libucrt:winapi_thunks.obj
 0002:000065d0       ??_C@_0BA@EPCJIIPD@GetDateFormatEx@ 00000001400875d0     libucrt:winapi_thunks.obj
 0002:000065f8       ??_C@_0O@NNMIPI@GetTempPath2W@ 00000001400875f8     libucrt:winapi_thunks.obj
 0002:00006618       ??_C@_0BJ@DIBIJBHA@GetEnabledXStateFeatures@ 0000000140087618     libucrt:winapi_thunks.obj
 0002:00006648       ??_C@_0BD@HHGDFDBJ@GetLastActivePopup@ 0000000140087648     libucrt:winapi_thunks.obj
 0002:00006670       ??_C@_0BA@ONOKGCMP@GetLocaleInfoEx@ 0000000140087670     libucrt:winapi_thunks.obj
 0002:00006698       ??_C@_0BI@DFKBFLJE@GetProcessWindowStation@ 0000000140087698     libucrt:winapi_thunks.obj
 0002:000066b8       ??_C@_0BP@FPNJPEJC@GetSystemTimePreciseAsFileTime@ 00000001400876b8     libucrt:winapi_thunks.obj
 0002:000066f0       ??_C@_0BA@CIJJKCJJ@GetTimeFormatEx@ 00000001400876f0     libucrt:winapi_thunks.obj
 0002:00006718       ??_C@_0BJ@PBCCBIPI@GetUserDefaultLocaleName@ 0000000140087718     libucrt:winapi_thunks.obj
 0002:00006748       ??_C@_0BK@DEKFELLI@GetUserObjectInformationW@ 0000000140087748     libucrt:winapi_thunks.obj
 0002:00006778       ??_C@_0BG@IKLDMBLM@GetXStateFeaturesMask@ 0000000140087778     libucrt:winapi_thunks.obj
 0002:000067b8       ??_C@_0BC@CELBKLLA@IsValidLocaleName@ 00000001400877b8     libucrt:winapi_thunks.obj
 0002:000067e0       ??_C@_0O@KKBNKAPF@LCMapStringEx@ 00000001400877e0     libucrt:winapi_thunks.obj
 0002:00006800       ??_C@_0BB@CDHDDLLP@LCIDToLocaleName@ 0000000140087800     libucrt:winapi_thunks.obj
 0002:00006828       ??_C@_0BB@HBDEELFH@LocaleNameToLCID@ 0000000140087828     libucrt:winapi_thunks.obj
 0002:00006850       ??_C@_0BE@KINNKFDA@LocateXStateFeature@ 0000000140087850     libucrt:winapi_thunks.obj
 0002:00006878       ??_C@_0M@CHKKJDAI@MessageBoxA@ 0000000140087878     libucrt:winapi_thunks.obj
 0002:00006898       ??_C@_0M@DLDCCGNP@MessageBoxW@ 0000000140087898     libucrt:winapi_thunks.obj
 0002:000068b0       ??_C@_0N@PPOMPGGK@RoInitialize@ 00000001400878b0     libucrt:winapi_thunks.obj
 0002:000068c8       ??_C@_0P@LLFHBIJD@RoUninitialize@ 00000001400878c8     libucrt:winapi_thunks.obj
 0002:000068e0       ??_C@_0CF@OJOFEIGO@AppPolicyGetProcessTerminationM@ 00000001400878e0     libucrt:winapi_thunks.obj
 0002:00006910       ??_C@_0CF@NNDFDCOC@AppPolicyGetThreadInitializatio@ 0000000140087910     libucrt:winapi_thunks.obj
 0002:00006940       ??_C@_0CE@OICFMIKE@AppPolicyGetShowDeveloperDiagno@ 0000000140087940     libucrt:winapi_thunks.obj
 0002:00006970       ??_C@_0BL@ODDJNEDA@AppPolicyGetWindowingModel@ 0000000140087970     libucrt:winapi_thunks.obj
 0002:000069a0       ??_C@_0BI@BKLFFAPO@SetThreadStackGuarantee@ 00000001400879a0     libucrt:winapi_thunks.obj
 0002:000069d0       ??_C@_0BC@JEAENNKH@SystemFunction036@ 00000001400879d0     libucrt:winapi_thunks.obj
 0002:000069f0       ?large_power_data@?1??multiply_by_power_of_ten@__crt_strtox@@YA_NAEAUbig_integer@2@I@Z@4QBIB 00000001400879f0     libucrt:cfout.obj
 0002:000074d0       ?large_power_indices@?1??multiply_by_power_of_ten@__crt_strtox@@YA_NAEAUbig_integer@2@I@Z@4QBUunpack_index@?1??12@YA_N0I@Z@B 00000001400884d0     libucrt:cfout.obj
 0002:00007588       ?small_powers_of_ten@?1??multiply_by_power_of_ten@__crt_strtox@@YA_NAEAUbig_integer@2@I@Z@4QBIB 0000000140088588     libucrt:cfout.obj
 0002:000075b4       ??_C@_01GBGANLPD@0@        00000001400885b4     libucrt:cfout.obj
 0002:000075b8       ??_C@_05DNEBIAHO@1?$CDINF@ 00000001400885b8     libucrt:cfout.obj
 0002:000075c0       ??_C@_06IMKFLFPG@1?$CDQNAN@ 00000001400885c0     libucrt:cfout.obj
 0002:000075c8       ??_C@_06PGGFOGJG@1?$CDSNAN@ 00000001400885c8     libucrt:cfout.obj
 0002:000075d0       ??_C@_05PHHOCPM@1?$CDIND@  00000001400885d0     libucrt:cfout.obj
 0002:0000875c       ??_C@_15EMKDOKLE@?$AAa?$AAr@ 000000014008975c     libucrt:lcidtoname_downlevel.obj
 0002:00008764       ??_C@_15KNPADPLH@?$AAb?$AAg@ 0000000140089764     libucrt:lcidtoname_downlevel.obj
 0002:0000876c       ??_C@_15EDMHLDMO@?$AAc?$AAa@ 000000014008976c     libucrt:lcidtoname_downlevel.obj
 0002:00008778       ??_C@_1O@BPEAJADD@?$AAz?$AAh?$AA?9?$AAC?$AAH?$AAS@ 0000000140089778     libucrt:lcidtoname_downlevel.obj
 0002:00008788       ??_C@_15LJNHCMNK@?$AAc?$AAs@ 0000000140089788     libucrt:lcidtoname_downlevel.obj
 0002:00008790       ??_C@_15FOMCIDHG@?$AAd?$AAa@ 0000000140089790     libucrt:lcidtoname_downlevel.obj
 0002:00008798       ??_C@_15NBKABECB@?$AAd?$AAe@ 0000000140089798     libucrt:lcidtoname_downlevel.obj
 0002:000087a0       ??_C@_15GHPEIIAO@?$AAe?$AAl@ 00000001400897a0     libucrt:lcidtoname_downlevel.obj
 0002:000087a8       ??_C@_15MNPNEAIF@?$AAe?$AAn@ 00000001400897a8     libucrt:lcidtoname_downlevel.obj
 0002:000087b0       ??_C@_15GPIOMPMH@?$AAe?$AAs@ 00000001400897b0     libucrt:lcidtoname_downlevel.obj
 0002:000087b8       ??_C@_15NGLOAKJC@?$AAf?$AAi@ 00000001400897b8     libucrt:lcidtoname_downlevel.obj
 0002:000087c0       ??_C@_15FBKGNKAM@?$AAf?$AAr@ 00000001400897c0     libucrt:lcidtoname_downlevel.obj
 0002:000087c8       ??_C@_15KGGCNEFK@?$AAh?$AAe@ 00000001400897c8     libucrt:lcidtoname_downlevel.obj
 0002:000087d0       ??_C@_15PGHLIDMF@?$AAh?$AAu@ 00000001400897d0     libucrt:lcidtoname_downlevel.obj
 0002:000087d8       ??_C@_15BIEMAPLM@?$AAi?$AAs@ 00000001400897d8     libucrt:lcidtoname_downlevel.obj
 0002:000087e0       ??_C@_15IFJLDHAF@?$AAi?$AAt@ 00000001400897e0     libucrt:lcidtoname_downlevel.obj
 0002:000087e8       ??_C@_15GEMIOCAG@?$AAj?$AAa@ 00000001400897e8     libucrt:lcidtoname_downlevel.obj
 0002:000087f0       ??_C@_15EPELEGJA@?$AAk?$AAo@ 00000001400897f0     libucrt:lcidtoname_downlevel.obj
 0002:000087f8       ??_C@_15NDDHIMN@?$AAn?$AAl@ 00000001400897f8     libucrt:lcidtoname_downlevel.obj
 0002:00008800       ??_C@_15BPIGNHCD@?$AAn?$AAo@ 0000000140089800     libucrt:lcidtoname_downlevel.obj
 0002:00008808       ??_C@_15DEOPBLCG@?$AAp?$AAl@ 0000000140089808     libucrt:lcidtoname_downlevel.obj
 0002:00008810       ??_C@_15KBECGEFG@?$AAp?$AAt@ 0000000140089810     libucrt:lcidtoname_downlevel.obj
 0002:00008818       ??_C@_15GLJCBFMD@?$AAr?$AAo@ 0000000140089818     libucrt:lcidtoname_downlevel.obj
 0002:00008820       ??_C@_15FEDGKCDI@?$AAr?$AAu@ 0000000140089820     libucrt:lcidtoname_downlevel.obj
 0002:00008828       ??_C@_15GLKMLLHM@?$AAh?$AAr@ 0000000140089828     libucrt:lcidtoname_downlevel.obj
 0002:00008830       ??_C@_15CPKMFBDB@?$AAs?$AAk@ 0000000140089830     libucrt:lcidtoname_downlevel.obj
 0002:00008838       ??_C@_15BAAIOGMK@?$AAs?$AAq@ 0000000140089838     libucrt:lcidtoname_downlevel.obj
 0002:00008840       ??_C@_15INNPNOHD@?$AAs?$AAv@ 0000000140089840     libucrt:lcidtoname_downlevel.obj
 0002:00008848       ??_C@_15CABMMOGH@?$AAt?$AAh@ 0000000140089848     libucrt:lcidtoname_downlevel.obj
 0002:00008850       ??_C@_15BPLIHJJM@?$AAt?$AAr@ 0000000140089850     libucrt:lcidtoname_downlevel.obj
 0002:00008858       ??_C@_15NEOEKKDJ@?$AAu?$AAr@ 0000000140089858     libucrt:lcidtoname_downlevel.obj
 0002:00008860       ??_C@_15NFICGAJK@?$AAi?$AAd@ 0000000140089860     libucrt:lcidtoname_downlevel.obj
 0002:00008868       ??_C@_15HPJPHDM@?$AAb?$AAe@ 0000000140089868     libucrt:lcidtoname_downlevel.obj
 0002:00008870       ??_C@_15LCHLGJII@?$AAs?$AAl@ 0000000140089870     libucrt:lcidtoname_downlevel.obj
 0002:00008878       ??_C@_15PCFJPHHO@?$AAe?$AAt@ 0000000140089878     libucrt:lcidtoname_downlevel.obj
 0002:00008880       ??_C@_15HPFPGODN@?$AAl?$AAv@ 0000000140089880     libucrt:lcidtoname_downlevel.obj
 0002:00008888       ??_C@_15NFFGKGLG@?$AAl?$AAt@ 0000000140089888     libucrt:lcidtoname_downlevel.obj
 0002:00008890       ??_C@_15BDAKCCHN@?$AAf?$AAa@ 0000000140089890     libucrt:lcidtoname_downlevel.obj
 0002:00008898       ??_C@_15NFGIAIAJ@?$AAv?$AAi@ 0000000140089898     libucrt:lcidtoname_downlevel.obj
 0002:000088a0       ??_C@_15LMKNDMHN@?$AAh?$AAy@ 00000001400898a0     libucrt:lcidtoname_downlevel.obj
 0002:000088a8       ??_C@_15IJBHMCFL@?$AAa?$AAz@ 00000001400898a8     libucrt:lcidtoname_downlevel.obj
 0002:000088b0       ??_C@_15EKOFJABL@?$AAe?$AAu@ 00000001400898b0     libucrt:lcidtoname_downlevel.obj
 0002:000088b8       ??_C@_15BGHADCNK@?$AAm?$AAk@ 00000001400898b8     libucrt:lcidtoname_downlevel.obj
 0002:000088c0       ??_C@_15JDNICKHM@?$AAa?$AAf@ 00000001400898c0     libucrt:lcidtoname_downlevel.obj
 0002:000088c8       ??_C@_15KPJEDBKD@?$AAk?$AAa@ 00000001400898c8     libucrt:lcidtoname_downlevel.obj
 0002:000088d0       ??_C@_15PDNFFFEO@?$AAf?$AAo@ 00000001400898d0     libucrt:lcidtoname_downlevel.obj
 0002:000088d8       ??_C@_15OMLEGLOC@?$AAh?$AAi@ 00000001400898d8     libucrt:lcidtoname_downlevel.obj
 0002:000088e0       ??_C@_15IDNNENKK@?$AAm?$AAs@ 00000001400898e0     libucrt:lcidtoname_downlevel.obj
 0002:000088e8       ??_C@_15MACJNBMH@?$AAk?$AAk@ 00000001400898e8     libucrt:lcidtoname_downlevel.obj
 0002:000088f0       ??_C@_15DKDJEOND@?$AAk?$AAy@ 00000001400898f0     libucrt:lcidtoname_downlevel.obj
 0002:000088f8       ??_C@_15DFGDLJBG@?$AAs?$AAw@ 00000001400898f8     libucrt:lcidtoname_downlevel.obj
 0002:00008900       ??_C@_15BBFAICNG@?$AAu?$AAz@ 0000000140089900     libucrt:lcidtoname_downlevel.obj
 0002:00008908       ??_C@_15DKNDCGEA@?$AAt?$AAt@ 0000000140089908     libucrt:lcidtoname_downlevel.obj
 0002:00008910       ??_C@_15MGIFMDPL@?$AAp?$AAa@ 0000000140089910     libucrt:lcidtoname_downlevel.obj
 0002:00008918       ??_C@_15HCNDBBA@?$AAg?$AAu@ 0000000140089918     libucrt:lcidtoname_downlevel.obj
 0002:00008920       ??_C@_15FNBEIBON@?$AAt?$AAa@ 0000000140089920     libucrt:lcidtoname_downlevel.obj
 0002:00008928       ??_C@_15NCHGBGLK@?$AAt?$AAe@ 0000000140089928     libucrt:lcidtoname_downlevel.obj
 0002:00008930       ??_C@_15PHPHCBPF@?$AAk?$AAn@ 0000000140089930     libucrt:lcidtoname_downlevel.obj
 0002:00008938       ??_C@_15DLGBCKMP@?$AAm?$AAr@ 0000000140089938     libucrt:lcidtoname_downlevel.obj
 0002:00008940       ??_C@_15EABBLBFF@?$AAs?$AAa@ 0000000140089940     libucrt:lcidtoname_downlevel.obj
 0002:00008948       ??_C@_15CBKOMCOI@?$AAm?$AAn@ 0000000140089948     libucrt:lcidtoname_downlevel.obj
 0002:00008950       ??_C@_15CKDMCJAF@?$AAg?$AAl@ 0000000140089950     libucrt:lcidtoname_downlevel.obj
 0002:00008958       ??_C@_17CNJFBPG@?$AAk?$AAo?$AAk@ 0000000140089958     libucrt:lcidtoname_downlevel.obj
 0002:00008968       ??_C@_17FFBJICPL@?$AAs?$AAy?$AAr@ 0000000140089968     libucrt:lcidtoname_downlevel.obj
 0002:00008978       ??_C@_17KPNDCPAF@?$AAd?$AAi?$AAv@ 0000000140089978     libucrt:lcidtoname_downlevel.obj
 0002:00008984       ??_C@_11LOCGONAA@@         0000000140089984     libucrt:lcidtoname_downlevel.obj
 0002:00008988       ??_C@_1M@OKAHONE@?$AAa?$AAr?$AA?9?$AAS?$AAA@ 0000000140089988     libucrt:lcidtoname_downlevel.obj
 0002:00008998       ??_C@_1M@FFFIGIGK@?$AAb?$AAg?$AA?9?$AAB?$AAG@ 0000000140089998     libucrt:lcidtoname_downlevel.obj
 0002:000089a8       ??_C@_1M@BJNKEDC@?$AAc?$AAa?$AA?9?$AAE?$AAS@ 00000001400899a8     libucrt:lcidtoname_downlevel.obj
 0002:000089b8       ??_C@_1M@IJJHFJHA@?$AAc?$AAs?$AA?9?$AAC?$AAZ@ 00000001400899b8     libucrt:lcidtoname_downlevel.obj
 0002:000089c8       ??_C@_1M@CLPEOBGI@?$AAd?$AAa?$AA?9?$AAD?$AAK@ 00000001400899c8     libucrt:lcidtoname_downlevel.obj
 0002:000089d8       ??_C@_1M@MCMADGCB@?$AAd?$AAe?$AA?9?$AAD?$AAE@ 00000001400899d8     libucrt:lcidtoname_downlevel.obj
 0002:000089e8       ??_C@_1M@OOCKEMAM@?$AAe?$AAl?$AA?9?$AAG?$AAR@ 00000001400899e8     libucrt:lcidtoname_downlevel.obj
 0002:000089f8       ??_C@_1M@DDNJFGID@?$AAf?$AAi?$AA?9?$AAF?$AAI@ 00000001400899f8     libucrt:lcidtoname_downlevel.obj
 0002:00008a08       ??_C@_1M@GLIPPMAC@?$AAf?$AAr?$AA?9?$AAF?$AAR@ 0000000140089a08     libucrt:lcidtoname_downlevel.obj
 0002:00008a18       ??_C@_1M@GFMCHPE@?$AAh?$AAe?$AA?9?$AAI?$AAL@ 0000000140089a18     libucrt:lcidtoname_downlevel.obj
 0002:00008a28       ??_C@_1M@MHLPGNKM@?$AAh?$AAu?$AA?9?$AAH?$AAU@ 0000000140089a28     libucrt:lcidtoname_downlevel.obj
 0002:00008a38       ??_C@_1M@LPDDNNPN@?$AAi?$AAs?$AA?9?$AAI?$AAS@ 0000000140089a38     libucrt:lcidtoname_downlevel.obj
 0002:00008a48       ??_C@_1M@MADIPODN@?$AAi?$AAt?$AA?9?$AAI?$AAT@ 0000000140089a48     libucrt:lcidtoname_downlevel.obj
 0002:00008a58       ??_C@_1M@IHBJJGG@?$AAn?$AAl?$AA?9?$AAN?$AAL@ 0000000140089a58     libucrt:lcidtoname_downlevel.obj
 0002:00008a68       ??_C@_1M@EANAGDL@?$AAn?$AAb?$AA?9?$AAN?$AAO@ 0000000140089a68     libucrt:lcidtoname_downlevel.obj
 0002:00008a78       ??_C@_1M@NEIEMEGP@?$AAp?$AAl?$AA?9?$AAP?$AAL@ 0000000140089a78     libucrt:lcidtoname_downlevel.obj
 0002:00008a88       ??_C@_1M@BOCFIGEP@?$AAp?$AAt?$AA?9?$AAB?$AAR@ 0000000140089a88     libucrt:lcidtoname_downlevel.obj
 0002:00008a98       ??_C@_1M@IMPFOPBG@?$AAr?$AAo?$AA?9?$AAR?$AAO@ 0000000140089a98     libucrt:lcidtoname_downlevel.obj
 0002:00008aa8       ??_C@_1M@IDNNEJMM@?$AAr?$AAu?$AA?9?$AAR?$AAU@ 0000000140089aa8     libucrt:lcidtoname_downlevel.obj
 0002:00008ab8       ??_C@_1M@LILEEOGM@?$AAh?$AAr?$AA?9?$AAH?$AAR@ 0000000140089ab8     libucrt:lcidtoname_downlevel.obj
 0002:00008ac8       ??_C@_1M@FKIFEHPB@?$AAs?$AAk?$AA?9?$AAS?$AAK@ 0000000140089ac8     libucrt:lcidtoname_downlevel.obj
 0002:00008ad8       ??_C@_1M@LJMAMNPJ@?$AAs?$AAq?$AA?9?$AAA?$AAL@ 0000000140089ad8     libucrt:lcidtoname_downlevel.obj
 0002:00008ae8       ??_C@_1M@GIAKDKJK@?$AAs?$AAv?$AA?9?$AAS?$AAE@ 0000000140089ae8     libucrt:lcidtoname_downlevel.obj
 0002:00008af8       ??_C@_1M@MKJKIKCL@?$AAt?$AAh?$AA?9?$AAT?$AAH@ 0000000140089af8     libucrt:lcidtoname_downlevel.obj
 0002:00008b08       ??_C@_1M@MFLCCMPB@?$AAt?$AAr?$AA?9?$AAT?$AAR@ 0000000140089b08     libucrt:lcidtoname_downlevel.obj
 0002:00008b18       ??_C@_1M@OIJHDKJN@?$AAu?$AAr?$AA?9?$AAP?$AAK@ 0000000140089b18     libucrt:lcidtoname_downlevel.obj
 0002:00008b28       ??_C@_1M@LHIPCIEK@?$AAi?$AAd?$AA?9?$AAI?$AAD@ 0000000140089b28     libucrt:lcidtoname_downlevel.obj
 0002:00008b38       ??_C@_1M@MFMOBGI@?$AAu?$AAk?$AA?9?$AAU?$AAA@ 0000000140089b38     libucrt:lcidtoname_downlevel.obj
 0002:00008b48       ??_C@_1M@OBGLJIPL@?$AAb?$AAe?$AA?9?$AAB?$AAY@ 0000000140089b48     libucrt:lcidtoname_downlevel.obj
 0002:00008b58       ??_C@_1M@BCFAJEAD@?$AAs?$AAl?$AA?9?$AAS?$AAI@ 0000000140089b58     libucrt:lcidtoname_downlevel.obj
 0002:00008b68       ??_C@_1M@FKFFEDDN@?$AAe?$AAt?$AA?9?$AAE?$AAE@ 0000000140089b68     libucrt:lcidtoname_downlevel.obj
 0002:00008b78       ??_C@_1M@KGKKAACI@?$AAl?$AAv?$AA?9?$AAL?$AAV@ 0000000140089b78     libucrt:lcidtoname_downlevel.obj
 0002:00008b88       ??_C@_1M@IFGBIJO@?$AAl?$AAt?$AA?9?$AAL?$AAT@ 0000000140089b88     libucrt:lcidtoname_downlevel.obj
 0002:00008b98       ??_C@_1M@FGEAHEDM@?$AAf?$AAa?$AA?9?$AAI?$AAR@ 0000000140089b98     libucrt:lcidtoname_downlevel.obj
 0002:00008ba8       ??_C@_1M@KBMAIBFN@?$AAv?$AAi?$AA?9?$AAV?$AAN@ 0000000140089ba8     libucrt:lcidtoname_downlevel.obj
 0002:00008bb8       ??_C@_1M@GPCBKDJK@?$AAh?$AAy?$AA?9?$AAA?$AAM@ 0000000140089bb8     libucrt:lcidtoname_downlevel.obj
 0002:00008bc8       ??_C@_1BG@BECMDDJB@?$AAa?$AAz?$AA?9?$AAA?$AAZ?$AA?9?$AAL?$AAa?$AAt?$AAn@ 0000000140089bc8     libucrt:lcidtoname_downlevel.obj
 0002:00008be8       ??_C@_1M@MAOFCAEA@?$AAe?$AAu?$AA?9?$AAE?$AAS@ 0000000140089be8     libucrt:lcidtoname_downlevel.obj
 0002:00008bf8       ??_C@_1M@IGHABKPI@?$AAm?$AAk?$AA?9?$AAM?$AAK@ 0000000140089bf8     libucrt:lcidtoname_downlevel.obj
 0002:00008c08       ??_C@_1M@IAIGNEJG@?$AAt?$AAn?$AA?9?$AAZ?$AAA@ 0000000140089c08     libucrt:lcidtoname_downlevel.obj
 0002:00008c18       ??_C@_1M@IIJCOJFA@?$AAx?$AAh?$AA?9?$AAZ?$AAA@ 0000000140089c18     libucrt:lcidtoname_downlevel.obj
 0002:00008c28       ??_C@_1M@LGPJHNJH@?$AAz?$AAu?$AA?9?$AAZ?$AAA@ 0000000140089c28     libucrt:lcidtoname_downlevel.obj
 0002:00008c38       ??_C@_1M@HOKAOIO@?$AAa?$AAf?$AA?9?$AAZ?$AAA@ 0000000140089c38     libucrt:lcidtoname_downlevel.obj
 0002:00008c48       ??_C@_1M@DPCLHLIE@?$AAk?$AAa?$AA?9?$AAG?$AAE@ 0000000140089c48     libucrt:lcidtoname_downlevel.obj
 0002:00008c58       ??_C@_1M@BLKMHJBI@?$AAf?$AAo?$AA?9?$AAF?$AAO@ 0000000140089c58     libucrt:lcidtoname_downlevel.obj
 0002:00008c68       ??_C@_1M@LGGJAPPB@?$AAh?$AAi?$AA?9?$AAI?$AAN@ 0000000140089c68     libucrt:lcidtoname_downlevel.obj
 0002:00008c78       ??_C@_1M@FIKPIHFE@?$AAm?$AAt?$AA?9?$AAM?$AAT@ 0000000140089c78     libucrt:lcidtoname_downlevel.obj
 0002:00008c88       ??_C@_1M@HEGGPBFA@?$AAs?$AAe?$AA?9?$AAN?$AAO@ 0000000140089c88     libucrt:lcidtoname_downlevel.obj
 0002:00008c98       ??_C@_1M@EIBJEEPA@?$AAm?$AAs?$AA?9?$AAM?$AAY@ 0000000140089c98     libucrt:lcidtoname_downlevel.obj
 0002:00008ca8       ??_C@_1M@FHLBGMPP@?$AAk?$AAk?$AA?9?$AAK?$AAZ@ 0000000140089ca8     libucrt:lcidtoname_downlevel.obj
 0002:00008cb8       ??_C@_1M@NGJJLCGI@?$AAk?$AAy?$AA?9?$AAK?$AAG@ 0000000140089cb8     libucrt:lcidtoname_downlevel.obj
 0002:00008cc8       ??_C@_1M@GIENNBFC@?$AAs?$AAw?$AA?9?$AAK?$AAE@ 0000000140089cc8     libucrt:lcidtoname_downlevel.obj
 0002:00008cd8       ??_C@_1BG@NDGMJIMJ@?$AAu?$AAz?$AA?9?$AAU?$AAZ?$AA?9?$AAL?$AAa?$AAt?$AAn@ 0000000140089cd8     libucrt:lcidtoname_downlevel.obj
 0002:00008cf8       ??_C@_1M@IDCCIHBC@?$AAt?$AAt?$AA?9?$AAR?$AAU@ 0000000140089cf8     libucrt:lcidtoname_downlevel.obj
 0002:00008d08       ??_C@_1M@LOICPMOJ@?$AAb?$AAn?$AA?9?$AAI?$AAN@ 0000000140089d08     libucrt:lcidtoname_downlevel.obj
 0002:00008d18       ??_C@_1M@KPKKNEAH@?$AAp?$AAa?$AA?9?$AAI?$AAN@ 0000000140089d18     libucrt:lcidtoname_downlevel.obj
 0002:00008d28       ??_C@_1M@PJGPPBOG@?$AAg?$AAu?$AA?9?$AAI?$AAN@ 0000000140089d28     libucrt:lcidtoname_downlevel.obj
 0002:00008d38       ??_C@_1M@KMKMOPHI@?$AAt?$AAa?$AA?9?$AAI?$AAN@ 0000000140089d38     libucrt:lcidtoname_downlevel.obj
 0002:00008d48       ??_C@_1M@KFEHEPAC@?$AAt?$AAe?$AA?9?$AAI?$AAN@ 0000000140089d48     libucrt:lcidtoname_downlevel.obj
 0002:00008d58       ??_C@_1M@CDCLMGHI@?$AAk?$AAn?$AA?9?$AAI?$AAN@ 0000000140089d58     libucrt:lcidtoname_downlevel.obj
 0002:00008d68       ??_C@_1M@MIODLDKF@?$AAm?$AAl?$AA?9?$AAI?$AAN@ 0000000140089d68     libucrt:lcidtoname_downlevel.obj
 0002:00008d78       ??_C@_1M@PBIEACPO@?$AAm?$AAr?$AA?9?$AAI?$AAN@ 0000000140089d78     libucrt:lcidtoname_downlevel.obj
 0002:00008d88       ??_C@_1M@NIDEAGPH@?$AAs?$AAa?$AA?9?$AAI?$AAN@ 0000000140089d88     libucrt:lcidtoname_downlevel.obj
 0002:00008d98       ??_C@_1M@FHIHCBIO@?$AAm?$AAn?$AA?9?$AAM?$AAN@ 0000000140089d98     libucrt:lcidtoname_downlevel.obj
 0002:00008da8       ??_C@_1M@JAIJPENP@?$AAc?$AAy?$AA?9?$AAG?$AAB@ 0000000140089da8     libucrt:lcidtoname_downlevel.obj
 0002:00008db8       ??_C@_1M@PHGFBEPN@?$AAg?$AAl?$AA?9?$AAE?$AAS@ 0000000140089db8     libucrt:lcidtoname_downlevel.obj
 0002:00008dc8       ??_C@_1O@KPIPDNCP@?$AAk?$AAo?$AAk?$AA?9?$AAI?$AAN@ 0000000140089dc8     libucrt:lcidtoname_downlevel.obj
 0002:00008dd8       ??_C@_1O@KNHJLDJA@?$AAs?$AAy?$AAr?$AA?9?$AAS?$AAY@ 0000000140089dd8     libucrt:lcidtoname_downlevel.obj
 0002:00008de8       ??_C@_1O@MKEKBLAH@?$AAd?$AAi?$AAv?$AA?9?$AAM?$AAV@ 0000000140089de8     libucrt:lcidtoname_downlevel.obj
 0002:00008df8       ??_C@_1O@OHDCKDDF@?$AAq?$AAu?$AAz?$AA?9?$AAB?$AAO@ 0000000140089df8     libucrt:lcidtoname_downlevel.obj
 0002:00008e08       ??_C@_1M@LEPJNLFD@?$AAn?$AAs?$AA?9?$AAZ?$AAA@ 0000000140089e08     libucrt:lcidtoname_downlevel.obj
